ARM GAS  C:\Users\Godwin\AppData\Local\Temp\ccZx2d9m.s 			page 1


   1              		.cpu cortex-m7
   2              		.arch armv7e-m
   3              		.fpu fpv5-d16
   4              		.eabi_attribute 28, 1
   5              		.eabi_attribute 20, 1
   6              		.eabi_attribute 21, 1
   7              		.eabi_attribute 23, 3
   8              		.eabi_attribute 24, 1
   9              		.eabi_attribute 25, 1
  10              		.eabi_attribute 26, 1
  11              		.eabi_attribute 30, 6
  12              		.eabi_attribute 34, 1
  13              		.eabi_attribute 18, 4
  14              		.file	"arm.c"
  15              		.text
  16              	.Ltext0:
  17              		.cfi_sections	.debug_frame
  18              		.file 1 "User/Hardware/arm.c"
  19              		.global	g_ShoulderType
  20              		.section	.bss.g_ShoulderType,"aw",%nobits
  23              	g_ShoulderType:
  24 0000 00       		.space	1
  25              		.global	servo_state_daran
  26              		.section	.bss.servo_state_daran,"aw",%nobits
  27              		.align	2
  30              	servo_state_daran:
  31 0000 00000000 		.space	24
  31      00000000 
  31      00000000 
  31      00000000 
  31      00000000 
  32              		.global	servo_volcur_daran
  33              		.section	.bss.servo_volcur_daran,"aw",%nobits
  34              		.align	2
  37              	servo_volcur_daran:
  38 0000 00000000 		.space	24
  38      00000000 
  38      00000000 
  38      00000000 
  38      00000000 
  39              		.global	motor1
  40              		.section	.bss.motor1,"aw",%nobits
  41              		.align	3
  44              	motor1:
  45 0000 00000000 		.space	216
  45      00000000 
  45      00000000 
  45      00000000 
  45      00000000 
  46              		.global	motor2
  47              		.section	.bss.motor2,"aw",%nobits
  48              		.align	3
  51              	motor2:
  52 0000 00000000 		.space	216
  52      00000000 
  52      00000000 
  52      00000000 
ARM GAS  C:\Users\Godwin\AppData\Local\Temp\ccZx2d9m.s 			page 2


  52      00000000 
  53              		.global	motor3
  54              		.section	.bss.motor3,"aw",%nobits
  55              		.align	3
  58              	motor3:
  59 0000 00000000 		.space	216
  59      00000000 
  59      00000000 
  59      00000000 
  59      00000000 
  60              		.global	Linzu_motor_data
  61              		.section	.bss.Linzu_motor_data,"aw",%nobits
  62              		.align	2
  65              	Linzu_motor_data:
  66 0000 00000000 		.space	48
  66      00000000 
  66      00000000 
  66      00000000 
  66      00000000 
  67              		.global	Daran_motor_data
  68              		.section	.bss.Daran_motor_data,"aw",%nobits
  69              		.align	2
  72              	Daran_motor_data:
  73 0000 00000000 		.space	48
  73      00000000 
  73      00000000 
  73      00000000 
  73      00000000 
  74              		.global	Damiao_motor_data
  75              		.section	.bss.Damiao_motor_data,"aw",%nobits
  76              		.align	2
  79              	Damiao_motor_data:
  80 0000 00000000 		.space	48
  80      00000000 
  80      00000000 
  80      00000000 
  80      00000000 
  81              		.global	reply_enable
  82              		.section	.bss.reply_enable,"aw",%nobits
  83              		.align	2
  86              	reply_enable:
  87 0000 00000000 		.space	4
  88              		.section	.text.Arm_Init,"ax",%progbits
  89              		.align	1
  90              		.global	Arm_Init
  91              		.syntax unified
  92              		.thumb
  93              		.thumb_func
  95              	Arm_Init:
  96              	.LFB151:
   1:User/Hardware/arm.c **** #include "arm.h"
   2:User/Hardware/arm.c **** #include "dm4310_drv.h"
   3:User/Hardware/arm.c **** #include "Robstride04.h"
   4:User/Hardware/arm.c **** #include "pid.h"
   5:User/Hardware/arm.c **** #include "remote_control.h"
   6:User/Hardware/arm.c **** #include "gpio.h"
   7:User/Hardware/arm.c **** #include "gom_protocol.h"
ARM GAS  C:\Users\Godwin\AppData\Local\Temp\ccZx2d9m.s 			page 3


   8:User/Hardware/arm.c **** #include "usart.h"
   9:User/Hardware/arm.c **** #include "LZ_motor_driver.h"
  10:User/Hardware/arm.c **** #include "FreeRTOS.h"
  11:User/Hardware/arm.c **** #include "task.h"
  12:User/Hardware/arm.c **** #include "DrEmpower_can.h"
  13:User/Hardware/arm.c **** #include "stdio.h"
  14:User/Hardware/arm.c **** ShoulderType_t g_ShoulderType; // Ľç˛żŔŕĐÍ
  15:User/Hardware/arm.c **** 
  16:User/Hardware/arm.c **** struct servo_state servo_state_daran[3];
  17:User/Hardware/arm.c **** struct servo_volcur servo_volcur_daran[3];
  18:User/Hardware/arm.c **** // ´ďĂîµç»ú×´Ě¬
  19:User/Hardware/arm.c **** extern Motor_DM_Status DM_Status[6];
  20:User/Hardware/arm.c **** RobStride_Motor_t motor1; // Áé×ăµç»ú¶ÔĎó
  21:User/Hardware/arm.c **** RobStride_Motor_t motor2; // Áé×ăµç»ú¶ÔĎó
  22:User/Hardware/arm.c **** RobStride_Motor_t motor3; // Áé×ăµç»ú¶ÔĎó
  23:User/Hardware/arm.c **** // Áé×ăĽçµç»úĘýľÝ
  24:User/Hardware/arm.c **** ArmMotorData_t Linzu_motor_data[3];
  25:User/Hardware/arm.c **** // ´óČ»Ľçµç»úĘýľÝ
  26:User/Hardware/arm.c **** ArmMotorData_t Daran_motor_data[3];
  27:User/Hardware/arm.c **** // ´ďĂîµç»úĘýľÝ
  28:User/Hardware/arm.c **** ArmMotorData_t Damiao_motor_data[3];
  29:User/Hardware/arm.c **** 
  30:User/Hardware/arm.c **** float reply_enable = 0.0f;
  31:User/Hardware/arm.c **** void Arm_Init()
  32:User/Hardware/arm.c **** {
  97              		.loc 1 32 1
  98              		.cfi_startproc
  99              		@ args = 0, pretend = 0, frame = 0
 100              		@ frame_needed = 1, uses_anonymous_args = 0
 101 0000 80B5     		push	{r7, lr}
 102              	.LCFI0:
 103              		.cfi_def_cfa_offset 8
 104              		.cfi_offset 7, -8
 105              		.cfi_offset 14, -4
 106 0002 00AF     		add	r7, sp, #0
 107              	.LCFI1:
 108              		.cfi_def_cfa_register 7
  33:User/Hardware/arm.c ****     // ŃˇÔńÄ¬ČĎĽç˛żŔŕĐÍ
  34:User/Hardware/arm.c ****     // g_ShoulderType = SHOULDER_TYPE_LINGZU;
  35:User/Hardware/arm.c ****     g_ShoulderType = SHOULDER_TYPE_DARAN;
 109              		.loc 1 35 20
 110 0004 844B     		ldr	r3, .L2
 111 0006 0122     		movs	r2, #1
 112 0008 1A70     		strb	r2, [r3]
  36:User/Hardware/arm.c ****     /* Áé×ăµç»úłőĘĽ»ŻŁ¨ĘąÓĂ CAN2Ł©*/
  37:User/Hardware/arm.c ****     // 1şĹµç»úłőĘĽ»Ż
  38:User/Hardware/arm.c ****     RobStride_Motor_Init(&motor1, MOTOR_LINGZU_1_ID, false);
 113              		.loc 1 38 5
 114 000a 0022     		movs	r2, #0
 115 000c 0121     		movs	r1, #1
 116 000e 8348     		ldr	r0, .L2+4
 117 0010 FFF7FEFF 		bl	RobStride_Motor_Init
  39:User/Hardware/arm.c ****     Get_RobStride_Motor_parameter(&motor1, CAN_HANDLE_2, 0X7005);
 118              		.loc 1 39 5
 119 0014 47F20502 		movw	r2, #28677
 120 0018 8149     		ldr	r1, .L2+8
 121 001a 8048     		ldr	r0, .L2+4
ARM GAS  C:\Users\Godwin\AppData\Local\Temp\ccZx2d9m.s 			page 4


 122 001c FFF7FEFF 		bl	Get_RobStride_Motor_parameter
  40:User/Hardware/arm.c ****     HAL_Delay(10);
 123              		.loc 1 40 5
 124 0020 0A20     		movs	r0, #10
 125 0022 FFF7FEFF 		bl	HAL_Delay
  41:User/Hardware/arm.c ****     Set_RobStride_Motor_parameter(&motor1, CAN_HANDLE_2, 0X7005, CSP_control_mode, 'j');
 126              		.loc 1 41 5
 127 0026 6A23     		movs	r3, #106
 128 0028 B1EE040A 		vmov.f32	s0, #5.0e+0
 129 002c 47F20502 		movw	r2, #28677
 130 0030 7B49     		ldr	r1, .L2+8
 131 0032 7A48     		ldr	r0, .L2+4
 132 0034 FFF7FEFF 		bl	Set_RobStride_Motor_parameter
  42:User/Hardware/arm.c ****     Enable_Motor(&motor1, (hcan_t *)CAN_HANDLE_2);
 133              		.loc 1 42 5
 134 0038 7949     		ldr	r1, .L2+8
 135 003a 7848     		ldr	r0, .L2+4
 136 003c FFF7FEFF 		bl	Enable_Motor
  43:User/Hardware/arm.c ****     Set_RobStride_Motor_parameter(&motor1, CAN_HANDLE_2, 0X7017, 1.0f, 'p');
 137              		.loc 1 43 5
 138 0040 7023     		movs	r3, #112
 139 0042 B7EE000A 		vmov.f32	s0, #1.0e+0
 140 0046 47F21702 		movw	r2, #28695
 141 004a 7549     		ldr	r1, .L2+8
 142 004c 7348     		ldr	r0, .L2+4
 143 004e FFF7FEFF 		bl	Set_RobStride_Motor_parameter
  44:User/Hardware/arm.c ****     HAL_Delay(10);
 144              		.loc 1 44 5
 145 0052 0A20     		movs	r0, #10
 146 0054 FFF7FEFF 		bl	HAL_Delay
  45:User/Hardware/arm.c ****     RobStride_Motor_ProactiveEscalationSet(&motor1, CAN_HANDLE_2, 0x01); // 00ÎŞąŘ±ŐÖ÷¶ŻÉĎ±¨Ł¬01ÎŞż
 147              		.loc 1 45 5
 148 0058 0122     		movs	r2, #1
 149 005a 7149     		ldr	r1, .L2+8
 150 005c 6F48     		ldr	r0, .L2+4
 151 005e FFF7FEFF 		bl	RobStride_Motor_ProactiveEscalationSet
  46:User/Hardware/arm.c ****     // 2şĹµç»úłőĘĽ»Ż
  47:User/Hardware/arm.c ****     RobStride_Motor_Init(&motor2, MOTOR_LINGZU_2_ID, false);
 152              		.loc 1 47 5
 153 0062 0022     		movs	r2, #0
 154 0064 0221     		movs	r1, #2
 155 0066 6F48     		ldr	r0, .L2+12
 156 0068 FFF7FEFF 		bl	RobStride_Motor_Init
  48:User/Hardware/arm.c ****     Get_RobStride_Motor_parameter(&motor2, CAN_HANDLE_2, 0X7005);
 157              		.loc 1 48 5
 158 006c 47F20502 		movw	r2, #28677
 159 0070 6B49     		ldr	r1, .L2+8
 160 0072 6C48     		ldr	r0, .L2+12
 161 0074 FFF7FEFF 		bl	Get_RobStride_Motor_parameter
  49:User/Hardware/arm.c ****     HAL_Delay(10);
 162              		.loc 1 49 5
 163 0078 0A20     		movs	r0, #10
 164 007a FFF7FEFF 		bl	HAL_Delay
  50:User/Hardware/arm.c ****     Set_RobStride_Motor_parameter(&motor2, CAN_HANDLE_2, 0X7005, CSP_control_mode, 'j');
 165              		.loc 1 50 5
 166 007e 6A23     		movs	r3, #106
 167 0080 B1EE040A 		vmov.f32	s0, #5.0e+0
ARM GAS  C:\Users\Godwin\AppData\Local\Temp\ccZx2d9m.s 			page 5


 168 0084 47F20502 		movw	r2, #28677
 169 0088 6549     		ldr	r1, .L2+8
 170 008a 6648     		ldr	r0, .L2+12
 171 008c FFF7FEFF 		bl	Set_RobStride_Motor_parameter
  51:User/Hardware/arm.c ****     Enable_Motor(&motor2, (hcan_t *)CAN_HANDLE_2);
 172              		.loc 1 51 5
 173 0090 6349     		ldr	r1, .L2+8
 174 0092 6448     		ldr	r0, .L2+12
 175 0094 FFF7FEFF 		bl	Enable_Motor
  52:User/Hardware/arm.c ****     Set_RobStride_Motor_parameter(&motor2, CAN_HANDLE_2, 0X7017, 1.0f, 'p');
 176              		.loc 1 52 5
 177 0098 7023     		movs	r3, #112
 178 009a B7EE000A 		vmov.f32	s0, #1.0e+0
 179 009e 47F21702 		movw	r2, #28695
 180 00a2 5F49     		ldr	r1, .L2+8
 181 00a4 5F48     		ldr	r0, .L2+12
 182 00a6 FFF7FEFF 		bl	Set_RobStride_Motor_parameter
  53:User/Hardware/arm.c ****     HAL_Delay(10);
 183              		.loc 1 53 5
 184 00aa 0A20     		movs	r0, #10
 185 00ac FFF7FEFF 		bl	HAL_Delay
  54:User/Hardware/arm.c ****     RobStride_Motor_ProactiveEscalationSet(&motor2, CAN_HANDLE_2, 0x01); // 00ÎŞąŘ±ŐÖ÷¶ŻÉĎ±¨Ł¬01ÎŞż
 186              		.loc 1 54 5
 187 00b0 0122     		movs	r2, #1
 188 00b2 5B49     		ldr	r1, .L2+8
 189 00b4 5B48     		ldr	r0, .L2+12
 190 00b6 FFF7FEFF 		bl	RobStride_Motor_ProactiveEscalationSet
  55:User/Hardware/arm.c ****     // 3şĹµç»úłőĘĽ»Ż
  56:User/Hardware/arm.c ****     RobStride_Motor_Init(&motor3, MOTOR_LINGZU_3_ID, false);
 191              		.loc 1 56 5
 192 00ba 0022     		movs	r2, #0
 193 00bc 0321     		movs	r1, #3
 194 00be 5A48     		ldr	r0, .L2+16
 195 00c0 FFF7FEFF 		bl	RobStride_Motor_Init
  57:User/Hardware/arm.c ****     Get_RobStride_Motor_parameter(&motor3, CAN_HANDLE_2, 0X7005);
 196              		.loc 1 57 5
 197 00c4 47F20502 		movw	r2, #28677
 198 00c8 5549     		ldr	r1, .L2+8
 199 00ca 5748     		ldr	r0, .L2+16
 200 00cc FFF7FEFF 		bl	Get_RobStride_Motor_parameter
  58:User/Hardware/arm.c ****     HAL_Delay(10);
 201              		.loc 1 58 5
 202 00d0 0A20     		movs	r0, #10
 203 00d2 FFF7FEFF 		bl	HAL_Delay
  59:User/Hardware/arm.c ****     Set_RobStride_Motor_parameter(&motor3, CAN_HANDLE_2, 0X7005, CSP_control_mode, 'j');
 204              		.loc 1 59 5
 205 00d6 6A23     		movs	r3, #106
 206 00d8 B1EE040A 		vmov.f32	s0, #5.0e+0
 207 00dc 47F20502 		movw	r2, #28677
 208 00e0 4F49     		ldr	r1, .L2+8
 209 00e2 5148     		ldr	r0, .L2+16
 210 00e4 FFF7FEFF 		bl	Set_RobStride_Motor_parameter
  60:User/Hardware/arm.c ****     Enable_Motor(&motor3, (hcan_t *)CAN_HANDLE_2);
 211              		.loc 1 60 5
 212 00e8 4D49     		ldr	r1, .L2+8
 213 00ea 4F48     		ldr	r0, .L2+16
 214 00ec FFF7FEFF 		bl	Enable_Motor
ARM GAS  C:\Users\Godwin\AppData\Local\Temp\ccZx2d9m.s 			page 6


  61:User/Hardware/arm.c ****     Set_RobStride_Motor_parameter(&motor3, CAN_HANDLE_2, 0X7017, 1.0f, 'p');
 215              		.loc 1 61 5
 216 00f0 7023     		movs	r3, #112
 217 00f2 B7EE000A 		vmov.f32	s0, #1.0e+0
 218 00f6 47F21702 		movw	r2, #28695
 219 00fa 4949     		ldr	r1, .L2+8
 220 00fc 4A48     		ldr	r0, .L2+16
 221 00fe FFF7FEFF 		bl	Set_RobStride_Motor_parameter
  62:User/Hardware/arm.c ****     HAL_Delay(10);
 222              		.loc 1 62 5
 223 0102 0A20     		movs	r0, #10
 224 0104 FFF7FEFF 		bl	HAL_Delay
  63:User/Hardware/arm.c ****     RobStride_Motor_ProactiveEscalationSet(&motor3, CAN_HANDLE_2, 0x01); // 00ÎŞąŘ±ŐÖ÷¶ŻÉĎ±¨Ł¬01ÎŞż
 225              		.loc 1 63 5
 226 0108 0122     		movs	r2, #1
 227 010a 4549     		ldr	r1, .L2+8
 228 010c 4648     		ldr	r0, .L2+16
 229 010e FFF7FEFF 		bl	RobStride_Motor_ProactiveEscalationSet
  64:User/Hardware/arm.c ****                                                                          /* ´óČ»µç»úłőĘĽ»ŻŁ¨ĘąÓĂ CA
  65:User/Hardware/arm.c ****                                                                          // 1şĹµç»úłőĘĽ»Ż
  66:User/Hardware/arm.c ****                                                                          // clear_error(CAN_HANDLE_
  67:User/Hardware/arm.c **** 
  68:User/Hardware/arm.c ****     /* ´óČ»µç»úłőĘĽ»ŻŁ¨ĘąÓĂ CAN2Ł©*/
  69:User/Hardware/arm.c ****     clear_error(CAN_HANDLE_2, MOTOR_DARAN_1_ID);
 230              		.loc 1 69 5
 231 0112 0B21     		movs	r1, #11
 232 0114 4248     		ldr	r0, .L2+8
 233 0116 FFF7FEFF 		bl	clear_error
  70:User/Hardware/arm.c ****     set_mode(CAN_HANDLE_2, MOTOR_DARAN_1_ID, 2);
 234              		.loc 1 70 5
 235 011a 0222     		movs	r2, #2
 236 011c 0B21     		movs	r1, #11
 237 011e 4048     		ldr	r0, .L2+8
 238 0120 FFF7FEFF 		bl	set_mode
  71:User/Hardware/arm.c ****     write_property(CAN_HANDLE_2, MOTOR_DARAN_1_ID, 22001, 3, 1.0f);
 239              		.loc 1 71 5
 240 0124 B7EE000A 		vmov.f32	s0, #1.0e+0
 241 0128 0323     		movs	r3, #3
 242 012a 45F2F152 		movw	r2, #22001
 243 012e 0B21     		movs	r1, #11
 244 0130 3B48     		ldr	r0, .L2+8
 245 0132 FFF7FEFF 		bl	write_property
  72:User/Hardware/arm.c **** 
  73:User/Hardware/arm.c ****     clear_error(CAN_HANDLE_2, MOTOR_DARAN_2_ID);
 246              		.loc 1 73 5
 247 0136 0C21     		movs	r1, #12
 248 0138 3948     		ldr	r0, .L2+8
 249 013a FFF7FEFF 		bl	clear_error
  74:User/Hardware/arm.c ****     set_mode(CAN_HANDLE_2, MOTOR_DARAN_2_ID, 2);
 250              		.loc 1 74 5
 251 013e 0222     		movs	r2, #2
 252 0140 0C21     		movs	r1, #12
 253 0142 3748     		ldr	r0, .L2+8
 254 0144 FFF7FEFF 		bl	set_mode
  75:User/Hardware/arm.c ****     write_property(CAN_HANDLE_2, MOTOR_DARAN_2_ID, 22001, 3, 1.0f);
 255              		.loc 1 75 5
 256 0148 B7EE000A 		vmov.f32	s0, #1.0e+0
ARM GAS  C:\Users\Godwin\AppData\Local\Temp\ccZx2d9m.s 			page 7


 257 014c 0323     		movs	r3, #3
 258 014e 45F2F152 		movw	r2, #22001
 259 0152 0C21     		movs	r1, #12
 260 0154 3248     		ldr	r0, .L2+8
 261 0156 FFF7FEFF 		bl	write_property
  76:User/Hardware/arm.c **** 
  77:User/Hardware/arm.c ****     clear_error(CAN_HANDLE_2, MOTOR_DARAN_3_ID);
 262              		.loc 1 77 5
 263 015a 0D21     		movs	r1, #13
 264 015c 3048     		ldr	r0, .L2+8
 265 015e FFF7FEFF 		bl	clear_error
  78:User/Hardware/arm.c ****     set_mode(CAN_HANDLE_2, MOTOR_DARAN_3_ID, 2);
 266              		.loc 1 78 5
 267 0162 0222     		movs	r2, #2
 268 0164 0D21     		movs	r1, #13
 269 0166 2E48     		ldr	r0, .L2+8
 270 0168 FFF7FEFF 		bl	set_mode
  79:User/Hardware/arm.c ****     write_property(CAN_HANDLE_2, MOTOR_DARAN_3_ID, 22001, 3, 1.0f);
 271              		.loc 1 79 5
 272 016c B7EE000A 		vmov.f32	s0, #1.0e+0
 273 0170 0323     		movs	r3, #3
 274 0172 45F2F152 		movw	r2, #22001
 275 0176 0D21     		movs	r1, #13
 276 0178 2948     		ldr	r0, .L2+8
 277 017a FFF7FEFF 		bl	write_property
  80:User/Hardware/arm.c **** 
  81:User/Hardware/arm.c ****     /* ´ďĂîµç»úłőĘĽ»ŻŁ¨ĘąÓĂ CAN2Ł©*/
  82:User/Hardware/arm.c ****     arm_motor_init(&arm_motor[Motor4], MOTOR_DAMIAO_4_ID, POS_MODE);
 278              		.loc 1 82 5
 279 017e 4FF48072 		mov	r2, #256
 280 0182 0421     		movs	r1, #4
 281 0184 2948     		ldr	r0, .L2+20
 282 0186 FFF7FEFF 		bl	arm_motor_init
  83:User/Hardware/arm.c ****     arm_motor_init(&arm_motor[Motor5], MOTOR_DAMIAO_5_ID, POS_MODE);
 283              		.loc 1 83 5
 284 018a 4FF48072 		mov	r2, #256
 285 018e 0521     		movs	r1, #5
 286 0190 2748     		ldr	r0, .L2+24
 287 0192 FFF7FEFF 		bl	arm_motor_init
  84:User/Hardware/arm.c ****     arm_motor_init(&arm_motor[Motor6], MOTOR_DAMIAO_6_ID, POS_MODE);
 288              		.loc 1 84 5
 289 0196 4FF48072 		mov	r2, #256
 290 019a 0621     		movs	r1, #6
 291 019c 2548     		ldr	r0, .L2+28
 292 019e FFF7FEFF 		bl	arm_motor_init
  85:User/Hardware/arm.c **** 
  86:User/Hardware/arm.c ****     enable_motor_mode(CAN_HANDLE_2, MOTOR_DAMIAO_4_ID, POS_MODE);
 293              		.loc 1 86 5
 294 01a2 4FF48072 		mov	r2, #256
 295 01a6 0421     		movs	r1, #4
 296 01a8 1D48     		ldr	r0, .L2+8
 297 01aa FFF7FEFF 		bl	enable_motor_mode
  87:User/Hardware/arm.c ****     enable_motor_mode(CAN_HANDLE_2, MOTOR_DAMIAO_5_ID, POS_MODE);
 298              		.loc 1 87 5
 299 01ae 4FF48072 		mov	r2, #256
 300 01b2 0521     		movs	r1, #5
 301 01b4 1A48     		ldr	r0, .L2+8
ARM GAS  C:\Users\Godwin\AppData\Local\Temp\ccZx2d9m.s 			page 8


 302 01b6 FFF7FEFF 		bl	enable_motor_mode
  88:User/Hardware/arm.c ****     enable_motor_mode(CAN_HANDLE_2, MOTOR_DAMIAO_6_ID, POS_MODE);
 303              		.loc 1 88 5
 304 01ba 4FF48072 		mov	r2, #256
 305 01be 0621     		movs	r1, #6
 306 01c0 1748     		ldr	r0, .L2+8
 307 01c2 FFF7FEFF 		bl	enable_motor_mode
  89:User/Hardware/arm.c ****     // Áé×ăĽçµç»úĘýľÝ
  90:User/Hardware/arm.c ****     Linzu_motor_data[0].target_angle = 10.0f;
 308              		.loc 1 90 38
 309 01c6 1C4B     		ldr	r3, .L2+32
 310 01c8 1C4A     		ldr	r2, .L2+36
 311 01ca 9A60     		str	r2, [r3, #8]	@ float
  91:User/Hardware/arm.c ****     Linzu_motor_data[1].target_angle = 10.0f;
 312              		.loc 1 91 38
 313 01cc 1A4B     		ldr	r3, .L2+32
 314 01ce 1B4A     		ldr	r2, .L2+36
 315 01d0 9A61     		str	r2, [r3, #24]	@ float
  92:User/Hardware/arm.c ****     Linzu_motor_data[2].target_angle = 10.0f;
 316              		.loc 1 92 38
 317 01d2 194B     		ldr	r3, .L2+32
 318 01d4 194A     		ldr	r2, .L2+36
 319 01d6 9A62     		str	r2, [r3, #40]	@ float
  93:User/Hardware/arm.c ****     Linzu_motor_data[0].target_velocity = 1.0f;
 320              		.loc 1 93 41
 321 01d8 174B     		ldr	r3, .L2+32
 322 01da 4FF07E52 		mov	r2, #1065353216
 323 01de DA60     		str	r2, [r3, #12]	@ float
  94:User/Hardware/arm.c ****     Linzu_motor_data[1].target_velocity = 1.0f;
 324              		.loc 1 94 41
 325 01e0 154B     		ldr	r3, .L2+32
 326 01e2 4FF07E52 		mov	r2, #1065353216
 327 01e6 DA61     		str	r2, [r3, #28]	@ float
  95:User/Hardware/arm.c ****     Linzu_motor_data[2].target_velocity = 1.0f;
 328              		.loc 1 95 41
 329 01e8 134B     		ldr	r3, .L2+32
 330 01ea 4FF07E52 		mov	r2, #1065353216
 331 01ee DA62     		str	r2, [r3, #44]	@ float
  96:User/Hardware/arm.c ****     // ´óČ»Ľçµç»úĘýľÝ
  97:User/Hardware/arm.c ****     Daran_motor_data[0].target_angle = 10.0f;
 332              		.loc 1 97 38
 333 01f0 134B     		ldr	r3, .L2+40
 334 01f2 124A     		ldr	r2, .L2+36
 335 01f4 9A60     		str	r2, [r3, #8]	@ float
  98:User/Hardware/arm.c ****     Daran_motor_data[1].target_angle = 10.0f;
 336              		.loc 1 98 38
 337 01f6 124B     		ldr	r3, .L2+40
 338 01f8 104A     		ldr	r2, .L2+36
 339 01fa 9A61     		str	r2, [r3, #24]	@ float
  99:User/Hardware/arm.c ****     Daran_motor_data[2].target_angle = 10.0f;
 340              		.loc 1 99 38
 341 01fc 104B     		ldr	r3, .L2+40
 342 01fe 0F4A     		ldr	r2, .L2+36
 343 0200 9A62     		str	r2, [r3, #40]	@ float
 100:User/Hardware/arm.c **** 
 101:User/Hardware/arm.c ****     Daran_motor_data[0].target_velocity = 90.0f;
 344              		.loc 1 101 41
ARM GAS  C:\Users\Godwin\AppData\Local\Temp\ccZx2d9m.s 			page 9


 345 0202 0F4B     		ldr	r3, .L2+40
 346 0204 0F4A     		ldr	r2, .L2+44
 347 0206 DA60     		str	r2, [r3, #12]	@ float
 102:User/Hardware/arm.c ****     Daran_motor_data[1].target_velocity = 20.0f;
 348              		.loc 1 102 41
 349 0208 0D4B     		ldr	r3, .L2+40
 350 020a 0F4A     		ldr	r2, .L2+48
 351 020c DA61     		str	r2, [r3, #28]	@ float
 103:User/Hardware/arm.c ****     Daran_motor_data[2].target_velocity = 20.0f;
 352              		.loc 1 103 41
 353 020e 0C4B     		ldr	r3, .L2+40
 354 0210 0D4A     		ldr	r2, .L2+48
 355 0212 DA62     		str	r2, [r3, #44]	@ float
 104:User/Hardware/arm.c **** }
 356              		.loc 1 104 1
 357 0214 00BF     		nop
 358 0216 80BD     		pop	{r7, pc}
 359              	.L3:
 360              		.align	2
 361              	.L2:
 362 0218 00000000 		.word	g_ShoulderType
 363 021c 00000000 		.word	motor1
 364 0220 00000000 		.word	hfdcan2
 365 0224 00000000 		.word	motor2
 366 0228 00000000 		.word	motor3
 367 022c 30030000 		.word	arm_motor+816
 368 0230 40040000 		.word	arm_motor+1088
 369 0234 50050000 		.word	arm_motor+1360
 370 0238 00000000 		.word	Linzu_motor_data
 371 023c 00002041 		.word	1092616192
 372 0240 00000000 		.word	Daran_motor_data
 373 0244 0000B442 		.word	1119092736
 374 0248 0000A041 		.word	1101004800
 375              		.cfi_endproc
 376              	.LFE151:
 378              		.section	.text.Arm_Linzu_motor1,"ax",%progbits
 379              		.align	1
 380              		.global	Arm_Linzu_motor1
 381              		.syntax unified
 382              		.thumb
 383              		.thumb_func
 385              	Arm_Linzu_motor1:
 386              	.LFB152:
 105:User/Hardware/arm.c **** 
 106:User/Hardware/arm.c **** void Arm_Linzu_motor1()
 107:User/Hardware/arm.c **** {
 387              		.loc 1 107 1
 388              		.cfi_startproc
 389              		@ args = 0, pretend = 0, frame = 0
 390              		@ frame_needed = 1, uses_anonymous_args = 0
 391 0000 80B5     		push	{r7, lr}
 392              	.LCFI2:
 393              		.cfi_def_cfa_offset 8
 394              		.cfi_offset 7, -8
 395              		.cfi_offset 14, -4
 396 0002 00AF     		add	r7, sp, #0
 397              	.LCFI3:
ARM GAS  C:\Users\Godwin\AppData\Local\Temp\ccZx2d9m.s 			page 10


 398              		.cfi_def_cfa_register 7
 108:User/Hardware/arm.c ****     RobStride_Motor_CSP_control(&motor1, CAN_HANDLE_2, Linzu_motor_data[0].target_angle, Linzu_moto
 399              		.loc 1 108 5
 400 0004 074B     		ldr	r3, .L5
 401 0006 D3ED027A 		vldr.32	s15, [r3, #8]
 402 000a 064B     		ldr	r3, .L5
 403 000c 93ED037A 		vldr.32	s14, [r3, #12]
 404 0010 F0EE470A 		vmov.f32	s1, s14
 405 0014 B0EE670A 		vmov.f32	s0, s15
 406 0018 0349     		ldr	r1, .L5+4
 407 001a 0448     		ldr	r0, .L5+8
 408 001c FFF7FEFF 		bl	RobStride_Motor_CSP_control
 109:User/Hardware/arm.c **** }
 409              		.loc 1 109 1
 410 0020 00BF     		nop
 411 0022 80BD     		pop	{r7, pc}
 412              	.L6:
 413              		.align	2
 414              	.L5:
 415 0024 00000000 		.word	Linzu_motor_data
 416 0028 00000000 		.word	hfdcan2
 417 002c 00000000 		.word	motor1
 418              		.cfi_endproc
 419              	.LFE152:
 421              		.section	.text.Arm_Linzu_motor2,"ax",%progbits
 422              		.align	1
 423              		.global	Arm_Linzu_motor2
 424              		.syntax unified
 425              		.thumb
 426              		.thumb_func
 428              	Arm_Linzu_motor2:
 429              	.LFB153:
 110:User/Hardware/arm.c **** 
 111:User/Hardware/arm.c **** void Arm_Linzu_motor2()
 112:User/Hardware/arm.c **** {
 430              		.loc 1 112 1
 431              		.cfi_startproc
 432              		@ args = 0, pretend = 0, frame = 0
 433              		@ frame_needed = 1, uses_anonymous_args = 0
 434 0000 80B5     		push	{r7, lr}
 435              	.LCFI4:
 436              		.cfi_def_cfa_offset 8
 437              		.cfi_offset 7, -8
 438              		.cfi_offset 14, -4
 439 0002 00AF     		add	r7, sp, #0
 440              	.LCFI5:
 441              		.cfi_def_cfa_register 7
 113:User/Hardware/arm.c ****     RobStride_Motor_CSP_control(&motor2, CAN_HANDLE_2, Linzu_motor_data[1].target_angle, Linzu_moto
 442              		.loc 1 113 5
 443 0004 074B     		ldr	r3, .L8
 444 0006 D3ED067A 		vldr.32	s15, [r3, #24]
 445 000a 064B     		ldr	r3, .L8
 446 000c 93ED077A 		vldr.32	s14, [r3, #28]
 447 0010 F0EE470A 		vmov.f32	s1, s14
 448 0014 B0EE670A 		vmov.f32	s0, s15
 449 0018 0349     		ldr	r1, .L8+4
 450 001a 0448     		ldr	r0, .L8+8
ARM GAS  C:\Users\Godwin\AppData\Local\Temp\ccZx2d9m.s 			page 11


 451 001c FFF7FEFF 		bl	RobStride_Motor_CSP_control
 114:User/Hardware/arm.c **** }
 452              		.loc 1 114 1
 453 0020 00BF     		nop
 454 0022 80BD     		pop	{r7, pc}
 455              	.L9:
 456              		.align	2
 457              	.L8:
 458 0024 00000000 		.word	Linzu_motor_data
 459 0028 00000000 		.word	hfdcan2
 460 002c 00000000 		.word	motor2
 461              		.cfi_endproc
 462              	.LFE153:
 464              		.section	.text.Arm_Linzu_motor3,"ax",%progbits
 465              		.align	1
 466              		.global	Arm_Linzu_motor3
 467              		.syntax unified
 468              		.thumb
 469              		.thumb_func
 471              	Arm_Linzu_motor3:
 472              	.LFB154:
 115:User/Hardware/arm.c **** 
 116:User/Hardware/arm.c **** void Arm_Linzu_motor3()
 117:User/Hardware/arm.c **** {
 473              		.loc 1 117 1
 474              		.cfi_startproc
 475              		@ args = 0, pretend = 0, frame = 0
 476              		@ frame_needed = 1, uses_anonymous_args = 0
 477 0000 80B5     		push	{r7, lr}
 478              	.LCFI6:
 479              		.cfi_def_cfa_offset 8
 480              		.cfi_offset 7, -8
 481              		.cfi_offset 14, -4
 482 0002 00AF     		add	r7, sp, #0
 483              	.LCFI7:
 484              		.cfi_def_cfa_register 7
 118:User/Hardware/arm.c **** 
 119:User/Hardware/arm.c ****     RobStride_Motor_CSP_control(&motor3, CAN_HANDLE_2, Linzu_motor_data[2].target_angle, Linzu_moto
 485              		.loc 1 119 5
 486 0004 074B     		ldr	r3, .L11
 487 0006 D3ED0A7A 		vldr.32	s15, [r3, #40]
 488 000a 064B     		ldr	r3, .L11
 489 000c 93ED0B7A 		vldr.32	s14, [r3, #44]
 490 0010 F0EE470A 		vmov.f32	s1, s14
 491 0014 B0EE670A 		vmov.f32	s0, s15
 492 0018 0349     		ldr	r1, .L11+4
 493 001a 0448     		ldr	r0, .L11+8
 494 001c FFF7FEFF 		bl	RobStride_Motor_CSP_control
 120:User/Hardware/arm.c **** }
 495              		.loc 1 120 1
 496 0020 00BF     		nop
 497 0022 80BD     		pop	{r7, pc}
 498              	.L12:
 499              		.align	2
 500              	.L11:
 501 0024 00000000 		.word	Linzu_motor_data
 502 0028 00000000 		.word	hfdcan2
ARM GAS  C:\Users\Godwin\AppData\Local\Temp\ccZx2d9m.s 			page 12


 503 002c 00000000 		.word	motor3
 504              		.cfi_endproc
 505              	.LFE154:
 507              		.section	.text.Arm_Daran_motor1,"ax",%progbits
 508              		.align	1
 509              		.global	Arm_Daran_motor1
 510              		.syntax unified
 511              		.thumb
 512              		.thumb_func
 514              	Arm_Daran_motor1:
 515              	.LFB155:
 121:User/Hardware/arm.c **** 
 122:User/Hardware/arm.c **** void Arm_Daran_motor1()
 123:User/Hardware/arm.c **** {
 516              		.loc 1 123 1
 517              		.cfi_startproc
 518              		@ args = 0, pretend = 0, frame = 0
 519              		@ frame_needed = 1, uses_anonymous_args = 0
 520 0000 80B5     		push	{r7, lr}
 521              	.LCFI8:
 522              		.cfi_def_cfa_offset 8
 523              		.cfi_offset 7, -8
 524              		.cfi_offset 14, -4
 525 0002 00AF     		add	r7, sp, #0
 526              	.LCFI9:
 527              		.cfi_def_cfa_register 7
 124:User/Hardware/arm.c ****     HAL_Delay(1);
 528              		.loc 1 124 5
 529 0004 0120     		movs	r0, #1
 530 0006 FFF7FEFF 		bl	HAL_Delay
 125:User/Hardware/arm.c ****     set_angle(CAN_HANDLE_2, MOTOR_DARAN_1_ID, Daran_motor_data[0].target_angle, Daran_motor_data[0]
 531              		.loc 1 125 5
 532 000a 094B     		ldr	r3, .L14
 533 000c D3ED027A 		vldr.32	s15, [r3, #8]
 534 0010 074B     		ldr	r3, .L14
 535 0012 93ED037A 		vldr.32	s14, [r3, #12]
 536 0016 0122     		movs	r2, #1
 537 0018 B2EE041A 		vmov.f32	s2, #1.0e+1
 538 001c F0EE470A 		vmov.f32	s1, s14
 539 0020 B0EE670A 		vmov.f32	s0, s15
 540 0024 0B21     		movs	r1, #11
 541 0026 0348     		ldr	r0, .L14+4
 542 0028 FFF7FEFF 		bl	set_angle
 126:User/Hardware/arm.c **** }
 543              		.loc 1 126 1
 544 002c 00BF     		nop
 545 002e 80BD     		pop	{r7, pc}
 546              	.L15:
 547              		.align	2
 548              	.L14:
 549 0030 00000000 		.word	Daran_motor_data
 550 0034 00000000 		.word	hfdcan2
 551              		.cfi_endproc
 552              	.LFE155:
 554              		.section	.text.Arm_Daran_motor2,"ax",%progbits
 555              		.align	1
 556              		.global	Arm_Daran_motor2
ARM GAS  C:\Users\Godwin\AppData\Local\Temp\ccZx2d9m.s 			page 13


 557              		.syntax unified
 558              		.thumb
 559              		.thumb_func
 561              	Arm_Daran_motor2:
 562              	.LFB156:
 127:User/Hardware/arm.c **** void Arm_Daran_motor2()
 128:User/Hardware/arm.c **** {
 563              		.loc 1 128 1
 564              		.cfi_startproc
 565              		@ args = 0, pretend = 0, frame = 0
 566              		@ frame_needed = 1, uses_anonymous_args = 0
 567 0000 80B5     		push	{r7, lr}
 568              	.LCFI10:
 569              		.cfi_def_cfa_offset 8
 570              		.cfi_offset 7, -8
 571              		.cfi_offset 14, -4
 572 0002 00AF     		add	r7, sp, #0
 573              	.LCFI11:
 574              		.cfi_def_cfa_register 7
 129:User/Hardware/arm.c ****     HAL_Delay(1);
 575              		.loc 1 129 5
 576 0004 0120     		movs	r0, #1
 577 0006 FFF7FEFF 		bl	HAL_Delay
 130:User/Hardware/arm.c ****     set_angle(CAN_HANDLE_2, MOTOR_DARAN_2_ID, Daran_motor_data[1].target_angle, Daran_motor_data[1]
 578              		.loc 1 130 5
 579 000a 094B     		ldr	r3, .L17
 580 000c D3ED067A 		vldr.32	s15, [r3, #24]
 581 0010 074B     		ldr	r3, .L17
 582 0012 93ED077A 		vldr.32	s14, [r3, #28]
 583 0016 0122     		movs	r2, #1
 584 0018 B2EE041A 		vmov.f32	s2, #1.0e+1
 585 001c F0EE470A 		vmov.f32	s1, s14
 586 0020 B0EE670A 		vmov.f32	s0, s15
 587 0024 0C21     		movs	r1, #12
 588 0026 0348     		ldr	r0, .L17+4
 589 0028 FFF7FEFF 		bl	set_angle
 131:User/Hardware/arm.c **** }
 590              		.loc 1 131 1
 591 002c 00BF     		nop
 592 002e 80BD     		pop	{r7, pc}
 593              	.L18:
 594              		.align	2
 595              	.L17:
 596 0030 00000000 		.word	Daran_motor_data
 597 0034 00000000 		.word	hfdcan2
 598              		.cfi_endproc
 599              	.LFE156:
 601              		.section	.text.Arm_Daran_motor3,"ax",%progbits
 602              		.align	1
 603              		.global	Arm_Daran_motor3
 604              		.syntax unified
 605              		.thumb
 606              		.thumb_func
 608              	Arm_Daran_motor3:
 609              	.LFB157:
 132:User/Hardware/arm.c **** 
 133:User/Hardware/arm.c **** void Arm_Daran_motor3()
ARM GAS  C:\Users\Godwin\AppData\Local\Temp\ccZx2d9m.s 			page 14


 134:User/Hardware/arm.c **** {
 610              		.loc 1 134 1
 611              		.cfi_startproc
 612              		@ args = 0, pretend = 0, frame = 0
 613              		@ frame_needed = 1, uses_anonymous_args = 0
 614 0000 80B5     		push	{r7, lr}
 615              	.LCFI12:
 616              		.cfi_def_cfa_offset 8
 617              		.cfi_offset 7, -8
 618              		.cfi_offset 14, -4
 619 0002 00AF     		add	r7, sp, #0
 620              	.LCFI13:
 621              		.cfi_def_cfa_register 7
 135:User/Hardware/arm.c ****     HAL_Delay(1);
 622              		.loc 1 135 5
 623 0004 0120     		movs	r0, #1
 624 0006 FFF7FEFF 		bl	HAL_Delay
 136:User/Hardware/arm.c ****     set_angle(CAN_HANDLE_2, MOTOR_DARAN_3_ID, Daran_motor_data[2].target_angle, Daran_motor_data[2]
 625              		.loc 1 136 5
 626 000a 094B     		ldr	r3, .L20
 627 000c D3ED0A7A 		vldr.32	s15, [r3, #40]
 628 0010 074B     		ldr	r3, .L20
 629 0012 93ED0B7A 		vldr.32	s14, [r3, #44]
 630 0016 0122     		movs	r2, #1
 631 0018 B2EE041A 		vmov.f32	s2, #1.0e+1
 632 001c F0EE470A 		vmov.f32	s1, s14
 633 0020 B0EE670A 		vmov.f32	s0, s15
 634 0024 0D21     		movs	r1, #13
 635 0026 0348     		ldr	r0, .L20+4
 636 0028 FFF7FEFF 		bl	set_angle
 137:User/Hardware/arm.c **** }
 637              		.loc 1 137 1
 638 002c 00BF     		nop
 639 002e 80BD     		pop	{r7, pc}
 640              	.L21:
 641              		.align	2
 642              	.L20:
 643 0030 00000000 		.word	Daran_motor_data
 644 0034 00000000 		.word	hfdcan2
 645              		.cfi_endproc
 646              	.LFE157:
 648              		.section	.text.Arm_Damiao_motor4,"ax",%progbits
 649              		.align	1
 650              		.global	Arm_Damiao_motor4
 651              		.syntax unified
 652              		.thumb
 653              		.thumb_func
 655              	Arm_Damiao_motor4:
 656              	.LFB158:
 138:User/Hardware/arm.c **** 
 139:User/Hardware/arm.c **** void Arm_Damiao_motor4()
 140:User/Hardware/arm.c **** {
 657              		.loc 1 140 1
 658              		.cfi_startproc
 659              		@ args = 0, pretend = 0, frame = 0
 660              		@ frame_needed = 1, uses_anonymous_args = 0
 661 0000 80B5     		push	{r7, lr}
ARM GAS  C:\Users\Godwin\AppData\Local\Temp\ccZx2d9m.s 			page 15


 662              	.LCFI14:
 663              		.cfi_def_cfa_offset 8
 664              		.cfi_offset 7, -8
 665              		.cfi_offset 14, -4
 666 0002 00AF     		add	r7, sp, #0
 667              	.LCFI15:
 668              		.cfi_def_cfa_register 7
 141:User/Hardware/arm.c ****     set_DM_mode(Motor4, POS_MODE);
 669              		.loc 1 141 5
 670 0004 4FF48071 		mov	r1, #256
 671 0008 0320     		movs	r0, #3
 672 000a FFF7FEFF 		bl	set_DM_mode
 142:User/Hardware/arm.c ****     set_DM_pos_vel(pos_motor.MT04, vel_motor.MT04, Motor4);
 673              		.loc 1 142 5
 674 000e 0D4B     		ldr	r3, .L23
 675 0010 D3ED007A 		vldr.32	s15, [r3]
 676 0014 0C4B     		ldr	r3, .L23+4
 677 0016 93ED007A 		vldr.32	s14, [r3]
 678 001a 0320     		movs	r0, #3
 679 001c F0EE470A 		vmov.f32	s1, s14
 680 0020 B0EE670A 		vmov.f32	s0, s15
 681 0024 FFF7FEFF 		bl	set_DM_pos_vel
 143:User/Hardware/arm.c ****     pos_speed_ctrl(CAN_HANDLE_2, MOTOR_DAMIAO_4_ID, 5, 10);
 682              		.loc 1 143 5
 683 0028 F2EE040A 		vmov.f32	s1, #1.0e+1
 684 002c B1EE040A 		vmov.f32	s0, #5.0e+0
 685 0030 0421     		movs	r1, #4
 686 0032 0648     		ldr	r0, .L23+8
 687 0034 FFF7FEFF 		bl	pos_speed_ctrl
 144:User/Hardware/arm.c ****     pos_motor.MT04 = 20;
 688              		.loc 1 144 20
 689 0038 024B     		ldr	r3, .L23
 690 003a 054A     		ldr	r2, .L23+12
 691 003c 1A60     		str	r2, [r3]	@ float
 145:User/Hardware/arm.c **** }
 692              		.loc 1 145 1
 693 003e 00BF     		nop
 694 0040 80BD     		pop	{r7, pc}
 695              	.L24:
 696 0042 00BF     		.align	2
 697              	.L23:
 698 0044 00000000 		.word	pos_motor
 699 0048 00000000 		.word	vel_motor
 700 004c 00000000 		.word	hfdcan2
 701 0050 0000A041 		.word	1101004800
 702              		.cfi_endproc
 703              	.LFE158:
 705              		.section	.text.Arm_Damiao_motor5,"ax",%progbits
 706              		.align	1
 707              		.global	Arm_Damiao_motor5
 708              		.syntax unified
 709              		.thumb
 710              		.thumb_func
 712              	Arm_Damiao_motor5:
 713              	.LFB159:
 146:User/Hardware/arm.c **** 
 147:User/Hardware/arm.c **** void Arm_Damiao_motor5()
ARM GAS  C:\Users\Godwin\AppData\Local\Temp\ccZx2d9m.s 			page 16


 148:User/Hardware/arm.c **** {
 714              		.loc 1 148 1
 715              		.cfi_startproc
 716              		@ args = 0, pretend = 0, frame = 0
 717              		@ frame_needed = 1, uses_anonymous_args = 0
 718 0000 80B5     		push	{r7, lr}
 719              	.LCFI16:
 720              		.cfi_def_cfa_offset 8
 721              		.cfi_offset 7, -8
 722              		.cfi_offset 14, -4
 723 0002 00AF     		add	r7, sp, #0
 724              	.LCFI17:
 725              		.cfi_def_cfa_register 7
 149:User/Hardware/arm.c ****     set_DM_mode(Motor5, POS_MODE);
 726              		.loc 1 149 5
 727 0004 4FF48071 		mov	r1, #256
 728 0008 0420     		movs	r0, #4
 729 000a FFF7FEFF 		bl	set_DM_mode
 150:User/Hardware/arm.c ****     set_DM_pos_vel(pos_motor.MT05, vel_motor.MT05, Motor5);
 730              		.loc 1 150 5
 731 000e 0B4B     		ldr	r3, .L26
 732 0010 D3ED017A 		vldr.32	s15, [r3, #4]
 733 0014 0A4B     		ldr	r3, .L26+4
 734 0016 93ED017A 		vldr.32	s14, [r3, #4]
 735 001a 0420     		movs	r0, #4
 736 001c F0EE470A 		vmov.f32	s1, s14
 737 0020 B0EE670A 		vmov.f32	s0, s15
 738 0024 FFF7FEFF 		bl	set_DM_pos_vel
 151:User/Hardware/arm.c ****     pos_speed_ctrl(CAN_HANDLE_2, MOTOR_DAMIAO_5_ID, 10, 1);
 739              		.loc 1 151 5
 740 0028 F7EE000A 		vmov.f32	s1, #1.0e+0
 741 002c B2EE040A 		vmov.f32	s0, #1.0e+1
 742 0030 0521     		movs	r1, #5
 743 0032 0448     		ldr	r0, .L26+8
 744 0034 FFF7FEFF 		bl	pos_speed_ctrl
 152:User/Hardware/arm.c **** }
 745              		.loc 1 152 1
 746 0038 00BF     		nop
 747 003a 80BD     		pop	{r7, pc}
 748              	.L27:
 749              		.align	2
 750              	.L26:
 751 003c 00000000 		.word	pos_motor
 752 0040 00000000 		.word	vel_motor
 753 0044 00000000 		.word	hfdcan2
 754              		.cfi_endproc
 755              	.LFE159:
 757              		.section	.text.Arm_Damiao_motor6,"ax",%progbits
 758              		.align	1
 759              		.global	Arm_Damiao_motor6
 760              		.syntax unified
 761              		.thumb
 762              		.thumb_func
 764              	Arm_Damiao_motor6:
 765              	.LFB160:
 153:User/Hardware/arm.c **** 
 154:User/Hardware/arm.c **** void Arm_Damiao_motor6()
ARM GAS  C:\Users\Godwin\AppData\Local\Temp\ccZx2d9m.s 			page 17


 155:User/Hardware/arm.c **** {
 766              		.loc 1 155 1
 767              		.cfi_startproc
 768              		@ args = 0, pretend = 0, frame = 0
 769              		@ frame_needed = 1, uses_anonymous_args = 0
 770 0000 80B5     		push	{r7, lr}
 771              	.LCFI18:
 772              		.cfi_def_cfa_offset 8
 773              		.cfi_offset 7, -8
 774              		.cfi_offset 14, -4
 775 0002 00AF     		add	r7, sp, #0
 776              	.LCFI19:
 777              		.cfi_def_cfa_register 7
 156:User/Hardware/arm.c ****     set_DM_mode(Motor6, POS_MODE);
 778              		.loc 1 156 5
 779 0004 4FF48071 		mov	r1, #256
 780 0008 0520     		movs	r0, #5
 781 000a FFF7FEFF 		bl	set_DM_mode
 157:User/Hardware/arm.c ****     set_DM_pos_vel(pos_motor.MT06, vel_motor.MT06, Motor6);
 782              		.loc 1 157 5
 783 000e 0F4B     		ldr	r3, .L29
 784 0010 D3ED027A 		vldr.32	s15, [r3, #8]
 785 0014 0E4B     		ldr	r3, .L29+4
 786 0016 93ED027A 		vldr.32	s14, [r3, #8]
 787 001a 0520     		movs	r0, #5
 788 001c F0EE470A 		vmov.f32	s1, s14
 789 0020 B0EE670A 		vmov.f32	s0, s15
 790 0024 FFF7FEFF 		bl	set_DM_pos_vel
 158:User/Hardware/arm.c ****     pos_motor.MT06 = 10;
 791              		.loc 1 158 20
 792 0028 084B     		ldr	r3, .L29
 793 002a 0A4A     		ldr	r2, .L29+8
 794 002c 9A60     		str	r2, [r3, #8]	@ float
 159:User/Hardware/arm.c ****     pos_speed_ctrl(CAN_HANDLE_2, MOTOR_DAMIAO_6_ID, arm_motor[Motor6].ctrl.pos_set, 1);
 795              		.loc 1 159 5
 796 002e 0A4B     		ldr	r3, .L29+12
 797 0030 03F28C53 		addw	r3, r3, #1420
 798 0034 D3ED007A 		vldr.32	s15, [r3]
 799 0038 F7EE000A 		vmov.f32	s1, #1.0e+0
 800 003c B0EE670A 		vmov.f32	s0, s15
 801 0040 0621     		movs	r1, #6
 802 0042 0648     		ldr	r0, .L29+16
 803 0044 FFF7FEFF 		bl	pos_speed_ctrl
 160:User/Hardware/arm.c **** }
 804              		.loc 1 160 1
 805 0048 00BF     		nop
 806 004a 80BD     		pop	{r7, pc}
 807              	.L30:
 808              		.align	2
 809              	.L29:
 810 004c 00000000 		.word	pos_motor
 811 0050 00000000 		.word	vel_motor
 812 0054 00002041 		.word	1092616192
 813 0058 00000000 		.word	arm_motor
 814 005c 00000000 		.word	hfdcan2
 815              		.cfi_endproc
 816              	.LFE160:
ARM GAS  C:\Users\Godwin\AppData\Local\Temp\ccZx2d9m.s 			page 18


 818              		.section	.text.Arm_Linzu_Data_update,"ax",%progbits
 819              		.align	1
 820              		.global	Arm_Linzu_Data_update
 821              		.syntax unified
 822              		.thumb
 823              		.thumb_func
 825              	Arm_Linzu_Data_update:
 826              	.LFB161:
 161:User/Hardware/arm.c **** 
 162:User/Hardware/arm.c **** void Arm_Linzu_Data_update()
 163:User/Hardware/arm.c **** {
 827              		.loc 1 163 1
 828              		.cfi_startproc
 829              		@ args = 0, pretend = 0, frame = 0
 830              		@ frame_needed = 1, uses_anonymous_args = 0
 831              		@ link register save eliminated.
 832 0000 80B4     		push	{r7}
 833              	.LCFI20:
 834              		.cfi_def_cfa_offset 4
 835              		.cfi_offset 7, -4
 836 0002 00AF     		add	r7, sp, #0
 837              	.LCFI21:
 838              		.cfi_def_cfa_register 7
 164:User/Hardware/arm.c ****     Linzu_motor_data[0].current_angle = motor1.Pos_Info.Angle;
 839              		.loc 1 164 56
 840 0004 0E4B     		ldr	r3, .L32
 841 0006 DB6C     		ldr	r3, [r3, #76]	@ float
 842              		.loc 1 164 39
 843 0008 0E4A     		ldr	r2, .L32+4
 844 000a 1360     		str	r3, [r2]	@ float
 165:User/Hardware/arm.c ****     Linzu_motor_data[1].current_angle = motor2.Pos_Info.Angle;
 845              		.loc 1 165 56
 846 000c 0E4B     		ldr	r3, .L32+8
 847 000e DB6C     		ldr	r3, [r3, #76]	@ float
 848              		.loc 1 165 39
 849 0010 0C4A     		ldr	r2, .L32+4
 850 0012 1361     		str	r3, [r2, #16]	@ float
 166:User/Hardware/arm.c ****     Linzu_motor_data[2].current_angle = motor3.Pos_Info.Angle;
 851              		.loc 1 166 56
 852 0014 0D4B     		ldr	r3, .L32+12
 853 0016 DB6C     		ldr	r3, [r3, #76]	@ float
 854              		.loc 1 166 39
 855 0018 0A4A     		ldr	r2, .L32+4
 856 001a 1362     		str	r3, [r2, #32]	@ float
 167:User/Hardware/arm.c ****     Linzu_motor_data[0].current_velocity = motor1.Pos_Info.Speed;
 857              		.loc 1 167 59
 858 001c 084B     		ldr	r3, .L32
 859 001e 1B6D     		ldr	r3, [r3, #80]	@ float
 860              		.loc 1 167 42
 861 0020 084A     		ldr	r2, .L32+4
 862 0022 5360     		str	r3, [r2, #4]	@ float
 168:User/Hardware/arm.c ****     Linzu_motor_data[1].current_velocity = motor2.Pos_Info.Speed;
 863              		.loc 1 168 59
 864 0024 084B     		ldr	r3, .L32+8
 865 0026 1B6D     		ldr	r3, [r3, #80]	@ float
 866              		.loc 1 168 42
 867 0028 064A     		ldr	r2, .L32+4
ARM GAS  C:\Users\Godwin\AppData\Local\Temp\ccZx2d9m.s 			page 19


 868 002a 5361     		str	r3, [r2, #20]	@ float
 169:User/Hardware/arm.c ****     Linzu_motor_data[2].current_velocity = motor3.Pos_Info.Speed;
 869              		.loc 1 169 59
 870 002c 074B     		ldr	r3, .L32+12
 871 002e 1B6D     		ldr	r3, [r3, #80]	@ float
 872              		.loc 1 169 42
 873 0030 044A     		ldr	r2, .L32+4
 874 0032 5362     		str	r3, [r2, #36]	@ float
 170:User/Hardware/arm.c **** }
 875              		.loc 1 170 1
 876 0034 00BF     		nop
 877 0036 BD46     		mov	sp, r7
 878              	.LCFI22:
 879              		.cfi_def_cfa_register 13
 880              		@ sp needed
 881 0038 5DF8047B 		ldr	r7, [sp], #4
 882              	.LCFI23:
 883              		.cfi_restore 7
 884              		.cfi_def_cfa_offset 0
 885 003c 7047     		bx	lr
 886              	.L33:
 887 003e 00BF     		.align	2
 888              	.L32:
 889 0040 00000000 		.word	motor1
 890 0044 00000000 		.word	Linzu_motor_data
 891 0048 00000000 		.word	motor2
 892 004c 00000000 		.word	motor3
 893              		.cfi_endproc
 894              	.LFE161:
 896              		.section	.text.Arm_Daran_Data_update,"ax",%progbits
 897              		.align	1
 898              		.global	Arm_Daran_Data_update
 899              		.syntax unified
 900              		.thumb
 901              		.thumb_func
 903              	Arm_Daran_Data_update:
 904              	.LFB162:
 171:User/Hardware/arm.c **** void Arm_Daran_Data_update()
 172:User/Hardware/arm.c **** {
 905              		.loc 1 172 1
 906              		.cfi_startproc
 907              		@ args = 0, pretend = 0, frame = 0
 908              		@ frame_needed = 1, uses_anonymous_args = 0
 909              		@ link register save eliminated.
 910 0000 80B4     		push	{r7}
 911              	.LCFI24:
 912              		.cfi_def_cfa_offset 4
 913              		.cfi_offset 7, -4
 914 0002 00AF     		add	r7, sp, #0
 915              	.LCFI25:
 916              		.cfi_def_cfa_register 7
 173:User/Hardware/arm.c ****     // printf("Angle: %.2fˇă, Speed: %.2f r/min, Torque: %.2f Nm\r\n",
 174:User/Hardware/arm.c ****     //        daran_motor_state[0].angle, daran_motor_state[0].speed, daran_motor_state[0].torque);
 175:User/Hardware/arm.c **** 
 176:User/Hardware/arm.c ****     Daran_motor_data[0].current_angle = daran_motor_state[0].angle;
 917              		.loc 1 176 61
 918 0004 0E4B     		ldr	r3, .L35
ARM GAS  C:\Users\Godwin\AppData\Local\Temp\ccZx2d9m.s 			page 20


 919 0006 1B68     		ldr	r3, [r3]	@ float
 920              		.loc 1 176 39
 921 0008 0E4A     		ldr	r2, .L35+4
 922 000a 1360     		str	r3, [r2]	@ float
 177:User/Hardware/arm.c ****     Daran_motor_data[1].current_angle = daran_motor_state[1].angle;
 923              		.loc 1 177 61
 924 000c 0C4B     		ldr	r3, .L35
 925 000e 1B69     		ldr	r3, [r3, #16]	@ float
 926              		.loc 1 177 39
 927 0010 0C4A     		ldr	r2, .L35+4
 928 0012 1361     		str	r3, [r2, #16]	@ float
 178:User/Hardware/arm.c ****     Daran_motor_data[2].current_angle = daran_motor_state[2].angle;
 929              		.loc 1 178 61
 930 0014 0A4B     		ldr	r3, .L35
 931 0016 1B6A     		ldr	r3, [r3, #32]	@ float
 932              		.loc 1 178 39
 933 0018 0A4A     		ldr	r2, .L35+4
 934 001a 1362     		str	r3, [r2, #32]	@ float
 179:User/Hardware/arm.c ****     Daran_motor_data[0].current_velocity = daran_motor_state[0].speed;
 935              		.loc 1 179 64
 936 001c 084B     		ldr	r3, .L35
 937 001e 5B68     		ldr	r3, [r3, #4]	@ float
 938              		.loc 1 179 42
 939 0020 084A     		ldr	r2, .L35+4
 940 0022 5360     		str	r3, [r2, #4]	@ float
 180:User/Hardware/arm.c ****     Daran_motor_data[1].current_velocity = daran_motor_state[1].speed;
 941              		.loc 1 180 64
 942 0024 064B     		ldr	r3, .L35
 943 0026 5B69     		ldr	r3, [r3, #20]	@ float
 944              		.loc 1 180 42
 945 0028 064A     		ldr	r2, .L35+4
 946 002a 5361     		str	r3, [r2, #20]	@ float
 181:User/Hardware/arm.c ****     Daran_motor_data[2].current_velocity = daran_motor_state[2].speed;
 947              		.loc 1 181 64
 948 002c 044B     		ldr	r3, .L35
 949 002e 5B6A     		ldr	r3, [r3, #36]	@ float
 950              		.loc 1 181 42
 951 0030 044A     		ldr	r2, .L35+4
 952 0032 5362     		str	r3, [r2, #36]	@ float
 182:User/Hardware/arm.c **** }
 953              		.loc 1 182 1
 954 0034 00BF     		nop
 955 0036 BD46     		mov	sp, r7
 956              	.LCFI26:
 957              		.cfi_def_cfa_register 13
 958              		@ sp needed
 959 0038 5DF8047B 		ldr	r7, [sp], #4
 960              	.LCFI27:
 961              		.cfi_restore 7
 962              		.cfi_def_cfa_offset 0
 963 003c 7047     		bx	lr
 964              	.L36:
 965 003e 00BF     		.align	2
 966              	.L35:
 967 0040 00000000 		.word	daran_motor_state
 968 0044 00000000 		.word	Daran_motor_data
 969              		.cfi_endproc
ARM GAS  C:\Users\Godwin\AppData\Local\Temp\ccZx2d9m.s 			page 21


 970              	.LFE162:
 972              		.section	.text.Arm_All_Data_update,"ax",%progbits
 973              		.align	1
 974              		.global	Arm_All_Data_update
 975              		.syntax unified
 976              		.thumb
 977              		.thumb_func
 979              	Arm_All_Data_update:
 980              	.LFB163:
 183:User/Hardware/arm.c **** 
 184:User/Hardware/arm.c **** // ËůÓĐµç»úĘýľÝ¸üĐÂ
 185:User/Hardware/arm.c **** void Arm_All_Data_update()
 186:User/Hardware/arm.c **** {
 981              		.loc 1 186 1
 982              		.cfi_startproc
 983              		@ args = 0, pretend = 0, frame = 0
 984              		@ frame_needed = 1, uses_anonymous_args = 0
 985 0000 80B5     		push	{r7, lr}
 986              	.LCFI28:
 987              		.cfi_def_cfa_offset 8
 988              		.cfi_offset 7, -8
 989              		.cfi_offset 14, -4
 990 0002 00AF     		add	r7, sp, #0
 991              	.LCFI29:
 992              		.cfi_def_cfa_register 7
 187:User/Hardware/arm.c ****     Arm_Linzu_Data_update();
 993              		.loc 1 187 5
 994 0004 FFF7FEFF 		bl	Arm_Linzu_Data_update
 188:User/Hardware/arm.c ****     HAL_Delay(1);
 995              		.loc 1 188 5
 996 0008 0120     		movs	r0, #1
 997 000a FFF7FEFF 		bl	HAL_Delay
 189:User/Hardware/arm.c ****     Arm_Daran_Data_update();
 998              		.loc 1 189 5
 999 000e FFF7FEFF 		bl	Arm_Daran_Data_update
 190:User/Hardware/arm.c **** }
 1000              		.loc 1 190 1
 1001 0012 00BF     		nop
 1002 0014 80BD     		pop	{r7, pc}
 1003              		.cfi_endproc
 1004              	.LFE163:
 1006              		.section	.text.Arm_all_tx,"ax",%progbits
 1007              		.align	1
 1008              		.global	Arm_all_tx
 1009              		.syntax unified
 1010              		.thumb
 1011              		.thumb_func
 1013              	Arm_all_tx:
 1014              	.LFB164:
 191:User/Hardware/arm.c **** 
 192:User/Hardware/arm.c **** void Arm_all_tx()
 193:User/Hardware/arm.c **** {
 1015              		.loc 1 193 1
 1016              		.cfi_startproc
 1017              		@ args = 0, pretend = 0, frame = 0
 1018              		@ frame_needed = 1, uses_anonymous_args = 0
 1019 0000 80B5     		push	{r7, lr}
ARM GAS  C:\Users\Godwin\AppData\Local\Temp\ccZx2d9m.s 			page 22


 1020              	.LCFI30:
 1021              		.cfi_def_cfa_offset 8
 1022              		.cfi_offset 7, -8
 1023              		.cfi_offset 14, -4
 1024 0002 00AF     		add	r7, sp, #0
 1025              	.LCFI31:
 1026              		.cfi_def_cfa_register 7
 194:User/Hardware/arm.c **** 
 195:User/Hardware/arm.c ****     if (g_ShoulderType == SHOULDER_TYPE_LINGZU)
 1027              		.loc 1 195 24
 1028 0004 144B     		ldr	r3, .L42
 1029 0006 1B78     		ldrb	r3, [r3]	@ zero_extendqisi2
 1030              		.loc 1 195 8
 1031 0008 002B     		cmp	r3, #0
 1032 000a 0FD1     		bne	.L39
 1033              	.LBB2:
 196:User/Hardware/arm.c ****     {
 197:User/Hardware/arm.c ****         Arm_Linzu_motor1();
 1034              		.loc 1 197 9
 1035 000c FFF7FEFF 		bl	Arm_Linzu_motor1
 198:User/Hardware/arm.c ****         osDelay(1);
 1036              		.loc 1 198 9
 1037 0010 0120     		movs	r0, #1
 1038 0012 FFF7FEFF 		bl	osDelay
 199:User/Hardware/arm.c ****         Arm_Linzu_motor2();
 1039              		.loc 1 199 9
 1040 0016 FFF7FEFF 		bl	Arm_Linzu_motor2
 200:User/Hardware/arm.c ****         osDelay(1);
 1041              		.loc 1 200 9
 1042 001a 0120     		movs	r0, #1
 1043 001c FFF7FEFF 		bl	osDelay
 201:User/Hardware/arm.c ****         Arm_Linzu_motor3();
 1044              		.loc 1 201 9
 1045 0020 FFF7FEFF 		bl	Arm_Linzu_motor3
 202:User/Hardware/arm.c ****         osDelay(1);
 1046              		.loc 1 202 9
 1047 0024 0120     		movs	r0, #1
 1048 0026 FFF7FEFF 		bl	osDelay
 1049              	.LBE2:
 203:User/Hardware/arm.c ****     }
 204:User/Hardware/arm.c ****     else if (g_ShoulderType == SHOULDER_TYPE_DARAN)
 205:User/Hardware/arm.c ****     {
 206:User/Hardware/arm.c ****       
 207:User/Hardware/arm.c ****         Arm_Daran_motor1();
 208:User/Hardware/arm.c ****         osDelay(1);
 209:User/Hardware/arm.c ****         Arm_Daran_motor2();
 210:User/Hardware/arm.c ****         osDelay(1);
 211:User/Hardware/arm.c ****         Arm_Daran_motor3();
 212:User/Hardware/arm.c ****         osDelay(1);
 213:User/Hardware/arm.c ****     }
 214:User/Hardware/arm.c **** 
 215:User/Hardware/arm.c ****     // Arm_Damiao_motor4();
 216:User/Hardware/arm.c ****     // osDelay(1);
 217:User/Hardware/arm.c ****     // Arm_Damiao_motor5();
 218:User/Hardware/arm.c ****     // osDelay(1);
 219:User/Hardware/arm.c ****     // Arm_Damiao_motor6();
 220:User/Hardware/arm.c ****     // osDelay(1);
ARM GAS  C:\Users\Godwin\AppData\Local\Temp\ccZx2d9m.s 			page 23


 221:User/Hardware/arm.c **** }...
 1050              		.loc 1 221 1
 1051 002a 12E0     		b	.L41
 1052              	.L39:
 204:User/Hardware/arm.c ****     else if (g_ShoulderType == SHOULDER_TYPE_DARAN)
 1053              		.loc 1 204 29
 1054 002c 0A4B     		ldr	r3, .L42
 1055 002e 1B78     		ldrb	r3, [r3]	@ zero_extendqisi2
 204:User/Hardware/arm.c ****     else if (g_ShoulderType == SHOULDER_TYPE_DARAN)
 1056              		.loc 1 204 13
 1057 0030 012B     		cmp	r3, #1
 1058 0032 0ED1     		bne	.L41
 1059              	.LBB3:
 207:User/Hardware/arm.c ****         Arm_Daran_motor1();
 1060              		.loc 1 207 9
 1061 0034 FFF7FEFF 		bl	Arm_Daran_motor1
 208:User/Hardware/arm.c ****         osDelay(1);
 1062              		.loc 1 208 9
 1063 0038 0120     		movs	r0, #1
 1064 003a FFF7FEFF 		bl	osDelay
 209:User/Hardware/arm.c ****         Arm_Daran_motor2();
 1065              		.loc 1 209 9
 1066 003e FFF7FEFF 		bl	Arm_Daran_motor2
 210:User/Hardware/arm.c ****         osDelay(1);
 1067              		.loc 1 210 9
 1068 0042 0120     		movs	r0, #1
 1069 0044 FFF7FEFF 		bl	osDelay
 211:User/Hardware/arm.c ****         Arm_Daran_motor3();
 1070              		.loc 1 211 9
 1071 0048 FFF7FEFF 		bl	Arm_Daran_motor3
 212:User/Hardware/arm.c ****         osDelay(1);
 1072              		.loc 1 212 9
 1073 004c 0120     		movs	r0, #1
 1074 004e FFF7FEFF 		bl	osDelay
 1075              	.L41:
 1076              	.LBE3:
 1077              		.loc 1 221 1
 1078 0052 00BF     		nop
 1079 0054 80BD     		pop	{r7, pc}
 1080              	.L43:
 1081 0056 00BF     		.align	2
 1082              	.L42:
 1083 0058 00000000 		.word	g_ShoulderType
 1084              		.cfi_endproc
 1085              	.LFE164:
 1087              		.text
 1088              	.Letext0:
 1089              		.file 2 "C:/Users/Godwin/13.2 Rel1/arm-none-eabi/include/machine/_default_types.h"
 1090              		.file 3 "C:/Users/Godwin/13.2 Rel1/arm-none-eabi/include/sys/_stdint.h"
 1091              		.file 4 "Drivers/CMSIS/Device/ST/STM32H7xx/Include/stm32h723xx.h"
 1092              		.file 5 "Drivers/CMSIS/Device/ST/STM32H7xx/Include/stm32h7xx.h"
 1093              		.file 6 "Drivers/STM32H7xx_HAL_Driver/Inc/stm32h7xx_hal_def.h"
 1094              		.file 7 "Drivers/STM32H7xx_HAL_Driver/Inc/stm32h7xx_hal_fdcan.h"
 1095              		.file 8 "User/BSP/can_receive_send.h"
 1096              		.file 9 "User/Drive/dm4310_drv.h"
 1097              		.file 10 "Core/Inc/fdcan.h"
 1098              		.file 11 "User/Drive/Robstride04.h"
ARM GAS  C:\Users\Godwin\AppData\Local\Temp\ccZx2d9m.s 			page 24


 1099              		.file 12 "User/Drive/DrEmpower_can.h"
 1100              		.file 13 "User/Hardware/arm.h"
 1101              		.file 14 "Drivers/STM32H7xx_HAL_Driver/Inc/stm32h7xx_hal.h"
ARM GAS  C:\Users\Godwin\AppData\Local\Temp\ccZx2d9m.s 			page 25


DEFINED SYMBOLS
                            *ABS*:00000000 arm.c
C:\Users\Godwin\AppData\Local\Temp\ccZx2d9m.s:23     .bss.g_ShoulderType:00000000 g_ShoulderType
C:\Users\Godwin\AppData\Local\Temp\ccZx2d9m.s:24     .bss.g_ShoulderType:00000000 $d
C:\Users\Godwin\AppData\Local\Temp\ccZx2d9m.s:30     .bss.servo_state_daran:00000000 servo_state_daran
C:\Users\Godwin\AppData\Local\Temp\ccZx2d9m.s:27     .bss.servo_state_daran:00000000 $d
C:\Users\Godwin\AppData\Local\Temp\ccZx2d9m.s:37     .bss.servo_volcur_daran:00000000 servo_volcur_daran
C:\Users\Godwin\AppData\Local\Temp\ccZx2d9m.s:34     .bss.servo_volcur_daran:00000000 $d
C:\Users\Godwin\AppData\Local\Temp\ccZx2d9m.s:44     .bss.motor1:00000000 motor1
C:\Users\Godwin\AppData\Local\Temp\ccZx2d9m.s:41     .bss.motor1:00000000 $d
C:\Users\Godwin\AppData\Local\Temp\ccZx2d9m.s:51     .bss.motor2:00000000 motor2
C:\Users\Godwin\AppData\Local\Temp\ccZx2d9m.s:48     .bss.motor2:00000000 $d
C:\Users\Godwin\AppData\Local\Temp\ccZx2d9m.s:58     .bss.motor3:00000000 motor3
C:\Users\Godwin\AppData\Local\Temp\ccZx2d9m.s:55     .bss.motor3:00000000 $d
C:\Users\Godwin\AppData\Local\Temp\ccZx2d9m.s:65     .bss.Linzu_motor_data:00000000 Linzu_motor_data
C:\Users\Godwin\AppData\Local\Temp\ccZx2d9m.s:62     .bss.Linzu_motor_data:00000000 $d
C:\Users\Godwin\AppData\Local\Temp\ccZx2d9m.s:72     .bss.Daran_motor_data:00000000 Daran_motor_data
C:\Users\Godwin\AppData\Local\Temp\ccZx2d9m.s:69     .bss.Daran_motor_data:00000000 $d
C:\Users\Godwin\AppData\Local\Temp\ccZx2d9m.s:79     .bss.Damiao_motor_data:00000000 Damiao_motor_data
C:\Users\Godwin\AppData\Local\Temp\ccZx2d9m.s:76     .bss.Damiao_motor_data:00000000 $d
C:\Users\Godwin\AppData\Local\Temp\ccZx2d9m.s:86     .bss.reply_enable:00000000 reply_enable
C:\Users\Godwin\AppData\Local\Temp\ccZx2d9m.s:83     .bss.reply_enable:00000000 $d
C:\Users\Godwin\AppData\Local\Temp\ccZx2d9m.s:89     .text.Arm_Init:00000000 $t
C:\Users\Godwin\AppData\Local\Temp\ccZx2d9m.s:95     .text.Arm_Init:00000000 Arm_Init
C:\Users\Godwin\AppData\Local\Temp\ccZx2d9m.s:362    .text.Arm_Init:00000218 $d
C:\Users\Godwin\AppData\Local\Temp\ccZx2d9m.s:379    .text.Arm_Linzu_motor1:00000000 $t
C:\Users\Godwin\AppData\Local\Temp\ccZx2d9m.s:385    .text.Arm_Linzu_motor1:00000000 Arm_Linzu_motor1
C:\Users\Godwin\AppData\Local\Temp\ccZx2d9m.s:415    .text.Arm_Linzu_motor1:00000024 $d
C:\Users\Godwin\AppData\Local\Temp\ccZx2d9m.s:422    .text.Arm_Linzu_motor2:00000000 $t
C:\Users\Godwin\AppData\Local\Temp\ccZx2d9m.s:428    .text.Arm_Linzu_motor2:00000000 Arm_Linzu_motor2
C:\Users\Godwin\AppData\Local\Temp\ccZx2d9m.s:458    .text.Arm_Linzu_motor2:00000024 $d
C:\Users\Godwin\AppData\Local\Temp\ccZx2d9m.s:465    .text.Arm_Linzu_motor3:00000000 $t
C:\Users\Godwin\AppData\Local\Temp\ccZx2d9m.s:471    .text.Arm_Linzu_motor3:00000000 Arm_Linzu_motor3
C:\Users\Godwin\AppData\Local\Temp\ccZx2d9m.s:501    .text.Arm_Linzu_motor3:00000024 $d
C:\Users\Godwin\AppData\Local\Temp\ccZx2d9m.s:508    .text.Arm_Daran_motor1:00000000 $t
C:\Users\Godwin\AppData\Local\Temp\ccZx2d9m.s:514    .text.Arm_Daran_motor1:00000000 Arm_Daran_motor1
C:\Users\Godwin\AppData\Local\Temp\ccZx2d9m.s:549    .text.Arm_Daran_motor1:00000030 $d
C:\Users\Godwin\AppData\Local\Temp\ccZx2d9m.s:555    .text.Arm_Daran_motor2:00000000 $t
C:\Users\Godwin\AppData\Local\Temp\ccZx2d9m.s:561    .text.Arm_Daran_motor2:00000000 Arm_Daran_motor2
C:\Users\Godwin\AppData\Local\Temp\ccZx2d9m.s:596    .text.Arm_Daran_motor2:00000030 $d
C:\Users\Godwin\AppData\Local\Temp\ccZx2d9m.s:602    .text.Arm_Daran_motor3:00000000 $t
C:\Users\Godwin\AppData\Local\Temp\ccZx2d9m.s:608    .text.Arm_Daran_motor3:00000000 Arm_Daran_motor3
C:\Users\Godwin\AppData\Local\Temp\ccZx2d9m.s:643    .text.Arm_Daran_motor3:00000030 $d
C:\Users\Godwin\AppData\Local\Temp\ccZx2d9m.s:649    .text.Arm_Damiao_motor4:00000000 $t
C:\Users\Godwin\AppData\Local\Temp\ccZx2d9m.s:655    .text.Arm_Damiao_motor4:00000000 Arm_Damiao_motor4
C:\Users\Godwin\AppData\Local\Temp\ccZx2d9m.s:698    .text.Arm_Damiao_motor4:00000044 $d
C:\Users\Godwin\AppData\Local\Temp\ccZx2d9m.s:706    .text.Arm_Damiao_motor5:00000000 $t
C:\Users\Godwin\AppData\Local\Temp\ccZx2d9m.s:712    .text.Arm_Damiao_motor5:00000000 Arm_Damiao_motor5
C:\Users\Godwin\AppData\Local\Temp\ccZx2d9m.s:751    .text.Arm_Damiao_motor5:0000003c $d
C:\Users\Godwin\AppData\Local\Temp\ccZx2d9m.s:758    .text.Arm_Damiao_motor6:00000000 $t
C:\Users\Godwin\AppData\Local\Temp\ccZx2d9m.s:764    .text.Arm_Damiao_motor6:00000000 Arm_Damiao_motor6
C:\Users\Godwin\AppData\Local\Temp\ccZx2d9m.s:810    .text.Arm_Damiao_motor6:0000004c $d
C:\Users\Godwin\AppData\Local\Temp\ccZx2d9m.s:819    .text.Arm_Linzu_Data_update:00000000 $t
C:\Users\Godwin\AppData\Local\Temp\ccZx2d9m.s:825    .text.Arm_Linzu_Data_update:00000000 Arm_Linzu_Data_update
C:\Users\Godwin\AppData\Local\Temp\ccZx2d9m.s:889    .text.Arm_Linzu_Data_update:00000040 $d
C:\Users\Godwin\AppData\Local\Temp\ccZx2d9m.s:897    .text.Arm_Daran_Data_update:00000000 $t
C:\Users\Godwin\AppData\Local\Temp\ccZx2d9m.s:903    .text.Arm_Daran_Data_update:00000000 Arm_Daran_Data_update
ARM GAS  C:\Users\Godwin\AppData\Local\Temp\ccZx2d9m.s 			page 26


C:\Users\Godwin\AppData\Local\Temp\ccZx2d9m.s:967    .text.Arm_Daran_Data_update:00000040 $d
C:\Users\Godwin\AppData\Local\Temp\ccZx2d9m.s:973    .text.Arm_All_Data_update:00000000 $t
C:\Users\Godwin\AppData\Local\Temp\ccZx2d9m.s:979    .text.Arm_All_Data_update:00000000 Arm_All_Data_update
C:\Users\Godwin\AppData\Local\Temp\ccZx2d9m.s:1007   .text.Arm_all_tx:00000000 $t
C:\Users\Godwin\AppData\Local\Temp\ccZx2d9m.s:1013   .text.Arm_all_tx:00000000 Arm_all_tx
C:\Users\Godwin\AppData\Local\Temp\ccZx2d9m.s:1083   .text.Arm_all_tx:00000058 $d

UNDEFINED SYMBOLS
RobStride_Motor_Init
Get_RobStride_Motor_parameter
HAL_Delay
Set_RobStride_Motor_parameter
Enable_Motor
RobStride_Motor_ProactiveEscalationSet
clear_error
set_mode
write_property
arm_motor_init
enable_motor_mode
hfdcan2
arm_motor
RobStride_Motor_CSP_control
set_angle
set_DM_mode
set_DM_pos_vel
pos_speed_ctrl
pos_motor
vel_motor
daran_motor_state
osDelay
