ARM GAS  C:\Users\Godwin\AppData\Local\Temp\ccq1Gorn.s 			page 1


   1              		.cpu cortex-m7
   2              		.arch armv7e-m
   3              		.fpu fpv5-d16
   4              		.eabi_attribute 28, 1
   5              		.eabi_attribute 20, 1
   6              		.eabi_attribute 21, 1
   7              		.eabi_attribute 23, 3
   8              		.eabi_attribute 24, 1
   9              		.eabi_attribute 25, 1
  10              		.eabi_attribute 26, 1
  11              		.eabi_attribute 30, 6
  12              		.eabi_attribute 34, 1
  13              		.eabi_attribute 18, 4
  14              		.file	"arm.c"
  15              		.text
  16              	.Ltext0:
  17              		.cfi_sections	.debug_frame
  18              		.file 1 "User/Hardware/arm.c"
  19              		.global	YS_8010_data
  20              		.section	.bss.YS_8010_data,"aw",%nobits
  21              		.align	2
  24              	YS_8010_data:
  25 0000 00000000 		.space	120
  25      00000000 
  25      00000000 
  25      00000000 
  25      00000000 
  26              		.global	YS_8010_cmd
  27              		.section	.bss.YS_8010_cmd,"aw",%nobits
  28              		.align	2
  31              	YS_8010_cmd:
  32 0000 00000000 		.space	88
  32      00000000 
  32      00000000 
  32      00000000 
  32      00000000 
  33              		.global	motor1
  34              		.section	.bss.motor1,"aw",%nobits
  35              		.align	3
  38              	motor1:
  39 0000 00000000 		.space	216
  39      00000000 
  39      00000000 
  39      00000000 
  39      00000000 
  40              		.global	motor2
  41              		.section	.bss.motor2,"aw",%nobits
  42              		.align	3
  45              	motor2:
  46 0000 00000000 		.space	216
  46      00000000 
  46      00000000 
  46      00000000 
  46      00000000 
  47              		.global	motor3
  48              		.section	.bss.motor3,"aw",%nobits
  49              		.align	3
ARM GAS  C:\Users\Godwin\AppData\Local\Temp\ccq1Gorn.s 			page 2


  52              	motor3:
  53 0000 00000000 		.space	216
  53      00000000 
  53      00000000 
  53      00000000 
  53      00000000 
  54              		.section	.text.Arm_Init,"ax",%progbits
  55              		.align	1
  56              		.global	Arm_Init
  57              		.syntax unified
  58              		.thumb
  59              		.thumb_func
  61              	Arm_Init:
  62              	.LFB148:
   1:User/Hardware/arm.c **** #include "arm.h"
   2:User/Hardware/arm.c **** #include "dm4310_drv.h"
   3:User/Hardware/arm.c **** #include "Robstride04.h"
   4:User/Hardware/arm.c **** #include "pid.h"
   5:User/Hardware/arm.c **** #include "remote_control.h"
   6:User/Hardware/arm.c **** #include "gpio.h"
   7:User/Hardware/arm.c **** #include "gom_protocol.h"
   8:User/Hardware/arm.c **** #include "usart.h"
   9:User/Hardware/arm.c **** #include "LZ_motor_driver.h"
  10:User/Hardware/arm.c **** #include "FreeRTOS.h"
  11:User/Hardware/arm.c **** #include "task.h"
  12:User/Hardware/arm.c **** 
  13:User/Hardware/arm.c **** 
  14:User/Hardware/arm.c **** // ÓîÊś”ç»úÊęŸĘœáčč
  15:User/Hardware/arm.c **** MotorData_t YS_8010_data[2] = {0};
  16:User/Hardware/arm.c **** MotorCmd_t YS_8010_cmd[2] = {0};
  17:User/Hardware/arm.c **** 
  18:User/Hardware/arm.c **** 
  19:User/Hardware/arm.c **** // ŽïĂî”ç»úŚŽÌŹ
  20:User/Hardware/arm.c **** extern Motor_DM_Status DM_Status[6];
  21:User/Hardware/arm.c **** RobStride_Motor_t motor1; // ÁéŚă”ç»ú¶ÔÏó
  22:User/Hardware/arm.c **** RobStride_Motor_t motor2; // ÁéŚă”ç»ú¶ÔÏó
  23:User/Hardware/arm.c **** RobStride_Motor_t motor3; // ÁéŚă”ç»ú¶ÔÏó
  24:User/Hardware/arm.c **** void Arm_Init()
  25:User/Hardware/arm.c **** {
  63              		.loc 1 25 1
  64              		.cfi_startproc
  65              		@ args = 0, pretend = 0, frame = 0
  66              		@ frame_needed = 1, uses_anonymous_args = 0
  67 0000 80B5     		push	{r7, lr}
  68              	.LCFI0:
  69              		.cfi_def_cfa_offset 8
  70              		.cfi_offset 7, -8
  71              		.cfi_offset 14, -4
  72 0002 00AF     		add	r7, sp, #0
  73              	.LCFI1:
  74              		.cfi_def_cfa_register 7
  26:User/Hardware/arm.c ****     /* ÁéŚă”ç»úłőÊŒ»ŻŁšÊčÓĂ CAN2Ł©*/
  27:User/Hardware/arm.c ****     //1șĆ”ç»úłőÊŒ»Ż
  28:User/Hardware/arm.c ****     RobStride_Motor_Init(&motor1, MOTOR_LINGZU_1_ID, false);
  75              		.loc 1 28 5
  76 0004 0022     		movs	r2, #0
  77 0006 0121     		movs	r1, #1
ARM GAS  C:\Users\Godwin\AppData\Local\Temp\ccq1Gorn.s 			page 3


  78 0008 7648     		ldr	r0, .L2
  79 000a FFF7FEFF 		bl	RobStride_Motor_Init
  29:User/Hardware/arm.c ****     Get_RobStride_Motor_parameter(&motor1, CAN_HANDLE_2, 0X7005);
  80              		.loc 1 29 5
  81 000e 47F20502 		movw	r2, #28677
  82 0012 7549     		ldr	r1, .L2+4
  83 0014 7348     		ldr	r0, .L2
  84 0016 FFF7FEFF 		bl	Get_RobStride_Motor_parameter
  30:User/Hardware/arm.c ****     HAL_Delay(10);
  85              		.loc 1 30 5
  86 001a 0A20     		movs	r0, #10
  87 001c FFF7FEFF 		bl	HAL_Delay
  31:User/Hardware/arm.c ****     Set_RobStride_Motor_parameter(&motor1, CAN_HANDLE_2, 0X7005, CSP_control_mode, 'j');
  88              		.loc 1 31 5
  89 0020 6A23     		movs	r3, #106
  90 0022 B1EE040A 		vmov.f32	s0, #5.0e+0
  91 0026 47F20502 		movw	r2, #28677
  92 002a 6F49     		ldr	r1, .L2+4
  93 002c 6D48     		ldr	r0, .L2
  94 002e FFF7FEFF 		bl	Set_RobStride_Motor_parameter
  32:User/Hardware/arm.c ****     Enable_Motor(&motor1, (hcan_t *)CAN_HANDLE_2);
  95              		.loc 1 32 5
  96 0032 6D49     		ldr	r1, .L2+4
  97 0034 6B48     		ldr	r0, .L2
  98 0036 FFF7FEFF 		bl	Enable_Motor
  33:User/Hardware/arm.c ****     Set_RobStride_Motor_parameter(&motor1, CAN_HANDLE_2, 0X7017, 1.0f, 'p');
  99              		.loc 1 33 5
 100 003a 7023     		movs	r3, #112
 101 003c B7EE000A 		vmov.f32	s0, #1.0e+0
 102 0040 47F21702 		movw	r2, #28695
 103 0044 6849     		ldr	r1, .L2+4
 104 0046 6748     		ldr	r0, .L2
 105 0048 FFF7FEFF 		bl	Set_RobStride_Motor_parameter
  34:User/Hardware/arm.c ****     HAL_Delay(10);
 106              		.loc 1 34 5
 107 004c 0A20     		movs	r0, #10
 108 004e FFF7FEFF 		bl	HAL_Delay
  35:User/Hardware/arm.c ****    RobStride_Motor_ProactiveEscalationSet(&motor1,CAN_HANDLE_2,0x01);//00ÎȘčŰ±ŐÖś¶ŻÉÏ±šŁŹ01ÎȘżȘÆôÖś
 109              		.loc 1 35 4
 110 0052 0122     		movs	r2, #1
 111 0054 6449     		ldr	r1, .L2+4
 112 0056 6348     		ldr	r0, .L2
 113 0058 FFF7FEFF 		bl	RobStride_Motor_ProactiveEscalationSet
  36:User/Hardware/arm.c **** //2șĆ”ç»úłőÊŒ»Ż
  37:User/Hardware/arm.c ****    RobStride_Motor_Init(&motor2, MOTOR_LINGZU_2_ID, false);
 114              		.loc 1 37 4
 115 005c 0022     		movs	r2, #0
 116 005e 0221     		movs	r1, #2
 117 0060 6248     		ldr	r0, .L2+8
 118 0062 FFF7FEFF 		bl	RobStride_Motor_Init
  38:User/Hardware/arm.c ****     Get_RobStride_Motor_parameter(&motor2, CAN_HANDLE_2, 0X7005);
 119              		.loc 1 38 5
 120 0066 47F20502 		movw	r2, #28677
 121 006a 5F49     		ldr	r1, .L2+4
 122 006c 5F48     		ldr	r0, .L2+8
 123 006e FFF7FEFF 		bl	Get_RobStride_Motor_parameter
  39:User/Hardware/arm.c ****     HAL_Delay(10);
ARM GAS  C:\Users\Godwin\AppData\Local\Temp\ccq1Gorn.s 			page 4


 124              		.loc 1 39 5
 125 0072 0A20     		movs	r0, #10
 126 0074 FFF7FEFF 		bl	HAL_Delay
  40:User/Hardware/arm.c ****     Set_RobStride_Motor_parameter(&motor2, CAN_HANDLE_2, 0X7005, CSP_control_mode, 'j');
 127              		.loc 1 40 5
 128 0078 6A23     		movs	r3, #106
 129 007a B1EE040A 		vmov.f32	s0, #5.0e+0
 130 007e 47F20502 		movw	r2, #28677
 131 0082 5949     		ldr	r1, .L2+4
 132 0084 5948     		ldr	r0, .L2+8
 133 0086 FFF7FEFF 		bl	Set_RobStride_Motor_parameter
  41:User/Hardware/arm.c ****     Enable_Motor(&motor2, (hcan_t *)CAN_HANDLE_2);
 134              		.loc 1 41 5
 135 008a 5749     		ldr	r1, .L2+4
 136 008c 5748     		ldr	r0, .L2+8
 137 008e FFF7FEFF 		bl	Enable_Motor
  42:User/Hardware/arm.c ****     Set_RobStride_Motor_parameter(&motor2, CAN_HANDLE_2, 0X7017, 1.0f, 'p');
 138              		.loc 1 42 5
 139 0092 7023     		movs	r3, #112
 140 0094 B7EE000A 		vmov.f32	s0, #1.0e+0
 141 0098 47F21702 		movw	r2, #28695
 142 009c 5249     		ldr	r1, .L2+4
 143 009e 5348     		ldr	r0, .L2+8
 144 00a0 FFF7FEFF 		bl	Set_RobStride_Motor_parameter
  43:User/Hardware/arm.c ****     HAL_Delay(10);
 145              		.loc 1 43 5
 146 00a4 0A20     		movs	r0, #10
 147 00a6 FFF7FEFF 		bl	HAL_Delay
  44:User/Hardware/arm.c ****    RobStride_Motor_ProactiveEscalationSet(&motor2,CAN_HANDLE_2,0x01);//00ÎȘčŰ±ŐÖś¶ŻÉÏ±šŁŹ01ÎȘżȘÆôÖś
 148              		.loc 1 44 4
 149 00aa 0122     		movs	r2, #1
 150 00ac 4E49     		ldr	r1, .L2+4
 151 00ae 4F48     		ldr	r0, .L2+8
 152 00b0 FFF7FEFF 		bl	RobStride_Motor_ProactiveEscalationSet
  45:User/Hardware/arm.c **** //3șĆ”ç»úłőÊŒ»Ż
  46:User/Hardware/arm.c ****        RobStride_Motor_Init(&motor3, MOTOR_LINGZU_3_ID, false);
 153              		.loc 1 46 8
 154 00b4 0022     		movs	r2, #0
 155 00b6 0321     		movs	r1, #3
 156 00b8 4D48     		ldr	r0, .L2+12
 157 00ba FFF7FEFF 		bl	RobStride_Motor_Init
  47:User/Hardware/arm.c ****     Get_RobStride_Motor_parameter(&motor3, CAN_HANDLE_2, 0X7005);
 158              		.loc 1 47 5
 159 00be 47F20502 		movw	r2, #28677
 160 00c2 4949     		ldr	r1, .L2+4
 161 00c4 4A48     		ldr	r0, .L2+12
 162 00c6 FFF7FEFF 		bl	Get_RobStride_Motor_parameter
  48:User/Hardware/arm.c ****     HAL_Delay(10);
 163              		.loc 1 48 5
 164 00ca 0A20     		movs	r0, #10
 165 00cc FFF7FEFF 		bl	HAL_Delay
  49:User/Hardware/arm.c ****     Set_RobStride_Motor_parameter(&motor3, CAN_HANDLE_2, 0X7005, CSP_control_mode, 'j');
 166              		.loc 1 49 5
 167 00d0 6A23     		movs	r3, #106
 168 00d2 B1EE040A 		vmov.f32	s0, #5.0e+0
 169 00d6 47F20502 		movw	r2, #28677
 170 00da 4349     		ldr	r1, .L2+4
ARM GAS  C:\Users\Godwin\AppData\Local\Temp\ccq1Gorn.s 			page 5


 171 00dc 4448     		ldr	r0, .L2+12
 172 00de FFF7FEFF 		bl	Set_RobStride_Motor_parameter
  50:User/Hardware/arm.c ****     Enable_Motor(&motor3, (hcan_t *)CAN_HANDLE_2);
 173              		.loc 1 50 5
 174 00e2 4149     		ldr	r1, .L2+4
 175 00e4 4248     		ldr	r0, .L2+12
 176 00e6 FFF7FEFF 		bl	Enable_Motor
  51:User/Hardware/arm.c ****     Set_RobStride_Motor_parameter(&motor3, CAN_HANDLE_2, 0X7017, 1.0f, 'p');
 177              		.loc 1 51 5
 178 00ea 7023     		movs	r3, #112
 179 00ec B7EE000A 		vmov.f32	s0, #1.0e+0
 180 00f0 47F21702 		movw	r2, #28695
 181 00f4 3C49     		ldr	r1, .L2+4
 182 00f6 3E48     		ldr	r0, .L2+12
 183 00f8 FFF7FEFF 		bl	Set_RobStride_Motor_parameter
  52:User/Hardware/arm.c ****     HAL_Delay(10);
 184              		.loc 1 52 5
 185 00fc 0A20     		movs	r0, #10
 186 00fe FFF7FEFF 		bl	HAL_Delay
  53:User/Hardware/arm.c ****    RobStride_Motor_ProactiveEscalationSet(&motor3,CAN_HANDLE_2,0x01);//00ÎȘčŰ±ŐÖś¶ŻÉÏ±šŁŹ01ÎȘżȘÆôÖś
 187              		.loc 1 53 4
 188 0102 0122     		movs	r2, #1
 189 0104 3849     		ldr	r1, .L2+4
 190 0106 3A48     		ldr	r0, .L2+12
 191 0108 FFF7FEFF 		bl	RobStride_Motor_ProactiveEscalationSet
  54:User/Hardware/arm.c **** 
  55:User/Hardware/arm.c ****    /* LZ”ç»úłőÊŒ»ŻŁšÊčÓĂ CAN2Ł©*/
  56:User/Hardware/arm.c ****     //2șĆ”ç»úłőÊŒ»Ż
  57:User/Hardware/arm.c ****     lz_enable_motor(2, 2); // ÊčÄÜIDÎȘ2”Ä”ç»ú
 192              		.loc 1 57 5
 193 010c 0221     		movs	r1, #2
 194 010e 0220     		movs	r0, #2
 195 0110 FFF7FEFF 		bl	lz_enable_motor
  58:User/Hardware/arm.c ****     HAL_Delay(10);
 196              		.loc 1 58 5
 197 0114 0A20     		movs	r0, #10
 198 0116 FFF7FEFF 		bl	HAL_Delay
  59:User/Hardware/arm.c ****     lz_set_mode(2, 2, LZ_MODE_POSITION); // ÉèÖĂÎȘÎ»ÖĂżŰÖÆÄŁÊœ
 199              		.loc 1 59 5
 200 011a 0122     		movs	r2, #1
 201 011c 0221     		movs	r1, #2
 202 011e 0220     		movs	r0, #2
 203 0120 FFF7FEFF 		bl	lz_set_mode
  60:User/Hardware/arm.c ****     HAL_Delay(10);
 204              		.loc 1 60 5
 205 0124 0A20     		movs	r0, #10
 206 0126 FFF7FEFF 		bl	HAL_Delay
  61:User/Hardware/arm.c **** 
  62:User/Hardware/arm.c **** 
  63:User/Hardware/arm.c **** 
  64:User/Hardware/arm.c **** 
  65:User/Hardware/arm.c ****     /* ÓîÊś”ç»úłőÊŒ»ŻŁšÊčÓĂ UARTŁŹÓë CAN ÎȚčŰŁ©*/
  66:User/Hardware/arm.c ****     YS_8010_cmd[0].id = MOTOR_YUSHU_1_ID;
 207              		.loc 1 66 23
 208 012a 324B     		ldr	r3, .L2+16
 209 012c 0222     		movs	r2, #2
 210 012e 1A80     		strh	r2, [r3]	@ movhi
ARM GAS  C:\Users\Godwin\AppData\Local\Temp\ccq1Gorn.s 			page 6


  67:User/Hardware/arm.c ****     YS_8010_cmd[0].mode = 1;
 211              		.loc 1 67 25
 212 0130 304B     		ldr	r3, .L2+16
 213 0132 0122     		movs	r2, #1
 214 0134 5A80     		strh	r2, [r3, #2]	@ movhi
  68:User/Hardware/arm.c ****     YS_8010_cmd[0].K_P = 0.02f;
 215              		.loc 1 68 24
 216 0136 2F4B     		ldr	r3, .L2+16
 217 0138 2F4A     		ldr	r2, .L2+20
 218 013a 1A61     		str	r2, [r3, #16]	@ float
  69:User/Hardware/arm.c ****     YS_8010_cmd[0].K_W = 0.0f;
 219              		.loc 1 69 24
 220 013c 2D4B     		ldr	r3, .L2+16
 221 013e 4FF00002 		mov	r2, #0
 222 0142 5A61     		str	r2, [r3, #20]	@ float
  70:User/Hardware/arm.c ****     YS_8010_cmd[0].Pos = 100.0f;
 223              		.loc 1 70 24
 224 0144 2B4B     		ldr	r3, .L2+16
 225 0146 2D4A     		ldr	r2, .L2+24
 226 0148 DA60     		str	r2, [r3, #12]	@ float
  71:User/Hardware/arm.c ****     YS_8010_cmd[0].W = 0.0f;
 227              		.loc 1 71 22
 228 014a 2A4B     		ldr	r3, .L2+16
 229 014c 4FF00002 		mov	r2, #0
 230 0150 9A60     		str	r2, [r3, #8]	@ float
  72:User/Hardware/arm.c ****     YS_8010_cmd[0].T = 0.0f;
 231              		.loc 1 72 22
 232 0152 284B     		ldr	r3, .L2+16
 233 0154 4FF00002 		mov	r2, #0
 234 0158 5A60     		str	r2, [r3, #4]	@ float
  73:User/Hardware/arm.c **** 
  74:User/Hardware/arm.c ****     YS_8010_cmd[1].id = MOTOR_YUSHU_2_ID;
 235              		.loc 1 74 23
 236 015a 264B     		ldr	r3, .L2+16
 237 015c 0322     		movs	r2, #3
 238 015e 9A85     		strh	r2, [r3, #44]	@ movhi
  75:User/Hardware/arm.c ****     YS_8010_cmd[1].mode = 1;
 239              		.loc 1 75 25
 240 0160 244B     		ldr	r3, .L2+16
 241 0162 0122     		movs	r2, #1
 242 0164 DA85     		strh	r2, [r3, #46]	@ movhi
  76:User/Hardware/arm.c ****     YS_8010_cmd[1].K_P = 0.02f;
 243              		.loc 1 76 24
 244 0166 234B     		ldr	r3, .L2+16
 245 0168 234A     		ldr	r2, .L2+20
 246 016a DA63     		str	r2, [r3, #60]	@ float
  77:User/Hardware/arm.c ****     YS_8010_cmd[1].K_W = 0.0f;
 247              		.loc 1 77 24
 248 016c 214B     		ldr	r3, .L2+16
 249 016e 4FF00002 		mov	r2, #0
 250 0172 1A64     		str	r2, [r3, #64]	@ float
  78:User/Hardware/arm.c ****     YS_8010_cmd[1].Pos = 100.0f;
 251              		.loc 1 78 24
 252 0174 1F4B     		ldr	r3, .L2+16
 253 0176 214A     		ldr	r2, .L2+24
 254 0178 9A63     		str	r2, [r3, #56]	@ float
  79:User/Hardware/arm.c ****     YS_8010_cmd[1].W = 0.0f;
ARM GAS  C:\Users\Godwin\AppData\Local\Temp\ccq1Gorn.s 			page 7


 255              		.loc 1 79 22
 256 017a 1E4B     		ldr	r3, .L2+16
 257 017c 4FF00002 		mov	r2, #0
 258 0180 5A63     		str	r2, [r3, #52]	@ float
  80:User/Hardware/arm.c ****     YS_8010_cmd[1].T = 0.0f;
 259              		.loc 1 80 22
 260 0182 1C4B     		ldr	r3, .L2+16
 261 0184 4FF00002 		mov	r2, #0
 262 0188 1A63     		str	r2, [r3, #48]	@ float
  81:User/Hardware/arm.c **** 
  82:User/Hardware/arm.c ****     /* ŽïĂî”ç»úłőÊŒ»ŻŁšÊčÓĂ CAN2Ł©*/
  83:User/Hardware/arm.c ****     arm_motor_init(&arm_motor[Motor4], MOTOR_DAMIAO_4_ID, POS_MODE);
 263              		.loc 1 83 5
 264 018a 4FF48072 		mov	r2, #256
 265 018e 0421     		movs	r1, #4
 266 0190 1B48     		ldr	r0, .L2+28
 267 0192 FFF7FEFF 		bl	arm_motor_init
  84:User/Hardware/arm.c ****     arm_motor_init(&arm_motor[Motor5], MOTOR_DAMIAO_5_ID, POS_MODE);
 268              		.loc 1 84 5
 269 0196 4FF48072 		mov	r2, #256
 270 019a 0521     		movs	r1, #5
 271 019c 1948     		ldr	r0, .L2+32
 272 019e FFF7FEFF 		bl	arm_motor_init
  85:User/Hardware/arm.c ****     arm_motor_init(&arm_motor[Motor6], MOTOR_DAMIAO_6_ID, POS_MODE);
 273              		.loc 1 85 5
 274 01a2 4FF48072 		mov	r2, #256
 275 01a6 0621     		movs	r1, #6
 276 01a8 1748     		ldr	r0, .L2+36
 277 01aa FFF7FEFF 		bl	arm_motor_init
  86:User/Hardware/arm.c **** 
  87:User/Hardware/arm.c ****     enable_motor_mode(CAN_HANDLE_2, MOTOR_DAMIAO_4_ID, POS_MODE);
 278              		.loc 1 87 5
 279 01ae 4FF48072 		mov	r2, #256
 280 01b2 0421     		movs	r1, #4
 281 01b4 0C48     		ldr	r0, .L2+4
 282 01b6 FFF7FEFF 		bl	enable_motor_mode
  88:User/Hardware/arm.c ****     enable_motor_mode(CAN_HANDLE_2, MOTOR_DAMIAO_5_ID, POS_MODE);
 283              		.loc 1 88 5
 284 01ba 4FF48072 		mov	r2, #256
 285 01be 0521     		movs	r1, #5
 286 01c0 0948     		ldr	r0, .L2+4
 287 01c2 FFF7FEFF 		bl	enable_motor_mode
  89:User/Hardware/arm.c ****     enable_motor_mode(CAN_HANDLE_2, MOTOR_DAMIAO_6_ID, POS_MODE);
 288              		.loc 1 89 5
 289 01c6 4FF48072 		mov	r2, #256
 290 01ca 0621     		movs	r1, #6
 291 01cc 0648     		ldr	r0, .L2+4
 292 01ce FFF7FEFF 		bl	enable_motor_mode
  90:User/Hardware/arm.c **** 
  91:User/Hardware/arm.c ****     vel_motor.MT04 = 5.0;
 293              		.loc 1 91 20
 294 01d2 0E4B     		ldr	r3, .L2+40
 295 01d4 0E4A     		ldr	r2, .L2+44
 296 01d6 1A60     		str	r2, [r3]	@ float
  92:User/Hardware/arm.c ****     pos_motor.MT04 = 0;
 297              		.loc 1 92 20
 298 01d8 0E4B     		ldr	r3, .L2+48
ARM GAS  C:\Users\Godwin\AppData\Local\Temp\ccq1Gorn.s 			page 8


 299 01da 4FF00002 		mov	r2, #0
 300 01de 1A60     		str	r2, [r3]	@ float
  93:User/Hardware/arm.c **** }
 301              		.loc 1 93 1
 302 01e0 00BF     		nop
 303 01e2 80BD     		pop	{r7, pc}
 304              	.L3:
 305              		.align	2
 306              	.L2:
 307 01e4 00000000 		.word	motor1
 308 01e8 00000000 		.word	hfdcan2
 309 01ec 00000000 		.word	motor2
 310 01f0 00000000 		.word	motor3
 311 01f4 00000000 		.word	YS_8010_cmd
 312 01f8 0AD7A33C 		.word	1017370378
 313 01fc 0000C842 		.word	1120403456
 314 0200 30030000 		.word	arm_motor+816
 315 0204 40040000 		.word	arm_motor+1088
 316 0208 50050000 		.word	arm_motor+1360
 317 020c 00000000 		.word	vel_motor
 318 0210 0000A040 		.word	1084227584
 319 0214 00000000 		.word	pos_motor
 320              		.cfi_endproc
 321              	.LFE148:
 323              		.section	.text.Arm_motor1,"ax",%progbits
 324              		.align	1
 325              		.global	Arm_motor1
 326              		.syntax unified
 327              		.thumb
 328              		.thumb_func
 330              	Arm_motor1:
 331              	.LFB149:
  94:User/Hardware/arm.c **** 
  95:User/Hardware/arm.c **** void Arm_motor1()
  96:User/Hardware/arm.c **** {
 332              		.loc 1 96 1
 333              		.cfi_startproc
 334              		@ args = 0, pretend = 0, frame = 0
 335              		@ frame_needed = 1, uses_anonymous_args = 0
 336 0000 80B5     		push	{r7, lr}
 337              	.LCFI2:
 338              		.cfi_def_cfa_offset 8
 339              		.cfi_offset 7, -8
 340              		.cfi_offset 14, -4
 341 0002 00AF     		add	r7, sp, #0
 342              	.LCFI3:
 343              		.cfi_def_cfa_register 7
  97:User/Hardware/arm.c ****     // RobStride_Motor_ProactiveEscalationSet(&motor1,CAN_HANDLE_2,0x01);
  98:User/Hardware/arm.c ****     RobStride_Motor_CSP_control(&motor1, CAN_HANDLE_2, 20.0f, 10.0f);
 344              		.loc 1 98 5
 345 0004 F2EE040A 		vmov.f32	s1, #1.0e+1
 346 0008 B3EE040A 		vmov.f32	s0, #2.0e+1
 347 000c 0249     		ldr	r1, .L5
 348 000e 0348     		ldr	r0, .L5+4
 349 0010 FFF7FEFF 		bl	RobStride_Motor_CSP_control
  99:User/Hardware/arm.c **** }
 350              		.loc 1 99 1
ARM GAS  C:\Users\Godwin\AppData\Local\Temp\ccq1Gorn.s 			page 9


 351 0014 00BF     		nop
 352 0016 80BD     		pop	{r7, pc}
 353              	.L6:
 354              		.align	2
 355              	.L5:
 356 0018 00000000 		.word	hfdcan2
 357 001c 00000000 		.word	motor1
 358              		.cfi_endproc
 359              	.LFE149:
 361              		.section	.text.Arm_motor2,"ax",%progbits
 362              		.align	1
 363              		.global	Arm_motor2
 364              		.syntax unified
 365              		.thumb
 366              		.thumb_func
 368              	Arm_motor2:
 369              	.LFB150:
 100:User/Hardware/arm.c **** 
 101:User/Hardware/arm.c **** void Arm_motor2()
 102:User/Hardware/arm.c **** {
 370              		.loc 1 102 1
 371              		.cfi_startproc
 372              		@ args = 0, pretend = 0, frame = 0
 373              		@ frame_needed = 1, uses_anonymous_args = 0
 374 0000 80B5     		push	{r7, lr}
 375              	.LCFI4:
 376              		.cfi_def_cfa_offset 8
 377              		.cfi_offset 7, -8
 378              		.cfi_offset 14, -4
 379 0002 00AF     		add	r7, sp, #0
 380              	.LCFI5:
 381              		.cfi_def_cfa_register 7
 103:User/Hardware/arm.c ****     //yushu
 104:User/Hardware/arm.c ****     // modify_data(&YS_8010_cmd[0]);
 105:User/Hardware/arm.c ****     // HAL_UART_Transmit(&huart3, (uint8_t *)&YS_8010_cmd[0].motor_send_data, sizeof(YS_8010_cmd[0]
 106:User/Hardware/arm.c ****     // HAL_UART_Receive(&huart3, (uint8_t *)&YS_8010_data[0].motor_recv_data, sizeof(YS_8010_data[0
 107:User/Hardware/arm.c ****    // LZ”ç»úÎ»ÖĂżŰÖÆŁšID=2Ł©
 108:User/Hardware/arm.c ****     // ÊčÓĂCAN2ŚÜÏßŁŹÄż±êÎ»ÖĂÉèÎȘ0.0»Ą¶ÈŁŹËÙ¶ÈÉèÎȘ1.0»Ą¶È/Ăë
 109:User/Hardware/arm.c ****     // żÉžùŸĘÊ”ŒÊĐèÇó”śŐûÄż±êÎ»ÖĂșÍËÙ¶ÈČÎÊę
 110:User/Hardware/arm.c ****     RobStride_Motor_CSP_control(&motor2, CAN_HANDLE_2, 0.0f, 1.0f);
 382              		.loc 1 110 5
 383 0004 F7EE000A 		vmov.f32	s1, #1.0e+0
 384 0008 9FED030A 		vldr.32	s0, .L8
 385 000c 0349     		ldr	r1, .L8+4
 386 000e 0448     		ldr	r0, .L8+8
 387 0010 FFF7FEFF 		bl	RobStride_Motor_CSP_control
 111:User/Hardware/arm.c **** 
 112:User/Hardware/arm.c **** 
 113:User/Hardware/arm.c **** 
 114:User/Hardware/arm.c **** }
 388              		.loc 1 114 1
 389 0014 00BF     		nop
 390 0016 80BD     		pop	{r7, pc}
 391              	.L9:
 392              		.align	2
 393              	.L8:
 394 0018 00000000 		.word	0
ARM GAS  C:\Users\Godwin\AppData\Local\Temp\ccq1Gorn.s 			page 10


 395 001c 00000000 		.word	hfdcan2
 396 0020 00000000 		.word	motor2
 397              		.cfi_endproc
 398              	.LFE150:
 400              		.section	.text.Arm_motor3,"ax",%progbits
 401              		.align	1
 402              		.global	Arm_motor3
 403              		.syntax unified
 404              		.thumb
 405              		.thumb_func
 407              	Arm_motor3:
 408              	.LFB151:
 115:User/Hardware/arm.c **** 
 116:User/Hardware/arm.c **** void Arm_motor3()
 117:User/Hardware/arm.c **** {
 409              		.loc 1 117 1
 410              		.cfi_startproc
 411              		@ args = 0, pretend = 0, frame = 0
 412              		@ frame_needed = 1, uses_anonymous_args = 0
 413 0000 80B5     		push	{r7, lr}
 414              	.LCFI6:
 415              		.cfi_def_cfa_offset 8
 416              		.cfi_offset 7, -8
 417              		.cfi_offset 14, -4
 418 0002 00AF     		add	r7, sp, #0
 419              	.LCFI7:
 420              		.cfi_def_cfa_register 7
 118:User/Hardware/arm.c ****     //yushu
 119:User/Hardware/arm.c ****     // modify_data(&YS_8010_cmd[1]);
 120:User/Hardware/arm.c ****     // HAL_UART_Transmit(&huart3, (uint8_t *)&YS_8010_cmd[1].motor_send_data, sizeof(YS_8010_cmd[1]
 121:User/Hardware/arm.c ****     // HAL_UART_Receive(&huart3, (uint8_t *)&YS_8010_data[1].motor_recv_data, sizeof(YS_8010_data[1
 122:User/Hardware/arm.c ****      RobStride_Motor_CSP_control(&motor3, CAN_HANDLE_2, 1.0f, 10.0f);
 421              		.loc 1 122 6
 422 0004 F2EE040A 		vmov.f32	s1, #1.0e+1
 423 0008 B7EE000A 		vmov.f32	s0, #1.0e+0
 424 000c 0249     		ldr	r1, .L11
 425 000e 0348     		ldr	r0, .L11+4
 426 0010 FFF7FEFF 		bl	RobStride_Motor_CSP_control
 123:User/Hardware/arm.c **** 
 124:User/Hardware/arm.c **** 
 125:User/Hardware/arm.c **** 
 126:User/Hardware/arm.c **** }
 427              		.loc 1 126 1
 428 0014 00BF     		nop
 429 0016 80BD     		pop	{r7, pc}
 430              	.L12:
 431              		.align	2
 432              	.L11:
 433 0018 00000000 		.word	hfdcan2
 434 001c 00000000 		.word	motor3
 435              		.cfi_endproc
 436              	.LFE151:
 438              		.section	.text.Arm_motor4,"ax",%progbits
 439              		.align	1
 440              		.global	Arm_motor4
 441              		.syntax unified
 442              		.thumb
ARM GAS  C:\Users\Godwin\AppData\Local\Temp\ccq1Gorn.s 			page 11


 443              		.thumb_func
 445              	Arm_motor4:
 446              	.LFB152:
 127:User/Hardware/arm.c **** 
 128:User/Hardware/arm.c **** void Arm_motor4()
 129:User/Hardware/arm.c **** {
 447              		.loc 1 129 1
 448              		.cfi_startproc
 449              		@ args = 0, pretend = 0, frame = 0
 450              		@ frame_needed = 1, uses_anonymous_args = 0
 451 0000 80B5     		push	{r7, lr}
 452              	.LCFI8:
 453              		.cfi_def_cfa_offset 8
 454              		.cfi_offset 7, -8
 455              		.cfi_offset 14, -4
 456 0002 00AF     		add	r7, sp, #0
 457              	.LCFI9:
 458              		.cfi_def_cfa_register 7
 130:User/Hardware/arm.c ****     set_DM_mode(Motor4, POS_MODE);
 459              		.loc 1 130 5
 460 0004 4FF48071 		mov	r1, #256
 461 0008 0320     		movs	r0, #3
 462 000a FFF7FEFF 		bl	set_DM_mode
 131:User/Hardware/arm.c ****     set_DM_pos_vel(pos_motor.MT04, vel_motor.MT04, Motor4);
 463              		.loc 1 131 5
 464 000e 0D4B     		ldr	r3, .L14
 465 0010 D3ED007A 		vldr.32	s15, [r3]
 466 0014 0C4B     		ldr	r3, .L14+4
 467 0016 93ED007A 		vldr.32	s14, [r3]
 468 001a 0320     		movs	r0, #3
 469 001c F0EE470A 		vmov.f32	s1, s14
 470 0020 B0EE670A 		vmov.f32	s0, s15
 471 0024 FFF7FEFF 		bl	set_DM_pos_vel
 132:User/Hardware/arm.c ****     pos_speed_ctrl(CAN_HANDLE_2, MOTOR_DAMIAO_4_ID, 5, 10);
 472              		.loc 1 132 5
 473 0028 F2EE040A 		vmov.f32	s1, #1.0e+1
 474 002c B1EE040A 		vmov.f32	s0, #5.0e+0
 475 0030 0421     		movs	r1, #4
 476 0032 0648     		ldr	r0, .L14+8
 477 0034 FFF7FEFF 		bl	pos_speed_ctrl
 133:User/Hardware/arm.c ****     pos_motor.MT04 = 20;
 478              		.loc 1 133 20
 479 0038 024B     		ldr	r3, .L14
 480 003a 054A     		ldr	r2, .L14+12
 481 003c 1A60     		str	r2, [r3]	@ float
 134:User/Hardware/arm.c **** }
 482              		.loc 1 134 1
 483 003e 00BF     		nop
 484 0040 80BD     		pop	{r7, pc}
 485              	.L15:
 486 0042 00BF     		.align	2
 487              	.L14:
 488 0044 00000000 		.word	pos_motor
 489 0048 00000000 		.word	vel_motor
 490 004c 00000000 		.word	hfdcan2
 491 0050 0000A041 		.word	1101004800
 492              		.cfi_endproc
ARM GAS  C:\Users\Godwin\AppData\Local\Temp\ccq1Gorn.s 			page 12


 493              	.LFE152:
 495              		.section	.text.Arm_motor5,"ax",%progbits
 496              		.align	1
 497              		.global	Arm_motor5
 498              		.syntax unified
 499              		.thumb
 500              		.thumb_func
 502              	Arm_motor5:
 503              	.LFB153:
 135:User/Hardware/arm.c **** 
 136:User/Hardware/arm.c **** void Arm_motor5()
 137:User/Hardware/arm.c **** {
 504              		.loc 1 137 1
 505              		.cfi_startproc
 506              		@ args = 0, pretend = 0, frame = 0
 507              		@ frame_needed = 1, uses_anonymous_args = 0
 508 0000 80B5     		push	{r7, lr}
 509              	.LCFI10:
 510              		.cfi_def_cfa_offset 8
 511              		.cfi_offset 7, -8
 512              		.cfi_offset 14, -4
 513 0002 00AF     		add	r7, sp, #0
 514              	.LCFI11:
 515              		.cfi_def_cfa_register 7
 138:User/Hardware/arm.c ****     set_DM_mode(Motor5, POS_MODE);
 516              		.loc 1 138 5
 517 0004 4FF48071 		mov	r1, #256
 518 0008 0420     		movs	r0, #4
 519 000a FFF7FEFF 		bl	set_DM_mode
 139:User/Hardware/arm.c ****     set_DM_pos_vel(pos_motor.MT05, vel_motor.MT05, Motor5);
 520              		.loc 1 139 5
 521 000e 0B4B     		ldr	r3, .L17
 522 0010 D3ED017A 		vldr.32	s15, [r3, #4]
 523 0014 0A4B     		ldr	r3, .L17+4
 524 0016 93ED017A 		vldr.32	s14, [r3, #4]
 525 001a 0420     		movs	r0, #4
 526 001c F0EE470A 		vmov.f32	s1, s14
 527 0020 B0EE670A 		vmov.f32	s0, s15
 528 0024 FFF7FEFF 		bl	set_DM_pos_vel
 140:User/Hardware/arm.c ****     pos_speed_ctrl(CAN_HANDLE_2, MOTOR_DAMIAO_5_ID, 10, 1);
 529              		.loc 1 140 5
 530 0028 F7EE000A 		vmov.f32	s1, #1.0e+0
 531 002c B2EE040A 		vmov.f32	s0, #1.0e+1
 532 0030 0521     		movs	r1, #5
 533 0032 0448     		ldr	r0, .L17+8
 534 0034 FFF7FEFF 		bl	pos_speed_ctrl
 141:User/Hardware/arm.c **** }
 535              		.loc 1 141 1
 536 0038 00BF     		nop
 537 003a 80BD     		pop	{r7, pc}
 538              	.L18:
 539              		.align	2
 540              	.L17:
 541 003c 00000000 		.word	pos_motor
 542 0040 00000000 		.word	vel_motor
 543 0044 00000000 		.word	hfdcan2
 544              		.cfi_endproc
ARM GAS  C:\Users\Godwin\AppData\Local\Temp\ccq1Gorn.s 			page 13


 545              	.LFE153:
 547              		.section	.text.Arm_motor6,"ax",%progbits
 548              		.align	1
 549              		.global	Arm_motor6
 550              		.syntax unified
 551              		.thumb
 552              		.thumb_func
 554              	Arm_motor6:
 555              	.LFB154:
 142:User/Hardware/arm.c **** 
 143:User/Hardware/arm.c **** void Arm_motor6()
 144:User/Hardware/arm.c **** {
 556              		.loc 1 144 1
 557              		.cfi_startproc
 558              		@ args = 0, pretend = 0, frame = 0
 559              		@ frame_needed = 1, uses_anonymous_args = 0
 560 0000 80B5     		push	{r7, lr}
 561              	.LCFI12:
 562              		.cfi_def_cfa_offset 8
 563              		.cfi_offset 7, -8
 564              		.cfi_offset 14, -4
 565 0002 00AF     		add	r7, sp, #0
 566              	.LCFI13:
 567              		.cfi_def_cfa_register 7
 145:User/Hardware/arm.c ****     set_DM_mode(Motor6, POS_MODE);
 568              		.loc 1 145 5
 569 0004 4FF48071 		mov	r1, #256
 570 0008 0520     		movs	r0, #5
 571 000a FFF7FEFF 		bl	set_DM_mode
 146:User/Hardware/arm.c ****     set_DM_pos_vel(pos_motor.MT06, vel_motor.MT06, Motor6);
 572              		.loc 1 146 5
 573 000e 0F4B     		ldr	r3, .L20
 574 0010 D3ED027A 		vldr.32	s15, [r3, #8]
 575 0014 0E4B     		ldr	r3, .L20+4
 576 0016 93ED027A 		vldr.32	s14, [r3, #8]
 577 001a 0520     		movs	r0, #5
 578 001c F0EE470A 		vmov.f32	s1, s14
 579 0020 B0EE670A 		vmov.f32	s0, s15
 580 0024 FFF7FEFF 		bl	set_DM_pos_vel
 147:User/Hardware/arm.c ****     pos_motor.MT06 = 10;
 581              		.loc 1 147 20
 582 0028 084B     		ldr	r3, .L20
 583 002a 0A4A     		ldr	r2, .L20+8
 584 002c 9A60     		str	r2, [r3, #8]	@ float
 148:User/Hardware/arm.c ****     pos_speed_ctrl(CAN_HANDLE_2, MOTOR_DAMIAO_6_ID, arm_motor[Motor6].ctrl.pos_set, 1);
 585              		.loc 1 148 5
 586 002e 0A4B     		ldr	r3, .L20+12
 587 0030 03F28C53 		addw	r3, r3, #1420
 588 0034 D3ED007A 		vldr.32	s15, [r3]
 589 0038 F7EE000A 		vmov.f32	s1, #1.0e+0
 590 003c B0EE670A 		vmov.f32	s0, s15
 591 0040 0621     		movs	r1, #6
 592 0042 0648     		ldr	r0, .L20+16
 593 0044 FFF7FEFF 		bl	pos_speed_ctrl
 149:User/Hardware/arm.c **** }
 594              		.loc 1 149 1
 595 0048 00BF     		nop
ARM GAS  C:\Users\Godwin\AppData\Local\Temp\ccq1Gorn.s 			page 14


 596 004a 80BD     		pop	{r7, pc}
 597              	.L21:
 598              		.align	2
 599              	.L20:
 600 004c 00000000 		.word	pos_motor
 601 0050 00000000 		.word	vel_motor
 602 0054 00002041 		.word	1092616192
 603 0058 00000000 		.word	arm_motor
 604 005c 00000000 		.word	hfdcan2
 605              		.cfi_endproc
 606              	.LFE154:
 608              		.section	.text.Arm_all_tx,"ax",%progbits
 609              		.align	1
 610              		.global	Arm_all_tx
 611              		.syntax unified
 612              		.thumb
 613              		.thumb_func
 615              	Arm_all_tx:
 616              	.LFB155:
 150:User/Hardware/arm.c **** void Arm_all_tx()
 151:User/Hardware/arm.c **** {
 617              		.loc 1 151 1
 618              		.cfi_startproc
 619              		@ args = 0, pretend = 0, frame = 0
 620              		@ frame_needed = 1, uses_anonymous_args = 0
 621 0000 80B5     		push	{r7, lr}
 622              	.LCFI14:
 623              		.cfi_def_cfa_offset 8
 624              		.cfi_offset 7, -8
 625              		.cfi_offset 14, -4
 626 0002 00AF     		add	r7, sp, #0
 627              	.LCFI15:
 628              		.cfi_def_cfa_register 7
 152:User/Hardware/arm.c ****     Arm_motor1();
 629              		.loc 1 152 5
 630 0004 FFF7FEFF 		bl	Arm_motor1
 153:User/Hardware/arm.c ****     osDelay(1);
 631              		.loc 1 153 5
 632 0008 0120     		movs	r0, #1
 633 000a FFF7FEFF 		bl	osDelay
 154:User/Hardware/arm.c ****     Arm_motor2();
 634              		.loc 1 154 5
 635 000e FFF7FEFF 		bl	Arm_motor2
 155:User/Hardware/arm.c ****     osDelay(1);
 636              		.loc 1 155 5
 637 0012 0120     		movs	r0, #1
 638 0014 FFF7FEFF 		bl	osDelay
 156:User/Hardware/arm.c ****     Arm_motor3();
 639              		.loc 1 156 5
 640 0018 FFF7FEFF 		bl	Arm_motor3
 157:User/Hardware/arm.c ****     osDelay(1);
 641              		.loc 1 157 5
 642 001c 0120     		movs	r0, #1
 643 001e FFF7FEFF 		bl	osDelay
 158:User/Hardware/arm.c ****     // Arm_motor4();
 159:User/Hardware/arm.c ****     // osDelay(1);
 160:User/Hardware/arm.c ****     //  Arm_motor5();
ARM GAS  C:\Users\Godwin\AppData\Local\Temp\ccq1Gorn.s 			page 15


 161:User/Hardware/arm.c ****     //  osDelay(1);
 162:User/Hardware/arm.c ****     // Arm_motor6();
 163:User/Hardware/arm.c ****     //  osDelay(1);
 164:User/Hardware/arm.c **** 
 165:User/Hardware/arm.c **** 
 166:User/Hardware/arm.c **** }...
 644              		.loc 1 166 1
 645 0022 00BF     		nop
 646 0024 80BD     		pop	{r7, pc}
 647              		.cfi_endproc
 648              	.LFE155:
 650              		.text
 651              	.Letext0:
 652              		.file 2 "C:/Users/Godwin/13.2 Rel1/arm-none-eabi/include/machine/_default_types.h"
 653              		.file 3 "C:/Users/Godwin/13.2 Rel1/arm-none-eabi/include/sys/_stdint.h"
 654              		.file 4 "Drivers/CMSIS/Device/ST/STM32H7xx/Include/stm32h723xx.h"
 655              		.file 5 "Drivers/CMSIS/Device/ST/STM32H7xx/Include/stm32h7xx.h"
 656              		.file 6 "Drivers/STM32H7xx_HAL_Driver/Inc/stm32h7xx_hal_def.h"
 657              		.file 7 "Drivers/STM32H7xx_HAL_Driver/Inc/stm32h7xx_hal_fdcan.h"
 658              		.file 8 "User/BSP/can_receive_send.h"
 659              		.file 9 "User/Hardware/dm4310_drv.h"
 660              		.file 10 "Core/Inc/fdcan.h"
 661              		.file 11 "User/Hardware/Robstride04.h"
 662              		.file 12 "User/Hardware/arm.h"
 663              		.file 13 "User/Hardware/Unitree/gom_protocol.h"
 664              		.file 14 "User/Hardware/LZ_motor_driver.h"
 665              		.file 15 "Drivers/STM32H7xx_HAL_Driver/Inc/stm32h7xx_hal.h"
ARM GAS  C:\Users\Godwin\AppData\Local\Temp\ccq1Gorn.s 			page 16

