ARM GAS  C:\Users\Administrator\AppData\Local\Temp\ccoo9Cfk.s 			page 1


   1              		.cpu cortex-m7
   2              		.arch armv7e-m
   3              		.fpu fpv5-d16
   4              		.eabi_attribute 28, 1
   5              		.eabi_attribute 20, 1
   6              		.eabi_attribute 21, 1
   7              		.eabi_attribute 23, 3
   8              		.eabi_attribute 24, 1
   9              		.eabi_attribute 25, 1
  10              		.eabi_attribute 26, 1
  11              		.eabi_attribute 30, 6
  12              		.eabi_attribute 34, 1
  13              		.eabi_attribute 18, 4
  14              		.file	"bsp_pca9685.c"
  15              		.text
  16              	.Ltext0:
  17              		.cfi_sections	.debug_frame
  18              		.file 1 "User/Drive/bsp_pca9685.c"
  19              		.section	.text.PCA9685_Write,"ax",%progbits
  20              		.align	1
  21              		.syntax unified
  22              		.thumb
  23              		.thumb_func
  25              	PCA9685_Write:
  26              	.LFB144:
   1:User/Drive/bsp_pca9685.c **** #include "bsp_pca9685.h"
   2:User/Drive/bsp_pca9685.c **** #include <math.h>
   3:User/Drive/bsp_pca9685.c **** 
   4:User/Drive/bsp_pca9685.c **** // °üş¬HAL I2CÍ·ÎÄĽţŁ¬˛˘ÉůĂ÷Íâ˛żI2Cľä±úŁ¨ÓÉCubeMXÉúłÉŁ©
   5:User/Drive/bsp_pca9685.c **** #include "i2c.h"
   6:User/Drive/bsp_pca9685.c **** extern I2C_HandleTypeDef hi2c2;   // ĘąÓĂI2C2Ł¬ÓëÄúµÄłőĘĽ»Ż¶ÔÓ¦
   7:User/Drive/bsp_pca9685.c **** 
   8:User/Drive/bsp_pca9685.c **** // ŃÓĘ±şŻĘýŁ¨ĐčÍâ˛żĘµĎÖŁ©
   9:User/Drive/bsp_pca9685.c **** extern void delay_us(uint32_t us);
  10:User/Drive/bsp_pca9685.c **** extern void HAL_Delay(uint32_t ms);
  11:User/Drive/bsp_pca9685.c **** 
  12:User/Drive/bsp_pca9685.c **** /******************************************************************
  13:User/Drive/bsp_pca9685.c ****  * şŻ Ęý Ăű łĆŁşPCA9685_Write
  14:User/Drive/bsp_pca9685.c ****  * şŻ Ęý Ëµ Ă÷ŁşĎňPCA9685Đ´Ň»¸ö×Ö˝ÚĘýľÝŁ¨Ó˛ĽţI2CŁ©
  15:User/Drive/bsp_pca9685.c ****  * ĐÎ    ˛ÎŁşreg ĽÄ´ćĆ÷µŘÖ·Ł¬data Đ´ČëµÄĘýľÝ
  16:User/Drive/bsp_pca9685.c ****  * ·µ »Ř ÖµŁşÎŢ
  17:User/Drive/bsp_pca9685.c ****  ******************************************************************/
  18:User/Drive/bsp_pca9685.c **** static void PCA9685_Write(uint8_t reg, uint8_t data)
  19:User/Drive/bsp_pca9685.c **** {
  27              		.loc 1 19 1
  28              		.cfi_startproc
  29              		@ args = 0, pretend = 0, frame = 8
  30              		@ frame_needed = 1, uses_anonymous_args = 0
  31 0000 80B5     		push	{r7, lr}
  32              	.LCFI0:
  33              		.cfi_def_cfa_offset 8
  34              		.cfi_offset 7, -8
  35              		.cfi_offset 14, -4
  36 0002 86B0     		sub	sp, sp, #24
  37              	.LCFI1:
  38              		.cfi_def_cfa_offset 32
  39 0004 04AF     		add	r7, sp, #16
ARM GAS  C:\Users\Administrator\AppData\Local\Temp\ccoo9Cfk.s 			page 2


  40              	.LCFI2:
  41              		.cfi_def_cfa 7, 16
  42 0006 0346     		mov	r3, r0
  43 0008 0A46     		mov	r2, r1
  44 000a FB71     		strb	r3, [r7, #7]
  45 000c 1346     		mov	r3, r2
  46 000e BB71     		strb	r3, [r7, #6]
  20:User/Drive/bsp_pca9685.c ****     HAL_I2C_Mem_Write(&hi2c2, PCA9685_ADDR, reg, I2C_MEMADD_SIZE_8BIT, &data, 1, 100);
  47              		.loc 1 20 5
  48 0010 FB79     		ldrb	r3, [r7, #7]	@ zero_extendqisi2
  49 0012 9AB2     		uxth	r2, r3
  50 0014 6423     		movs	r3, #100
  51 0016 0293     		str	r3, [sp, #8]
  52 0018 0123     		movs	r3, #1
  53 001a 0193     		str	r3, [sp, #4]
  54 001c BB1D     		adds	r3, r7, #6
  55 001e 0093     		str	r3, [sp]
  56 0020 0123     		movs	r3, #1
  57 0022 8021     		movs	r1, #128
  58 0024 0348     		ldr	r0, .L2
  59 0026 FFF7FEFF 		bl	HAL_I2C_Mem_Write
  21:User/Drive/bsp_pca9685.c **** }
  60              		.loc 1 21 1
  61 002a 00BF     		nop
  62 002c 0837     		adds	r7, r7, #8
  63              	.LCFI3:
  64              		.cfi_def_cfa_offset 8
  65 002e BD46     		mov	sp, r7
  66              	.LCFI4:
  67              		.cfi_def_cfa_register 13
  68              		@ sp needed
  69 0030 80BD     		pop	{r7, pc}
  70              	.L3:
  71 0032 00BF     		.align	2
  72              	.L2:
  73 0034 00000000 		.word	hi2c2
  74              		.cfi_endproc
  75              	.LFE144:
  77              		.section	.text.PCA9685_Read,"ax",%progbits
  78              		.align	1
  79              		.syntax unified
  80              		.thumb
  81              		.thumb_func
  83              	PCA9685_Read:
  84              	.LFB145:
  22:User/Drive/bsp_pca9685.c **** 
  23:User/Drive/bsp_pca9685.c **** /******************************************************************
  24:User/Drive/bsp_pca9685.c ****  * şŻ Ęý Ăű łĆŁşPCA9685_Read
  25:User/Drive/bsp_pca9685.c ****  * şŻ Ęý Ëµ Ă÷Łş¶ÁČˇPCA9685Ň»¸ö×Ö˝ÚĘýľÝŁ¨Ó˛ĽţI2CŁ©
  26:User/Drive/bsp_pca9685.c ****  * ĐÎ    ˛ÎŁşreg ĽÄ´ćĆ÷µŘÖ·
  27:User/Drive/bsp_pca9685.c ****  * ·µ »Ř ÖµŁş¶ÁČˇµÄĘýľÝ
  28:User/Drive/bsp_pca9685.c ****  ******************************************************************/
  29:User/Drive/bsp_pca9685.c **** static uint8_t PCA9685_Read(uint8_t reg)
  30:User/Drive/bsp_pca9685.c **** {
  85              		.loc 1 30 1
  86              		.cfi_startproc
  87              		@ args = 0, pretend = 0, frame = 16
ARM GAS  C:\Users\Administrator\AppData\Local\Temp\ccoo9Cfk.s 			page 3


  88              		@ frame_needed = 1, uses_anonymous_args = 0
  89 0000 80B5     		push	{r7, lr}
  90              	.LCFI5:
  91              		.cfi_def_cfa_offset 8
  92              		.cfi_offset 7, -8
  93              		.cfi_offset 14, -4
  94 0002 88B0     		sub	sp, sp, #32
  95              	.LCFI6:
  96              		.cfi_def_cfa_offset 40
  97 0004 04AF     		add	r7, sp, #16
  98              	.LCFI7:
  99              		.cfi_def_cfa 7, 24
 100 0006 0346     		mov	r3, r0
 101 0008 FB71     		strb	r3, [r7, #7]
  31:User/Drive/bsp_pca9685.c ****     uint8_t data = 0;
 102              		.loc 1 31 13
 103 000a 0023     		movs	r3, #0
 104 000c FB73     		strb	r3, [r7, #15]
  32:User/Drive/bsp_pca9685.c ****     HAL_I2C_Mem_Read(&hi2c2, PCA9685_ADDR, reg, I2C_MEMADD_SIZE_8BIT, &data, 1, 100);
 105              		.loc 1 32 5
 106 000e FB79     		ldrb	r3, [r7, #7]	@ zero_extendqisi2
 107 0010 9AB2     		uxth	r2, r3
 108 0012 6423     		movs	r3, #100
 109 0014 0293     		str	r3, [sp, #8]
 110 0016 0123     		movs	r3, #1
 111 0018 0193     		str	r3, [sp, #4]
 112 001a 07F10F03 		add	r3, r7, #15
 113 001e 0093     		str	r3, [sp]
 114 0020 0123     		movs	r3, #1
 115 0022 8021     		movs	r1, #128
 116 0024 0348     		ldr	r0, .L6
 117 0026 FFF7FEFF 		bl	HAL_I2C_Mem_Read
  33:User/Drive/bsp_pca9685.c ****     return data;
 118              		.loc 1 33 12
 119 002a FB7B     		ldrb	r3, [r7, #15]	@ zero_extendqisi2
  34:User/Drive/bsp_pca9685.c **** }
 120              		.loc 1 34 1
 121 002c 1846     		mov	r0, r3
 122 002e 1037     		adds	r7, r7, #16
 123              	.LCFI8:
 124              		.cfi_def_cfa_offset 8
 125 0030 BD46     		mov	sp, r7
 126              	.LCFI9:
 127              		.cfi_def_cfa_register 13
 128              		@ sp needed
 129 0032 80BD     		pop	{r7, pc}
 130              	.L7:
 131              		.align	2
 132              	.L6:
 133 0034 00000000 		.word	hi2c2
 134              		.cfi_endproc
 135              	.LFE145:
 137              		.section	.text.PCA9685_setPWM,"ax",%progbits
 138              		.align	1
 139              		.syntax unified
 140              		.thumb
 141              		.thumb_func
ARM GAS  C:\Users\Administrator\AppData\Local\Temp\ccoo9Cfk.s 			page 4


 143              	PCA9685_setPWM:
 144              	.LFB146:
  35:User/Drive/bsp_pca9685.c **** 
  36:User/Drive/bsp_pca9685.c **** /******************************************************************
  37:User/Drive/bsp_pca9685.c ****  * şŻ Ęý Ăű łĆŁşPCA9685_setPWM
  38:User/Drive/bsp_pca9685.c ****  * şŻ Ęý Ëµ Ă÷ŁşÉčÖĂÖ¸¶¨Í¨µŔµÄON/OFFĽĆĘýÖµŁ¨µ×˛ăşŻĘýŁ©
  39:User/Drive/bsp_pca9685.c ****  * ĐÎ    ˛ÎŁşchannel Í¨µŔşĹ 0~15Ł¬on ONĽĆĘýÖµŁ¬off OFFĽĆĘýÖµ
  40:User/Drive/bsp_pca9685.c ****  * ·µ »Ř ÖµŁşÎŢ
  41:User/Drive/bsp_pca9685.c ****  ******************************************************************/
  42:User/Drive/bsp_pca9685.c **** static void PCA9685_setPWM(uint8_t channel, uint16_t on, uint16_t off)
  43:User/Drive/bsp_pca9685.c **** {
 145              		.loc 1 43 1
 146              		.cfi_startproc
 147              		@ args = 0, pretend = 0, frame = 16
 148              		@ frame_needed = 1, uses_anonymous_args = 0
 149 0000 80B5     		push	{r7, lr}
 150              	.LCFI10:
 151              		.cfi_def_cfa_offset 8
 152              		.cfi_offset 7, -8
 153              		.cfi_offset 14, -4
 154 0002 88B0     		sub	sp, sp, #32
 155              	.LCFI11:
 156              		.cfi_def_cfa_offset 40
 157 0004 04AF     		add	r7, sp, #16
 158              	.LCFI12:
 159              		.cfi_def_cfa 7, 24
 160 0006 0346     		mov	r3, r0
 161 0008 FB71     		strb	r3, [r7, #7]
 162 000a 0B46     		mov	r3, r1	@ movhi
 163 000c BB80     		strh	r3, [r7, #4]	@ movhi
 164 000e 1346     		mov	r3, r2	@ movhi
 165 0010 7B80     		strh	r3, [r7, #2]	@ movhi
  44:User/Drive/bsp_pca9685.c ****     uint8_t reg = LED0_ON_L + 4 * channel;
 166              		.loc 1 44 29
 167 0012 FB79     		ldrb	r3, [r7, #7]
 168 0014 9B00     		lsls	r3, r3, #2
 169 0016 DBB2     		uxtb	r3, r3
 170              		.loc 1 44 13
 171 0018 0633     		adds	r3, r3, #6
 172 001a FB73     		strb	r3, [r7, #15]
  45:User/Drive/bsp_pca9685.c ****     uint8_t data[4];
  46:User/Drive/bsp_pca9685.c **** 
  47:User/Drive/bsp_pca9685.c ****     data[0] = on  & 0xFF;        // ON_L
 173              		.loc 1 47 13
 174 001c BB88     		ldrh	r3, [r7, #4]	@ movhi
 175 001e DBB2     		uxtb	r3, r3
 176 0020 3B72     		strb	r3, [r7, #8]
  48:User/Drive/bsp_pca9685.c ****     data[1] = on  >> 8;           // ON_H
 177              		.loc 1 48 13
 178 0022 BB88     		ldrh	r3, [r7, #4]
 179 0024 1B0A     		lsrs	r3, r3, #8
 180 0026 9BB2     		uxth	r3, r3
 181 0028 DBB2     		uxtb	r3, r3
 182 002a 7B72     		strb	r3, [r7, #9]
  49:User/Drive/bsp_pca9685.c ****     data[2] = off & 0xFF;        // OFF_L
 183              		.loc 1 49 13
 184 002c 7B88     		ldrh	r3, [r7, #2]	@ movhi
ARM GAS  C:\Users\Administrator\AppData\Local\Temp\ccoo9Cfk.s 			page 5


 185 002e DBB2     		uxtb	r3, r3
 186 0030 BB72     		strb	r3, [r7, #10]
  50:User/Drive/bsp_pca9685.c ****     data[3] = off >> 8;           // OFF_H
 187              		.loc 1 50 13
 188 0032 7B88     		ldrh	r3, [r7, #2]
 189 0034 1B0A     		lsrs	r3, r3, #8
 190 0036 9BB2     		uxth	r3, r3
 191 0038 DBB2     		uxtb	r3, r3
 192 003a FB72     		strb	r3, [r7, #11]
  51:User/Drive/bsp_pca9685.c **** 
  52:User/Drive/bsp_pca9685.c ****     HAL_I2C_Mem_Write(&hi2c2, PCA9685_ADDR, reg, I2C_MEMADD_SIZE_8BIT, data, 4, 100);
 193              		.loc 1 52 5
 194 003c FB7B     		ldrb	r3, [r7, #15]	@ zero_extendqisi2
 195 003e 9AB2     		uxth	r2, r3
 196 0040 6423     		movs	r3, #100
 197 0042 0293     		str	r3, [sp, #8]
 198 0044 0423     		movs	r3, #4
 199 0046 0193     		str	r3, [sp, #4]
 200 0048 07F10803 		add	r3, r7, #8
 201 004c 0093     		str	r3, [sp]
 202 004e 0123     		movs	r3, #1
 203 0050 8021     		movs	r1, #128
 204 0052 0348     		ldr	r0, .L9
 205 0054 FFF7FEFF 		bl	HAL_I2C_Mem_Write
  53:User/Drive/bsp_pca9685.c **** }
 206              		.loc 1 53 1
 207 0058 00BF     		nop
 208 005a 1037     		adds	r7, r7, #16
 209              	.LCFI13:
 210              		.cfi_def_cfa_offset 8
 211 005c BD46     		mov	sp, r7
 212              	.LCFI14:
 213              		.cfi_def_cfa_register 13
 214              		@ sp needed
 215 005e 80BD     		pop	{r7, pc}
 216              	.L10:
 217              		.align	2
 218              	.L9:
 219 0060 00000000 		.word	hi2c2
 220              		.cfi_endproc
 221              	.LFE146:
 223              		.section	.text.PCA9685_setFreq,"ax",%progbits
 224              		.align	1
 225              		.syntax unified
 226              		.thumb
 227              		.thumb_func
 229              	PCA9685_setFreq:
 230              	.LFB147:
  54:User/Drive/bsp_pca9685.c **** 
  55:User/Drive/bsp_pca9685.c **** /******************************************************************
  56:User/Drive/bsp_pca9685.c ****  * şŻ Ęý Ăű łĆŁşPCA9685_setFreq
  57:User/Drive/bsp_pca9685.c ****  * şŻ Ęý Ëµ Ă÷ŁşÉčÖĂPCA9685µÄPWMĘäłöĆµÂĘŁ¨ÄÚ˛żµ÷ÓĂŁ©
  58:User/Drive/bsp_pca9685.c ****  * ĐÎ    ˛ÎŁşfreq Äż±ęĆµÂĘŁ¨HzŁ©
  59:User/Drive/bsp_pca9685.c ****  * ·µ »Ř ÖµŁşÎŢ
  60:User/Drive/bsp_pca9685.c ****  ******************************************************************/
  61:User/Drive/bsp_pca9685.c **** static void PCA9685_setFreq(float freq)
  62:User/Drive/bsp_pca9685.c **** {
ARM GAS  C:\Users\Administrator\AppData\Local\Temp\ccoo9Cfk.s 			page 6


 231              		.loc 1 62 1
 232              		.cfi_startproc
 233              		@ args = 0, pretend = 0, frame = 24
 234              		@ frame_needed = 1, uses_anonymous_args = 0
 235 0000 80B5     		push	{r7, lr}
 236              	.LCFI15:
 237              		.cfi_def_cfa_offset 8
 238              		.cfi_offset 7, -8
 239              		.cfi_offset 14, -4
 240 0002 86B0     		sub	sp, sp, #24
 241              	.LCFI16:
 242              		.cfi_def_cfa_offset 32
 243 0004 00AF     		add	r7, sp, #0
 244              	.LCFI17:
 245              		.cfi_def_cfa_register 7
 246 0006 87ED010A 		vstr.32	s0, [r7, #4]
  63:User/Drive/bsp_pca9685.c ****     uint8_t prescale, oldmode, newmode;
  64:User/Drive/bsp_pca9685.c ****     double prescaleval;
  65:User/Drive/bsp_pca9685.c **** 
  66:User/Drive/bsp_pca9685.c ****     // ĽĆËăÔ¤·ÖĆµÖµŁşprescale = round(25e6 / (4096 * freq)) - 1
  67:User/Drive/bsp_pca9685.c ****     prescaleval = 25000000.0;
 247              		.loc 1 67 17
 248 000a 2DA3     		adr	r3, .L12+8
 249 000c D3E90023 		ldrd	r2, [r3]
 250 0010 C7E90423 		strd	r2, [r7, #16]
  68:User/Drive/bsp_pca9685.c ****     prescaleval /= 4096.0;
 251              		.loc 1 68 17
 252 0014 97ED046B 		vldr.64	d6, [r7, #16]
 253 0018 9FED275B 		vldr.64	d5, .L12
 254 001c 86EE057B 		vdiv.f64	d7, d6, d5
 255 0020 87ED047B 		vstr.64	d7, [r7, #16]
  69:User/Drive/bsp_pca9685.c ****     prescaleval /= freq;
 256              		.loc 1 69 17
 257 0024 D7ED017A 		vldr.32	s15, [r7, #4]
 258 0028 B7EEE76A 		vcvt.f64.f32	d6, s15
 259 002c 97ED045B 		vldr.64	d5, [r7, #16]
 260 0030 85EE067B 		vdiv.f64	d7, d5, d6
 261 0034 87ED047B 		vstr.64	d7, [r7, #16]
  70:User/Drive/bsp_pca9685.c ****     prescaleval -= 1.0;
 262              		.loc 1 70 17
 263 0038 97ED047B 		vldr.64	d7, [r7, #16]
 264 003c B7EE006B 		vmov.f64	d6, #1.0e+0
 265 0040 37EE467B 		vsub.f64	d7, d7, d6
 266 0044 87ED047B 		vstr.64	d7, [r7, #16]
  71:User/Drive/bsp_pca9685.c ****     prescale = (uint8_t)(prescaleval + 0.5);   // ËÄÉáÎĺČë
 267              		.loc 1 71 38
 268 0048 97ED047B 		vldr.64	d7, [r7, #16]
 269 004c B6EE006B 		vmov.f64	d6, #5.0e-1
 270 0050 37EE067B 		vadd.f64	d7, d7, d6
 271              		.loc 1 71 14
 272 0054 FCEEC77B 		vcvt.u32.f64	s15, d7
 273 0058 C7ED007A 		vstr.32	s15, [r7]	@ int
 274 005c 3B78     		ldrb	r3, [r7]
 275 005e FB73     		strb	r3, [r7, #15]
  72:User/Drive/bsp_pca9685.c **** 
  73:User/Drive/bsp_pca9685.c ****     // ¶ÁČˇµ±Ç°Mode1ĽÄ´ćĆ÷
  74:User/Drive/bsp_pca9685.c ****     oldmode = PCA9685_Read(PCA9685_MODE1);
ARM GAS  C:\Users\Administrator\AppData\Local\Temp\ccoo9Cfk.s 			page 7


 276              		.loc 1 74 15
 277 0060 0020     		movs	r0, #0
 278 0062 FFF7FEFF 		bl	PCA9685_Read
 279 0066 0346     		mov	r3, r0
 280 0068 BB73     		strb	r3, [r7, #14]
  75:User/Drive/bsp_pca9685.c **** 
  76:User/Drive/bsp_pca9685.c ****     // ÉčÖĂSLEEPÎ»Ł¬˝řČëËŻĂßÄŁĘ˝ŇÔÔĘĐíĐŢ¸ÄÔ¤·ÖĆµ
  77:User/Drive/bsp_pca9685.c ****     newmode = (oldmode & 0x7F) | 0x10;
 281              		.loc 1 77 32
 282 006a 97F90E30 		ldrsb	r3, [r7, #14]
 283 006e 03F06F03 		and	r3, r3, #111
 284 0072 5BB2     		sxtb	r3, r3
 285 0074 43F01003 		orr	r3, r3, #16
 286 0078 5BB2     		sxtb	r3, r3
 287              		.loc 1 77 13
 288 007a 7B73     		strb	r3, [r7, #13]
  78:User/Drive/bsp_pca9685.c ****     PCA9685_Write(PCA9685_MODE1, newmode);
 289              		.loc 1 78 5
 290 007c 7B7B     		ldrb	r3, [r7, #13]	@ zero_extendqisi2
 291 007e 1946     		mov	r1, r3
 292 0080 0020     		movs	r0, #0
 293 0082 FFF7FEFF 		bl	PCA9685_Write
  79:User/Drive/bsp_pca9685.c **** 
  80:User/Drive/bsp_pca9685.c ****     // Đ´ČëÔ¤·ÖĆµÖµ
  81:User/Drive/bsp_pca9685.c ****     PCA9685_Write(PCA9685_PRESCALE, prescale);
 294              		.loc 1 81 5
 295 0086 FB7B     		ldrb	r3, [r7, #15]	@ zero_extendqisi2
 296 0088 1946     		mov	r1, r3
 297 008a FE20     		movs	r0, #254
 298 008c FFF7FEFF 		bl	PCA9685_Write
  82:User/Drive/bsp_pca9685.c **** 
  83:User/Drive/bsp_pca9685.c ****     // »Ö¸´Ô­Mode1ÖµŁ¬ÍËłöËŻĂß
  84:User/Drive/bsp_pca9685.c ****     PCA9685_Write(PCA9685_MODE1, oldmode);
 299              		.loc 1 84 5
 300 0090 BB7B     		ldrb	r3, [r7, #14]	@ zero_extendqisi2
 301 0092 1946     		mov	r1, r3
 302 0094 0020     		movs	r0, #0
 303 0096 FFF7FEFF 		bl	PCA9685_Write
  85:User/Drive/bsp_pca9685.c **** 
  86:User/Drive/bsp_pca9685.c ****     HAL_Delay(5);   // µČ´ýŐńµ´Ć÷ÎČ¶¨
 304              		.loc 1 86 5
 305 009a 0520     		movs	r0, #5
 306 009c FFF7FEFF 		bl	HAL_Delay
  87:User/Drive/bsp_pca9685.c ****     // żŞĆô×Ô¶ŻµÝÔöŁ¨żÉŃˇŁ©
  88:User/Drive/bsp_pca9685.c ****     PCA9685_Write(PCA9685_MODE1, oldmode | 0xA1);
 307              		.loc 1 88 5
 308 00a0 BB7B     		ldrb	r3, [r7, #14]
 309 00a2 63F05E03 		orn	r3, r3, #94
 310 00a6 DBB2     		uxtb	r3, r3
 311 00a8 1946     		mov	r1, r3
 312 00aa 0020     		movs	r0, #0
 313 00ac FFF7FEFF 		bl	PCA9685_Write
  89:User/Drive/bsp_pca9685.c **** }
 314              		.loc 1 89 1
 315 00b0 00BF     		nop
 316 00b2 1837     		adds	r7, r7, #24
 317              	.LCFI18:
ARM GAS  C:\Users\Administrator\AppData\Local\Temp\ccoo9Cfk.s 			page 8


 318              		.cfi_def_cfa_offset 8
 319 00b4 BD46     		mov	sp, r7
 320              	.LCFI19:
 321              		.cfi_def_cfa_register 13
 322              		@ sp needed
 323 00b6 80BD     		pop	{r7, pc}
 324              	.L13:
 325              		.align	3
 326              	.L12:
 327 00b8 00000000 		.word	0
 328 00bc 0000B040 		.word	1085276160
 329 00c0 00000000 		.word	0
 330 00c4 84D77741 		.word	1098372996
 331              		.cfi_endproc
 332              	.LFE147:
 334              		.section	.text.PCA9685_Init,"ax",%progbits
 335              		.align	1
 336              		.global	PCA9685_Init
 337              		.syntax unified
 338              		.thumb
 339              		.thumb_func
 341              	PCA9685_Init:
 342              	.LFB148:
  90:User/Drive/bsp_pca9685.c **** 
  91:User/Drive/bsp_pca9685.c **** /******************************************************************
  92:User/Drive/bsp_pca9685.c ****  * şŻ Ęý Ăű łĆŁşPCA9685_Init
  93:User/Drive/bsp_pca9685.c ****  * şŻ Ęý Ëµ Ă÷ŁşłőĘĽ»ŻPCA9685Ł¬ÉčÖĂPWMĆµÂĘŁ¬ËůÓĐÍ¨µŔłőĘĽŐĽżŐ±ČÎŞ0
  94:User/Drive/bsp_pca9685.c ****  * ĐÎ    ˛ÎŁşfreq PWMĆµÂĘŁ¨HzŁ©
  95:User/Drive/bsp_pca9685.c ****  * ·µ »Ř ÖµŁşÎŢ
  96:User/Drive/bsp_pca9685.c ****  ******************************************************************/
  97:User/Drive/bsp_pca9685.c **** void PCA9685_Init(float freq)
  98:User/Drive/bsp_pca9685.c **** {
 343              		.loc 1 98 1
 344              		.cfi_startproc
 345              		@ args = 0, pretend = 0, frame = 16
 346              		@ frame_needed = 1, uses_anonymous_args = 0
 347 0000 80B5     		push	{r7, lr}
 348              	.LCFI20:
 349              		.cfi_def_cfa_offset 8
 350              		.cfi_offset 7, -8
 351              		.cfi_offset 14, -4
 352 0002 84B0     		sub	sp, sp, #16
 353              	.LCFI21:
 354              		.cfi_def_cfa_offset 24
 355 0004 00AF     		add	r7, sp, #0
 356              	.LCFI22:
 357              		.cfi_def_cfa_register 7
 358 0006 87ED010A 		vstr.32	s0, [r7, #4]
  99:User/Drive/bsp_pca9685.c ****     // ¸´Î»Mode1ĽÄ´ćĆ÷Ł¨±ŘĐë˛˝ÖčŁ©
 100:User/Drive/bsp_pca9685.c ****     PCA9685_Write(PCA9685_MODE1, 0x00);
 359              		.loc 1 100 5
 360 000a 0021     		movs	r1, #0
 361 000c 0020     		movs	r0, #0
 362 000e FFF7FEFF 		bl	PCA9685_Write
 101:User/Drive/bsp_pca9685.c **** 
 102:User/Drive/bsp_pca9685.c ****     // ÉčÖĂPWMĆµÂĘ
 103:User/Drive/bsp_pca9685.c ****     PCA9685_setFreq(freq);
ARM GAS  C:\Users\Administrator\AppData\Local\Temp\ccoo9Cfk.s 			page 9


 363              		.loc 1 103 5
 364 0012 97ED010A 		vldr.32	s0, [r7, #4]
 365 0016 FFF7FEFF 		bl	PCA9685_setFreq
 366              	.LBB2:
 104:User/Drive/bsp_pca9685.c **** 
 105:User/Drive/bsp_pca9685.c ****     // ˝«ËůÓĐÍ¨µŔµÄŐĽżŐ±ČłőĘĽ»ŻÎŞ0Ł¨OFF = 0Ł©
 106:User/Drive/bsp_pca9685.c ****     for (uint8_t i = 0; i < 16; i++)
 367              		.loc 1 106 18
 368 001a 0023     		movs	r3, #0
 369 001c FB73     		strb	r3, [r7, #15]
 370              		.loc 1 106 5
 371 001e 08E0     		b	.L15
 372              	.L16:
 107:User/Drive/bsp_pca9685.c ****     {
 108:User/Drive/bsp_pca9685.c ****         PCA9685_setPWM(i, 0, 0);
 373              		.loc 1 108 9
 374 0020 FB7B     		ldrb	r3, [r7, #15]	@ zero_extendqisi2
 375 0022 0022     		movs	r2, #0
 376 0024 0021     		movs	r1, #0
 377 0026 1846     		mov	r0, r3
 378 0028 FFF7FEFF 		bl	PCA9685_setPWM
 106:User/Drive/bsp_pca9685.c ****     {
 379              		.loc 1 106 34 discriminator 3
 380 002c FB7B     		ldrb	r3, [r7, #15]	@ zero_extendqisi2
 381 002e 0133     		adds	r3, r3, #1
 382 0030 FB73     		strb	r3, [r7, #15]
 383              	.L15:
 106:User/Drive/bsp_pca9685.c ****     {
 384              		.loc 1 106 27 discriminator 1
 385 0032 FB7B     		ldrb	r3, [r7, #15]	@ zero_extendqisi2
 386 0034 0F2B     		cmp	r3, #15
 387 0036 F3D9     		bls	.L16
 388              	.LBE2:
 109:User/Drive/bsp_pca9685.c ****     }
 110:User/Drive/bsp_pca9685.c **** }
 389              		.loc 1 110 1
 390 0038 00BF     		nop
 391 003a 00BF     		nop
 392 003c 1037     		adds	r7, r7, #16
 393              	.LCFI23:
 394              		.cfi_def_cfa_offset 8
 395 003e BD46     		mov	sp, r7
 396              	.LCFI24:
 397              		.cfi_def_cfa_register 13
 398              		@ sp needed
 399 0040 80BD     		pop	{r7, pc}
 400              		.cfi_endproc
 401              	.LFE148:
 403              		.section	.text.PCA9685_SetDuty,"ax",%progbits
 404              		.align	1
 405              		.global	PCA9685_SetDuty
 406              		.syntax unified
 407              		.thumb
 408              		.thumb_func
 410              	PCA9685_SetDuty:
 411              	.LFB149:
 111:User/Drive/bsp_pca9685.c **** 
ARM GAS  C:\Users\Administrator\AppData\Local\Temp\ccoo9Cfk.s 			page 10


 112:User/Drive/bsp_pca9685.c **** /******************************************************************
 113:User/Drive/bsp_pca9685.c ****  * şŻ Ęý Ăű łĆŁşPCA9685_SetDuty
 114:User/Drive/bsp_pca9685.c ****  * şŻ Ęý Ëµ Ă÷ŁşÉčÖĂÖ¸¶¨Í¨µŔµÄPWMŐĽżŐ±Č
 115:User/Drive/bsp_pca9685.c ****  * ĐÎ    ˛ÎŁşchannel Í¨µŔşĹ 0~15
 116:User/Drive/bsp_pca9685.c ****  *           duty    ŐĽżŐ±Č (0.0 ~ 1.0)
 117:User/Drive/bsp_pca9685.c ****  * ·µ »Ř ÖµŁşÎŢ
 118:User/Drive/bsp_pca9685.c ****  ******************************************************************/
 119:User/Drive/bsp_pca9685.c **** void PCA9685_SetDuty(uint8_t channel, float duty)
 120:User/Drive/bsp_pca9685.c **** {
 412              		.loc 1 120 1
 413              		.cfi_startproc
 414              		@ args = 0, pretend = 0, frame = 16
 415              		@ frame_needed = 1, uses_anonymous_args = 0
 416 0000 80B5     		push	{r7, lr}
 417              	.LCFI25:
 418              		.cfi_def_cfa_offset 8
 419              		.cfi_offset 7, -8
 420              		.cfi_offset 14, -4
 421 0002 84B0     		sub	sp, sp, #16
 422              	.LCFI26:
 423              		.cfi_def_cfa_offset 24
 424 0004 00AF     		add	r7, sp, #0
 425              	.LCFI27:
 426              		.cfi_def_cfa_register 7
 427 0006 0346     		mov	r3, r0
 428 0008 87ED000A 		vstr.32	s0, [r7]
 429 000c FB71     		strb	r3, [r7, #7]
 121:User/Drive/bsp_pca9685.c ****     uint16_t off;
 122:User/Drive/bsp_pca9685.c **** 
 123:User/Drive/bsp_pca9685.c ****     // ĎŢÖĆdutyÔÚşĎ·¨·¶Î§
 124:User/Drive/bsp_pca9685.c ****     if (duty < 0.0f) duty = 0.0f;
 430              		.loc 1 124 8
 431 000e D7ED007A 		vldr.32	s15, [r7]
 432 0012 F5EEC07A 		vcmpe.f32	s15, #0
 433 0016 F1EE10FA 		vmrs	APSR_nzcv, FPSCR
 434 001a 02D5     		bpl	.L18
 435              		.loc 1 124 27 discriminator 1
 436 001c 4FF00003 		mov	r3, #0
 437 0020 3B60     		str	r3, [r7]	@ float
 438              	.L18:
 125:User/Drive/bsp_pca9685.c ****     if (duty > 1.0f) duty = 1.0f;
 439              		.loc 1 125 8
 440 0022 D7ED007A 		vldr.32	s15, [r7]
 441 0026 B7EE007A 		vmov.f32	s14, #1.0e+0
 442 002a F4EEC77A 		vcmpe.f32	s15, s14
 443 002e F1EE10FA 		vmrs	APSR_nzcv, FPSCR
 444 0032 02DD     		ble	.L20
 445              		.loc 1 125 27 discriminator 1
 446 0034 4FF07E53 		mov	r3, #1065353216
 447 0038 3B60     		str	r3, [r7]	@ float
 448              	.L20:
 126:User/Drive/bsp_pca9685.c **** 
 127:User/Drive/bsp_pca9685.c ****     // ĽĆËăOFFĽĆĘýÖµŁ¨12Î»·Ö±ćÂĘŁ©
 128:User/Drive/bsp_pca9685.c ****     off = (uint16_t)(duty * 4096.0f + 0.5f);
 449              		.loc 1 128 27
 450 003a D7ED007A 		vldr.32	s15, [r7]
 451 003e 9FED0F7A 		vldr.32	s14, .L25
ARM GAS  C:\Users\Administrator\AppData\Local\Temp\ccoo9Cfk.s 			page 11


 452 0042 67EE877A 		vmul.f32	s15, s15, s14
 453              		.loc 1 128 37
 454 0046 B6EE007A 		vmov.f32	s14, #5.0e-1
 455 004a 77EE877A 		vadd.f32	s15, s15, s14
 456              		.loc 1 128 9
 457 004e FCEEE77A 		vcvt.u32.f32	s15, s15
 458 0052 17EE903A 		vmov	r3, s15	@ int
 459 0056 FB81     		strh	r3, [r7, #14]	@ movhi
 129:User/Drive/bsp_pca9685.c ****     if (off > 4095) off = 4095;
 460              		.loc 1 129 8
 461 0058 FB89     		ldrh	r3, [r7, #14]
 462 005a B3F5805F 		cmp	r3, #4096
 463 005e 02D3     		bcc	.L22
 464              		.loc 1 129 25 discriminator 1
 465 0060 40F6FF73 		movw	r3, #4095
 466 0064 FB81     		strh	r3, [r7, #14]	@ movhi
 467              	.L22:
 130:User/Drive/bsp_pca9685.c **** 
 131:User/Drive/bsp_pca9685.c ****     // µ÷ÓĂµ×˛ăÉčÖĂşŻĘýŁ¬ONąĚ¶¨ÎŞ0
 132:User/Drive/bsp_pca9685.c ****     PCA9685_setPWM(channel, 0, off);
 468              		.loc 1 132 5
 469 0066 FA89     		ldrh	r2, [r7, #14]
 470 0068 FB79     		ldrb	r3, [r7, #7]	@ zero_extendqisi2
 471 006a 0021     		movs	r1, #0
 472 006c 1846     		mov	r0, r3
 473 006e FFF7FEFF 		bl	PCA9685_setPWM
 133:User/Drive/bsp_pca9685.c **** }...
 474              		.loc 1 133 1
 475 0072 00BF     		nop
 476 0074 1037     		adds	r7, r7, #16
 477              	.LCFI28:
 478              		.cfi_def_cfa_offset 8
 479 0076 BD46     		mov	sp, r7
 480              	.LCFI29:
 481              		.cfi_def_cfa_register 13
 482              		@ sp needed
 483 0078 80BD     		pop	{r7, pc}
 484              	.L26:
 485 007a 00BF     		.align	2
 486              	.L25:
 487 007c 00008045 		.word	1166016512
 488              		.cfi_endproc
 489              	.LFE149:
 491              		.text
 492              	.Letext0:
 493              		.file 2 "C:/arm-toolchain/arm-gnu-toolchain-13.3.rel1-mingw-w64-i686-arm-none-eabi/arm-none-eabi/i
 494              		.file 3 "C:/arm-toolchain/arm-gnu-toolchain-13.3.rel1-mingw-w64-i686-arm-none-eabi/arm-none-eabi/i
 495              		.file 4 "Drivers/CMSIS/Device/ST/STM32H7xx/Include/stm32h723xx.h"
 496              		.file 5 "Drivers/STM32H7xx_HAL_Driver/Inc/stm32h7xx_hal_def.h"
 497              		.file 6 "Drivers/STM32H7xx_HAL_Driver/Inc/stm32h7xx_hal_dma.h"
 498              		.file 7 "Drivers/STM32H7xx_HAL_Driver/Inc/stm32h7xx_hal_i2c.h"
 499              		.file 8 "Core/Inc/i2c.h"
ARM GAS  C:\Users\Administrator\AppData\Local\Temp\ccoo9Cfk.s 			page 12

