ARM GAS  C:\Users\Godwin\AppData\Local\Temp\ccSP7LOn.s 			page 1


   1              		.cpu cortex-m7
   2              		.arch armv7e-m
   3              		.fpu fpv5-d16
   4              		.eabi_attribute 28, 1
   5              		.eabi_attribute 20, 1
   6              		.eabi_attribute 21, 1
   7              		.eabi_attribute 23, 3
   8              		.eabi_attribute 24, 1
   9              		.eabi_attribute 25, 1
  10              		.eabi_attribute 26, 1
  11              		.eabi_attribute 30, 6
  12              		.eabi_attribute 34, 1
  13              		.eabi_attribute 18, 4
  14              		.file	"CAN_receive_send.c"
  15              		.text
  16              	.Ltext0:
  17              		.cfi_sections	.debug_frame
  18              		.file 1 "User/BSP/CAN_receive_send.c"
  19              		.global	RxHeader1
  20              		.section	.bss.RxHeader1,"aw",%nobits
  21              		.align	2
  24              	RxHeader1:
  25 0000 00000000 		.space	40
  25      00000000 
  25      00000000 
  25      00000000 
  25      00000000 
  26              		.global	g_Can1RxData
  27              		.section	.bss.g_Can1RxData,"aw",%nobits
  28              		.align	2
  31              	g_Can1RxData:
  32 0000 00000000 		.space	64
  32      00000000 
  32      00000000 
  32      00000000 
  32      00000000 
  33              		.global	daibaoshan
  34              		.section	.bss.daibaoshan,"aw",%nobits
  35              		.align	2
  38              	daibaoshan:
  39 0000 00000000 		.space	12
  39      00000000 
  39      00000000 
  40              		.global	motor_data
  41              		.section	.bss.motor_data,"aw",%nobits
  42              		.align	3
  45              	motor_data:
  46 0000 00000000 		.space	1848
  46      00000000 
  46      00000000 
  46      00000000 
  46      00000000 
  47              		.section	.text.can_init,"ax",%progbits
  48              		.align	1
  49              		.global	can_init
  50              		.syntax unified
  51              		.thumb
ARM GAS  C:\Users\Godwin\AppData\Local\Temp\ccSP7LOn.s 			page 2


  52              		.thumb_func
  54              	can_init:
  55              	.LFB151:
   1:User/BSP/CAN_receive_send.c **** /**
   2:User/BSP/CAN_receive_send.c ****  * @file CAN_receive_send.c
   3:User/BSP/CAN_receive_send.c ****  * @author Siri (lixirui2017@outlook.com)
   4:User/BSP/CAN_receive_send.c ****  * @brief can bsp˛ă·˘ËÍÓë˝ÓĘÜ
   5:User/BSP/CAN_receive_send.c ****  * @version 0.2
   6:User/BSP/CAN_receive_send.c ****  * @date 2024-10-19
   7:User/BSP/CAN_receive_send.c ****  *
   8:User/BSP/CAN_receive_send.c ****  * @copyright Copyright (c) 2024
   9:User/BSP/CAN_receive_send.c ****  *
  10:User/BSP/CAN_receive_send.c ****  */
  11:User/BSP/CAN_receive_send.c **** #include "can_receive_send.h"
  12:User/BSP/CAN_receive_send.c **** #include "dm4310_drv.h"
  13:User/BSP/CAN_receive_send.c **** #include "string.h"
  14:User/BSP/CAN_receive_send.c **** #include "Robstride04.h"
  15:User/BSP/CAN_receive_send.c **** #include "arm.h"
  16:User/BSP/CAN_receive_send.c **** #include "stdio.h"
  17:User/BSP/CAN_receive_send.c **** #include "FreeRTOS.h"
  18:User/BSP/CAN_receive_send.c **** #include "task.h"
  19:User/BSP/CAN_receive_send.c **** #include "main.h"
  20:User/BSP/CAN_receive_send.c **** #include "cmsis_os.h"
  21:User/BSP/CAN_receive_send.c **** 
  22:User/BSP/CAN_receive_send.c **** /* Private includes ----------------------------------------------------------*/
  23:User/BSP/CAN_receive_send.c **** /* USER CODE BEGIN Includes */
  24:User/BSP/CAN_receive_send.c **** #include "remote_control.h"
  25:User/BSP/CAN_receive_send.c **** #include "music.h"
  26:User/BSP/CAN_receive_send.c **** #include "LED.h"
  27:User/BSP/CAN_receive_send.c **** #include <cmsis_os2.h>
  28:User/BSP/CAN_receive_send.c **** #include "iwdg.h"
  29:User/BSP/CAN_receive_send.c **** #include "buzzer.h"
  30:User/BSP/CAN_receive_send.c **** /* USER CODE END Includes */
  31:User/BSP/CAN_receive_send.c **** 
  32:User/BSP/CAN_receive_send.c **** // ×˘ŇâŁşąýÂËĆ÷ĹäÖĂŇŃÔÚ fdcan.c ÖĐÓÉ CubeMX ÍęłÉŁ¬´Ë´¦˛»ÔŮÖŘ¸´ĹäÖĂ
  33:User/BSP/CAN_receive_send.c **** // ±ľÎÄĽţÖ»¸şÔđĘýľÝĘŐ·˘´¦ŔíşÍÓĂ»§˛ăłőĘĽ»Ż
  34:User/BSP/CAN_receive_send.c **** 
  35:User/BSP/CAN_receive_send.c **** FDCAN_RxHeaderTypeDef RxHeader1; // żÉÄÜÓĂÓÚĆäËűÓĂÍľŁ¬±ŁÁô
  36:User/BSP/CAN_receive_send.c **** uint8_t g_Can1RxData[64];        // ±ŁÁôµ«˝¨Ňé˛»ÔŮĘąÓĂŁ¨¸ÄÓĂľÖ˛ż±äÁżŁ©
  37:User/BSP/CAN_receive_send.c **** float daibaoshan[3];
  38:User/BSP/CAN_receive_send.c **** motor_measure_t motor_data[33];
  39:User/BSP/CAN_receive_send.c **** extern FDCAN_HandleTypeDef hfdcan1;
  40:User/BSP/CAN_receive_send.c **** extern FDCAN_HandleTypeDef hfdcan2;
  41:User/BSP/CAN_receive_send.c **** extern FDCAN_HandleTypeDef hfdcan3;
  42:User/BSP/CAN_receive_send.c **** 
  43:User/BSP/CAN_receive_send.c **** /**
  44:User/BSP/CAN_receive_send.c ****  * @brief łőĘĽ»ŻcanŁ¨ÓĂ»§˛ăłőĘĽ»ŻŁ©
  45:User/BSP/CAN_receive_send.c ****  *        ×˘ŇâŁşąýÂËĆ÷ˇ˘ÖĐ¶Ďˇ˘Ćô¶ŻŇŃÔÚ fdcan.c ÖĐÍęłÉŁ¬±ľşŻĘýÎŢĐčÖŘ¸´µ÷ÓĂ HAL şŻĘýˇŁ
  46:User/BSP/CAN_receive_send.c ****  *        ČôĐč¶îÍâłőĘĽ»ŻŁ¨Čç±äÁżÇĺÁăŁ©Ł¬żÉÔÚ´ËĚíĽÓˇŁ
  47:User/BSP/CAN_receive_send.c ****  */
  48:User/BSP/CAN_receive_send.c **** void can_init(void)
  49:User/BSP/CAN_receive_send.c **** {
  56              		.loc 1 49 1
  57              		.cfi_startproc
  58              		@ args = 0, pretend = 0, frame = 0
  59              		@ frame_needed = 1, uses_anonymous_args = 0
  60              		@ link register save eliminated.
ARM GAS  C:\Users\Godwin\AppData\Local\Temp\ccSP7LOn.s 			page 3


  61 0000 80B4     		push	{r7}
  62              	.LCFI0:
  63              		.cfi_def_cfa_offset 4
  64              		.cfi_offset 7, -4
  65 0002 00AF     		add	r7, sp, #0
  66              	.LCFI1:
  67              		.cfi_def_cfa_register 7
  50:User/BSP/CAN_receive_send.c ****   // ËůÓĐ HAL ĎŕąŘµÄĹäÖĂŇŃÓÉ MX_FDCANx_Init ÍęłÉŁ¬´Ë´¦˛»ÔŮÖŘ¸´
  51:User/BSP/CAN_receive_send.c ****   // żÉĚíĽÓÓĂ»§łőĘĽ»Ż´úÂëŁ¬ŔýČçÇĺÁă±ęÖľĘý×é
  52:User/BSP/CAN_receive_send.c **** }
  68              		.loc 1 52 1
  69 0004 00BF     		nop
  70 0006 BD46     		mov	sp, r7
  71              	.LCFI2:
  72              		.cfi_def_cfa_register 13
  73              		@ sp needed
  74 0008 5DF8047B 		ldr	r7, [sp], #4
  75              	.LCFI3:
  76              		.cfi_restore 7
  77              		.cfi_def_cfa_offset 0
  78 000c 7047     		bx	lr
  79              		.cfi_endproc
  80              	.LFE151:
  82              		.section	.text.get_motor_measure,"ax",%progbits
  83              		.align	1
  84              		.global	get_motor_measure
  85              		.syntax unified
  86              		.thumb
  87              		.thumb_func
  89              	get_motor_measure:
  90              	.LFB152:
  53:User/BSP/CAN_receive_send.c **** 
  54:User/BSP/CAN_receive_send.c **** // damiao µç»úĘýľÝ˝âÎöŁ¨±ŁłÖ˛»±äŁ©
  55:User/BSP/CAN_receive_send.c **** void get_motor_measure(motor_measure_t *ptr, uint8_t data[])
  56:User/BSP/CAN_receive_send.c **** {
  91              		.loc 1 56 1
  92              		.cfi_startproc
  93              		@ args = 0, pretend = 0, frame = 8
  94              		@ frame_needed = 1, uses_anonymous_args = 0
  95              		@ link register save eliminated.
  96 0000 80B4     		push	{r7}
  97              	.LCFI4:
  98              		.cfi_def_cfa_offset 4
  99              		.cfi_offset 7, -4
 100 0002 83B0     		sub	sp, sp, #12
 101              	.LCFI5:
 102              		.cfi_def_cfa_offset 16
 103 0004 00AF     		add	r7, sp, #0
 104              	.LCFI6:
 105              		.cfi_def_cfa_register 7
 106 0006 7860     		str	r0, [r7, #4]
 107 0008 3960     		str	r1, [r7]
  57:User/BSP/CAN_receive_send.c ****   (ptr)->last_ecd = (ptr)->ecd;
 108              		.loc 1 57 26
 109 000a 7B68     		ldr	r3, [r7, #4]
 110 000c 5B88     		ldrh	r3, [r3, #2]
 111 000e 1AB2     		sxth	r2, r3
ARM GAS  C:\Users\Godwin\AppData\Local\Temp\ccSP7LOn.s 			page 4


 112              		.loc 1 57 19
 113 0010 7B68     		ldr	r3, [r7, #4]
 114 0012 5A81     		strh	r2, [r3, #10]	@ movhi
  58:User/BSP/CAN_receive_send.c ****   (ptr)->ecd = (uint16_t)((data)[0] << 8 | (data)[1]);
 115              		.loc 1 58 33
 116 0014 3B68     		ldr	r3, [r7]
 117 0016 1B78     		ldrb	r3, [r3]	@ zero_extendqisi2
 118              		.loc 1 58 42
 119 0018 1BB2     		sxth	r3, r3
 120 001a 1B02     		lsls	r3, r3, #8
 121 001c 1AB2     		sxth	r2, r3
 122              		.loc 1 58 50
 123 001e 3B68     		ldr	r3, [r7]
 124 0020 0133     		adds	r3, r3, #1
 125 0022 1B78     		ldrb	r3, [r3]	@ zero_extendqisi2
 126 0024 1BB2     		sxth	r3, r3
 127              		.loc 1 58 42
 128 0026 1343     		orrs	r3, r3, r2
 129 0028 1BB2     		sxth	r3, r3
 130              		.loc 1 58 16
 131 002a 9AB2     		uxth	r2, r3
 132              		.loc 1 58 14
 133 002c 7B68     		ldr	r3, [r7, #4]
 134 002e 5A80     		strh	r2, [r3, #2]	@ movhi
  59:User/BSP/CAN_receive_send.c ****   (ptr)->speed_rpm = (uint16_t)((data)[2] << 8 | (data)[3]);
 135              		.loc 1 59 39
 136 0030 3B68     		ldr	r3, [r7]
 137 0032 0233     		adds	r3, r3, #2
 138 0034 1B78     		ldrb	r3, [r3]	@ zero_extendqisi2
 139              		.loc 1 59 22
 140 0036 1BB2     		sxth	r3, r3
 141 0038 1B02     		lsls	r3, r3, #8
 142 003a 1AB2     		sxth	r2, r3
 143              		.loc 1 59 56
 144 003c 3B68     		ldr	r3, [r7]
 145 003e 0333     		adds	r3, r3, #3
 146 0040 1B78     		ldrb	r3, [r3]	@ zero_extendqisi2
 147 0042 1BB2     		sxth	r3, r3
 148              		.loc 1 59 48
 149 0044 1343     		orrs	r3, r3, r2
 150 0046 1AB2     		sxth	r2, r3
 151              		.loc 1 59 20
 152 0048 7B68     		ldr	r3, [r7, #4]
 153 004a 9A80     		strh	r2, [r3, #4]	@ movhi
  60:User/BSP/CAN_receive_send.c ****   (ptr)->given_current = (uint16_t)((data)[4] << 8 | (data)[5]);
 154              		.loc 1 60 43
 155 004c 3B68     		ldr	r3, [r7]
 156 004e 0433     		adds	r3, r3, #4
 157 0050 1B78     		ldrb	r3, [r3]	@ zero_extendqisi2
 158              		.loc 1 60 26
 159 0052 1BB2     		sxth	r3, r3
 160 0054 1B02     		lsls	r3, r3, #8
 161 0056 1AB2     		sxth	r2, r3
 162              		.loc 1 60 60
 163 0058 3B68     		ldr	r3, [r7]
 164 005a 0533     		adds	r3, r3, #5
 165 005c 1B78     		ldrb	r3, [r3]	@ zero_extendqisi2
ARM GAS  C:\Users\Godwin\AppData\Local\Temp\ccSP7LOn.s 			page 5


 166 005e 1BB2     		sxth	r3, r3
 167              		.loc 1 60 52
 168 0060 1343     		orrs	r3, r3, r2
 169 0062 1AB2     		sxth	r2, r3
 170              		.loc 1 60 24
 171 0064 7B68     		ldr	r3, [r7, #4]
 172 0066 DA80     		strh	r2, [r3, #6]	@ movhi
  61:User/BSP/CAN_receive_send.c ****   (ptr)->temperate = (data)[6];
 173              		.loc 1 61 20
 174 0068 3B68     		ldr	r3, [r7]
 175 006a 9A79     		ldrb	r2, [r3, #6]	@ zero_extendqisi2
 176 006c 7B68     		ldr	r3, [r7, #4]
 177 006e 1A72     		strb	r2, [r3, #8]
  62:User/BSP/CAN_receive_send.c **** }
 178              		.loc 1 62 1
 179 0070 00BF     		nop
 180 0072 0C37     		adds	r7, r7, #12
 181              	.LCFI7:
 182              		.cfi_def_cfa_offset 4
 183 0074 BD46     		mov	sp, r7
 184              	.LCFI8:
 185              		.cfi_def_cfa_register 13
 186              		@ sp needed
 187 0076 5DF8047B 		ldr	r7, [sp], #4
 188              	.LCFI9:
 189              		.cfi_restore 7
 190              		.cfi_def_cfa_offset 0
 191 007a 7047     		bx	lr
 192              		.cfi_endproc
 193              	.LFE152:
 195              		.section	.text.canx_send_data,"ax",%progbits
 196              		.align	1
 197              		.global	canx_send_data
 198              		.syntax unified
 199              		.thumb
 200              		.thumb_func
 202              	canx_send_data:
 203              	.LFB153:
  63:User/BSP/CAN_receive_send.c **** 
  64:User/BSP/CAN_receive_send.c **** /**
  65:User/BSP/CAN_receive_send.c ****  * @brief ·˘ËÍ±ę×ĽÖˇĘýľÝ
  66:User/BSP/CAN_receive_send.c ****  */
  67:User/BSP/CAN_receive_send.c **** uint8_t canx_send_data(FDCAN_HandleTypeDef *hcan, uint16_t id, uint8_t *data, uint32_t len)
  68:User/BSP/CAN_receive_send.c **** {
 204              		.loc 1 68 1
 205              		.cfi_startproc
 206              		@ args = 0, pretend = 0, frame = 56
 207              		@ frame_needed = 1, uses_anonymous_args = 0
 208 0000 80B5     		push	{r7, lr}
 209              	.LCFI10:
 210              		.cfi_def_cfa_offset 8
 211              		.cfi_offset 7, -8
 212              		.cfi_offset 14, -4
 213 0002 8EB0     		sub	sp, sp, #56
 214              	.LCFI11:
 215              		.cfi_def_cfa_offset 64
 216 0004 00AF     		add	r7, sp, #0
ARM GAS  C:\Users\Godwin\AppData\Local\Temp\ccSP7LOn.s 			page 6


 217              	.LCFI12:
 218              		.cfi_def_cfa_register 7
 219 0006 F860     		str	r0, [r7, #12]
 220 0008 7A60     		str	r2, [r7, #4]
 221 000a 3B60     		str	r3, [r7]
 222 000c 0B46     		mov	r3, r1	@ movhi
 223 000e 7B81     		strh	r3, [r7, #10]	@ movhi
  69:User/BSP/CAN_receive_send.c ****   FDCAN_TxHeaderTypeDef TxHeader;
  70:User/BSP/CAN_receive_send.c ****   TxHeader.Identifier = id;
 224              		.loc 1 70 23
 225 0010 7B89     		ldrh	r3, [r7, #10]
 226 0012 7B61     		str	r3, [r7, #20]
  71:User/BSP/CAN_receive_send.c ****   TxHeader.IdType = FDCAN_STANDARD_ID;
 227              		.loc 1 71 19
 228 0014 0023     		movs	r3, #0
 229 0016 BB61     		str	r3, [r7, #24]
  72:User/BSP/CAN_receive_send.c ****   TxHeader.TxFrameType = FDCAN_DATA_FRAME;
 230              		.loc 1 72 24
 231 0018 0023     		movs	r3, #0
 232 001a FB61     		str	r3, [r7, #28]
  73:User/BSP/CAN_receive_send.c **** 
  74:User/BSP/CAN_receive_send.c ****   // ĘýľÝł¤¶ČÓłÉä
  75:User/BSP/CAN_receive_send.c ****   if (len <= 8)
 233              		.loc 1 75 6
 234 001c 3B68     		ldr	r3, [r7]
 235 001e 082B     		cmp	r3, #8
 236 0020 02D8     		bhi	.L4
  76:User/BSP/CAN_receive_send.c ****     TxHeader.DataLength = FDCAN_DLC_BYTES_8;
 237              		.loc 1 76 25
 238 0022 0823     		movs	r3, #8
 239 0024 3B62     		str	r3, [r7, #32]
 240 0026 25E0     		b	.L5
 241              	.L4:
  77:User/BSP/CAN_receive_send.c ****   else if (len == 12)
 242              		.loc 1 77 11
 243 0028 3B68     		ldr	r3, [r7]
 244 002a 0C2B     		cmp	r3, #12
 245 002c 02D1     		bne	.L6
  78:User/BSP/CAN_receive_send.c ****     TxHeader.DataLength = FDCAN_DLC_BYTES_12;
 246              		.loc 1 78 25
 247 002e 0923     		movs	r3, #9
 248 0030 3B62     		str	r3, [r7, #32]
 249 0032 1FE0     		b	.L5
 250              	.L6:
  79:User/BSP/CAN_receive_send.c ****   else if (len == 16)
 251              		.loc 1 79 11
 252 0034 3B68     		ldr	r3, [r7]
 253 0036 102B     		cmp	r3, #16
 254 0038 02D1     		bne	.L7
  80:User/BSP/CAN_receive_send.c ****     TxHeader.DataLength = FDCAN_DLC_BYTES_16;
 255              		.loc 1 80 25
 256 003a 0A23     		movs	r3, #10
 257 003c 3B62     		str	r3, [r7, #32]
 258 003e 19E0     		b	.L5
 259              	.L7:
  81:User/BSP/CAN_receive_send.c ****   else if (len == 20)
 260              		.loc 1 81 11
ARM GAS  C:\Users\Godwin\AppData\Local\Temp\ccSP7LOn.s 			page 7


 261 0040 3B68     		ldr	r3, [r7]
 262 0042 142B     		cmp	r3, #20
 263 0044 02D1     		bne	.L8
  82:User/BSP/CAN_receive_send.c ****     TxHeader.DataLength = FDCAN_DLC_BYTES_20;
 264              		.loc 1 82 25
 265 0046 0B23     		movs	r3, #11
 266 0048 3B62     		str	r3, [r7, #32]
 267 004a 13E0     		b	.L5
 268              	.L8:
  83:User/BSP/CAN_receive_send.c ****   else if (len == 24)
 269              		.loc 1 83 11
 270 004c 3B68     		ldr	r3, [r7]
 271 004e 182B     		cmp	r3, #24
 272 0050 02D1     		bne	.L9
  84:User/BSP/CAN_receive_send.c ****     TxHeader.DataLength = FDCAN_DLC_BYTES_24;
 273              		.loc 1 84 25
 274 0052 0C23     		movs	r3, #12
 275 0054 3B62     		str	r3, [r7, #32]
 276 0056 0DE0     		b	.L5
 277              	.L9:
  85:User/BSP/CAN_receive_send.c ****   else if (len == 48)
 278              		.loc 1 85 11
 279 0058 3B68     		ldr	r3, [r7]
 280 005a 302B     		cmp	r3, #48
 281 005c 02D1     		bne	.L10
  86:User/BSP/CAN_receive_send.c ****     TxHeader.DataLength = FDCAN_DLC_BYTES_48;
 282              		.loc 1 86 25
 283 005e 0E23     		movs	r3, #14
 284 0060 3B62     		str	r3, [r7, #32]
 285 0062 07E0     		b	.L5
 286              	.L10:
  87:User/BSP/CAN_receive_send.c ****   else if (len == 64)
 287              		.loc 1 87 11
 288 0064 3B68     		ldr	r3, [r7]
 289 0066 402B     		cmp	r3, #64
 290 0068 02D1     		bne	.L11
  88:User/BSP/CAN_receive_send.c ****     TxHeader.DataLength = FDCAN_DLC_BYTES_64;
 291              		.loc 1 88 25
 292 006a 0F23     		movs	r3, #15
 293 006c 3B62     		str	r3, [r7, #32]
 294 006e 01E0     		b	.L5
 295              	.L11:
  89:User/BSP/CAN_receive_send.c ****   else
  90:User/BSP/CAN_receive_send.c ****     return 1; // ˛»Ö§łÖµÄł¤¶Č
 296              		.loc 1 90 12
 297 0070 0123     		movs	r3, #1
 298 0072 16E0     		b	.L14
 299              	.L5:
  91:User/BSP/CAN_receive_send.c **** 
  92:User/BSP/CAN_receive_send.c ****   TxHeader.ErrorStateIndicator = FDCAN_ESI_ACTIVE;
 300              		.loc 1 92 32
 301 0074 0023     		movs	r3, #0
 302 0076 7B62     		str	r3, [r7, #36]
  93:User/BSP/CAN_receive_send.c ****   TxHeader.BitRateSwitch = FDCAN_BRS_OFF;
 303              		.loc 1 93 26
 304 0078 0023     		movs	r3, #0
 305 007a BB62     		str	r3, [r7, #40]
ARM GAS  C:\Users\Godwin\AppData\Local\Temp\ccSP7LOn.s 			page 8


  94:User/BSP/CAN_receive_send.c ****   TxHeader.FDFormat = FDCAN_CLASSIC_CAN;
 306              		.loc 1 94 21
 307 007c 0023     		movs	r3, #0
 308 007e FB62     		str	r3, [r7, #44]
  95:User/BSP/CAN_receive_send.c ****   TxHeader.TxEventFifoControl = FDCAN_NO_TX_EVENTS;
 309              		.loc 1 95 31
 310 0080 0023     		movs	r3, #0
 311 0082 3B63     		str	r3, [r7, #48]
  96:User/BSP/CAN_receive_send.c ****   TxHeader.MessageMarker = 0x00;
 312              		.loc 1 96 26
 313 0084 0023     		movs	r3, #0
 314 0086 7B63     		str	r3, [r7, #52]
  97:User/BSP/CAN_receive_send.c **** 
  98:User/BSP/CAN_receive_send.c ****   if (HAL_FDCAN_AddMessageToTxFifoQ(hcan, &TxHeader, data) != HAL_OK)
 315              		.loc 1 98 7
 316 0088 07F11403 		add	r3, r7, #20
 317 008c 7A68     		ldr	r2, [r7, #4]
 318 008e 1946     		mov	r1, r3
 319 0090 F868     		ldr	r0, [r7, #12]
 320 0092 FFF7FEFF 		bl	HAL_FDCAN_AddMessageToTxFifoQ
 321 0096 0346     		mov	r3, r0
 322              		.loc 1 98 6 discriminator 1
 323 0098 002B     		cmp	r3, #0
 324 009a 01D0     		beq	.L13
  99:User/BSP/CAN_receive_send.c ****   {
 100:User/BSP/CAN_receive_send.c ****     Error_Handler();
 325              		.loc 1 100 5
 326 009c FFF7FEFF 		bl	Error_Handler
 327              	.L13:
 101:User/BSP/CAN_receive_send.c ****   }
 102:User/BSP/CAN_receive_send.c ****   return 0;
 328              		.loc 1 102 10
 329 00a0 0023     		movs	r3, #0
 330              	.L14:
 103:User/BSP/CAN_receive_send.c **** }
 331              		.loc 1 103 1
 332 00a2 1846     		mov	r0, r3
 333 00a4 3837     		adds	r7, r7, #56
 334              	.LCFI13:
 335              		.cfi_def_cfa_offset 8
 336 00a6 BD46     		mov	sp, r7
 337              	.LCFI14:
 338              		.cfi_def_cfa_register 13
 339              		@ sp needed
 340 00a8 80BD     		pop	{r7, pc}
 341              		.cfi_endproc
 342              	.LFE153:
 344              		.section	.text.canx_send_ext_data,"ax",%progbits
 345              		.align	1
 346              		.global	canx_send_ext_data
 347              		.syntax unified
 348              		.thumb
 349              		.thumb_func
 351              	canx_send_ext_data:
 352              	.LFB154:
 104:User/BSP/CAN_receive_send.c **** 
 105:User/BSP/CAN_receive_send.c **** /**
ARM GAS  C:\Users\Godwin\AppData\Local\Temp\ccSP7LOn.s 			page 9


 106:User/BSP/CAN_receive_send.c ****  * @brief ·˘ËÍŔ©ŐąÖˇĘýľÝ
 107:User/BSP/CAN_receive_send.c ****  */
 108:User/BSP/CAN_receive_send.c **** uint8_t canx_send_ext_data(FDCAN_HandleTypeDef *hcan, uint32_t id, uint8_t *data, uint32_t len)
 109:User/BSP/CAN_receive_send.c **** {
 353              		.loc 1 109 1
 354              		.cfi_startproc
 355              		@ args = 0, pretend = 0, frame = 56
 356              		@ frame_needed = 1, uses_anonymous_args = 0
 357 0000 80B5     		push	{r7, lr}
 358              	.LCFI15:
 359              		.cfi_def_cfa_offset 8
 360              		.cfi_offset 7, -8
 361              		.cfi_offset 14, -4
 362 0002 8EB0     		sub	sp, sp, #56
 363              	.LCFI16:
 364              		.cfi_def_cfa_offset 64
 365 0004 00AF     		add	r7, sp, #0
 366              	.LCFI17:
 367              		.cfi_def_cfa_register 7
 368 0006 F860     		str	r0, [r7, #12]
 369 0008 B960     		str	r1, [r7, #8]
 370 000a 7A60     		str	r2, [r7, #4]
 371 000c 3B60     		str	r3, [r7]
 110:User/BSP/CAN_receive_send.c ****   FDCAN_TxHeaderTypeDef TxHeader;
 111:User/BSP/CAN_receive_send.c ****   TxHeader.Identifier = id;
 372              		.loc 1 111 23
 373 000e BB68     		ldr	r3, [r7, #8]
 374 0010 7B61     		str	r3, [r7, #20]
 112:User/BSP/CAN_receive_send.c ****   TxHeader.IdType = FDCAN_EXTENDED_ID;
 375              		.loc 1 112 19
 376 0012 4FF08043 		mov	r3, #1073741824
 377 0016 BB61     		str	r3, [r7, #24]
 113:User/BSP/CAN_receive_send.c ****   TxHeader.TxFrameType = FDCAN_DATA_FRAME;
 378              		.loc 1 113 24
 379 0018 0023     		movs	r3, #0
 380 001a FB61     		str	r3, [r7, #28]
 114:User/BSP/CAN_receive_send.c **** 
 115:User/BSP/CAN_receive_send.c ****   // ĘýľÝł¤¶ČÓłÉäŁ¨Í¬±ę×ĽÖˇŁ©
 116:User/BSP/CAN_receive_send.c ****   if (len <= 8)
 381              		.loc 1 116 6
 382 001c 3B68     		ldr	r3, [r7]
 383 001e 082B     		cmp	r3, #8
 384 0020 02D8     		bhi	.L16
 117:User/BSP/CAN_receive_send.c ****     TxHeader.DataLength = FDCAN_DLC_BYTES_8;
 385              		.loc 1 117 25
 386 0022 0823     		movs	r3, #8
 387 0024 3B62     		str	r3, [r7, #32]
 388 0026 25E0     		b	.L17
 389              	.L16:
 118:User/BSP/CAN_receive_send.c ****   else if (len == 12)
 390              		.loc 1 118 11
 391 0028 3B68     		ldr	r3, [r7]
 392 002a 0C2B     		cmp	r3, #12
 393 002c 02D1     		bne	.L18
 119:User/BSP/CAN_receive_send.c ****     TxHeader.DataLength = FDCAN_DLC_BYTES_12;
 394              		.loc 1 119 25
 395 002e 0923     		movs	r3, #9
ARM GAS  C:\Users\Godwin\AppData\Local\Temp\ccSP7LOn.s 			page 10


 396 0030 3B62     		str	r3, [r7, #32]
 397 0032 1FE0     		b	.L17
 398              	.L18:
 120:User/BSP/CAN_receive_send.c ****   else if (len == 16)
 399              		.loc 1 120 11
 400 0034 3B68     		ldr	r3, [r7]
 401 0036 102B     		cmp	r3, #16
 402 0038 02D1     		bne	.L19
 121:User/BSP/CAN_receive_send.c ****     TxHeader.DataLength = FDCAN_DLC_BYTES_16;
 403              		.loc 1 121 25
 404 003a 0A23     		movs	r3, #10
 405 003c 3B62     		str	r3, [r7, #32]
 406 003e 19E0     		b	.L17
 407              	.L19:
 122:User/BSP/CAN_receive_send.c ****   else if (len == 20)
 408              		.loc 1 122 11
 409 0040 3B68     		ldr	r3, [r7]
 410 0042 142B     		cmp	r3, #20
 411 0044 02D1     		bne	.L20
 123:User/BSP/CAN_receive_send.c ****     TxHeader.DataLength = FDCAN_DLC_BYTES_20;
 412              		.loc 1 123 25
 413 0046 0B23     		movs	r3, #11
 414 0048 3B62     		str	r3, [r7, #32]
 415 004a 13E0     		b	.L17
 416              	.L20:
 124:User/BSP/CAN_receive_send.c ****   else if (len == 24)
 417              		.loc 1 124 11
 418 004c 3B68     		ldr	r3, [r7]
 419 004e 182B     		cmp	r3, #24
 420 0050 02D1     		bne	.L21
 125:User/BSP/CAN_receive_send.c ****     TxHeader.DataLength = FDCAN_DLC_BYTES_24;
 421              		.loc 1 125 25
 422 0052 0C23     		movs	r3, #12
 423 0054 3B62     		str	r3, [r7, #32]
 424 0056 0DE0     		b	.L17
 425              	.L21:
 126:User/BSP/CAN_receive_send.c ****   else if (len == 48)
 426              		.loc 1 126 11
 427 0058 3B68     		ldr	r3, [r7]
 428 005a 302B     		cmp	r3, #48
 429 005c 02D1     		bne	.L22
 127:User/BSP/CAN_receive_send.c ****     TxHeader.DataLength = FDCAN_DLC_BYTES_48;
 430              		.loc 1 127 25
 431 005e 0E23     		movs	r3, #14
 432 0060 3B62     		str	r3, [r7, #32]
 433 0062 07E0     		b	.L17
 434              	.L22:
 128:User/BSP/CAN_receive_send.c ****   else if (len == 64)
 435              		.loc 1 128 11
 436 0064 3B68     		ldr	r3, [r7]
 437 0066 402B     		cmp	r3, #64
 438 0068 02D1     		bne	.L23
 129:User/BSP/CAN_receive_send.c ****     TxHeader.DataLength = FDCAN_DLC_BYTES_64;
 439              		.loc 1 129 25
 440 006a 0F23     		movs	r3, #15
 441 006c 3B62     		str	r3, [r7, #32]
 442 006e 01E0     		b	.L17
ARM GAS  C:\Users\Godwin\AppData\Local\Temp\ccSP7LOn.s 			page 11


 443              	.L23:
 130:User/BSP/CAN_receive_send.c ****   else
 131:User/BSP/CAN_receive_send.c ****     return 1;
 444              		.loc 1 131 12
 445 0070 0123     		movs	r3, #1
 446 0072 16E0     		b	.L26
 447              	.L17:
 132:User/BSP/CAN_receive_send.c **** 
 133:User/BSP/CAN_receive_send.c ****   TxHeader.ErrorStateIndicator = FDCAN_ESI_ACTIVE;
 448              		.loc 1 133 32
 449 0074 0023     		movs	r3, #0
 450 0076 7B62     		str	r3, [r7, #36]
 134:User/BSP/CAN_receive_send.c ****   TxHeader.BitRateSwitch = FDCAN_BRS_OFF;
 451              		.loc 1 134 26
 452 0078 0023     		movs	r3, #0
 453 007a BB62     		str	r3, [r7, #40]
 135:User/BSP/CAN_receive_send.c ****   TxHeader.FDFormat = FDCAN_CLASSIC_CAN;
 454              		.loc 1 135 21
 455 007c 0023     		movs	r3, #0
 456 007e FB62     		str	r3, [r7, #44]
 136:User/BSP/CAN_receive_send.c ****   TxHeader.TxEventFifoControl = FDCAN_NO_TX_EVENTS;
 457              		.loc 1 136 31
 458 0080 0023     		movs	r3, #0
 459 0082 3B63     		str	r3, [r7, #48]
 137:User/BSP/CAN_receive_send.c ****   TxHeader.MessageMarker = 0x00;
 460              		.loc 1 137 26
 461 0084 0023     		movs	r3, #0
 462 0086 7B63     		str	r3, [r7, #52]
 138:User/BSP/CAN_receive_send.c **** 
 139:User/BSP/CAN_receive_send.c ****   if (HAL_FDCAN_AddMessageToTxFifoQ(hcan, &TxHeader, data) != HAL_OK)
 463              		.loc 1 139 7
 464 0088 07F11403 		add	r3, r7, #20
 465 008c 7A68     		ldr	r2, [r7, #4]
 466 008e 1946     		mov	r1, r3
 467 0090 F868     		ldr	r0, [r7, #12]
 468 0092 FFF7FEFF 		bl	HAL_FDCAN_AddMessageToTxFifoQ
 469 0096 0346     		mov	r3, r0
 470              		.loc 1 139 6 discriminator 1
 471 0098 002B     		cmp	r3, #0
 472 009a 01D0     		beq	.L25
 140:User/BSP/CAN_receive_send.c ****   {
 141:User/BSP/CAN_receive_send.c ****     Error_Handler();
 473              		.loc 1 141 5
 474 009c FFF7FEFF 		bl	Error_Handler
 475              	.L25:
 142:User/BSP/CAN_receive_send.c ****   }
 143:User/BSP/CAN_receive_send.c ****   return 0;
 476              		.loc 1 143 10
 477 00a0 0023     		movs	r3, #0
 478              	.L26:
 144:User/BSP/CAN_receive_send.c **** }
 479              		.loc 1 144 1
 480 00a2 1846     		mov	r0, r3
 481 00a4 3837     		adds	r7, r7, #56
 482              	.LCFI18:
 483              		.cfi_def_cfa_offset 8
 484 00a6 BD46     		mov	sp, r7
ARM GAS  C:\Users\Godwin\AppData\Local\Temp\ccSP7LOn.s 			page 12


 485              	.LCFI19:
 486              		.cfi_def_cfa_register 13
 487              		@ sp needed
 488 00a8 80BD     		pop	{r7, pc}
 489              		.cfi_endproc
 490              	.LFE154:
 492              		.section	.text.fdcanx_receive,"ax",%progbits
 493              		.align	1
 494              		.global	fdcanx_receive
 495              		.syntax unified
 496              		.thumb
 497              		.thumb_func
 499              	fdcanx_receive:
 500              	.LFB155:
 145:User/BSP/CAN_receive_send.c **** 
 146:User/BSP/CAN_receive_send.c **** /**
 147:User/BSP/CAN_receive_send.c ****  * @brief ˝ÓĘŐĘýľÝŁ¨ľÉşŻĘýŁ¬˛»ÔŮÔÚ»Řµ÷ÖĐĘąÓĂŁ¬±ŁÁôĽćČÝĐÔŁ©
 148:User/BSP/CAN_receive_send.c ****  *        ×˘ŇâŁş´ËşŻĘý·µ»ŘÖµÎŢŇâŇĺŁ¬˝¨Ňé˛»ŇŞĘąÓĂ
 149:User/BSP/CAN_receive_send.c ****  */
 150:User/BSP/CAN_receive_send.c **** uint8_t fdcanx_receive(FDCAN_HandleTypeDef *hfdcan, uint32_t RXFIFO, FDCAN_RxHeaderTypeDef *fdcan_R
 151:User/BSP/CAN_receive_send.c **** {
 501              		.loc 1 151 1
 502              		.cfi_startproc
 503              		@ args = 0, pretend = 0, frame = 16
 504              		@ frame_needed = 1, uses_anonymous_args = 0
 505 0000 80B5     		push	{r7, lr}
 506              	.LCFI20:
 507              		.cfi_def_cfa_offset 8
 508              		.cfi_offset 7, -8
 509              		.cfi_offset 14, -4
 510 0002 84B0     		sub	sp, sp, #16
 511              	.LCFI21:
 512              		.cfi_def_cfa_offset 24
 513 0004 00AF     		add	r7, sp, #0
 514              	.LCFI22:
 515              		.cfi_def_cfa_register 7
 516 0006 F860     		str	r0, [r7, #12]
 517 0008 B960     		str	r1, [r7, #8]
 518 000a 7A60     		str	r2, [r7, #4]
 519 000c 3B60     		str	r3, [r7]
 152:User/BSP/CAN_receive_send.c ****   if (HAL_FDCAN_GetRxMessage(hfdcan, RXFIFO, fdcan_RxHeader, buf) != HAL_OK)
 520              		.loc 1 152 7
 521 000e 3B68     		ldr	r3, [r7]
 522 0010 7A68     		ldr	r2, [r7, #4]
 523 0012 B968     		ldr	r1, [r7, #8]
 524 0014 F868     		ldr	r0, [r7, #12]
 525 0016 FFF7FEFF 		bl	HAL_FDCAN_GetRxMessage
 526 001a 0346     		mov	r3, r0
 527              		.loc 1 152 6 discriminator 1
 528 001c 002B     		cmp	r3, #0
 529 001e 01D0     		beq	.L28
 153:User/BSP/CAN_receive_send.c ****     return 0;
 530              		.loc 1 153 12
 531 0020 0023     		movs	r3, #0
 532 0022 00E0     		b	.L29
 533              	.L28:
 154:User/BSP/CAN_receive_send.c ****   // Ô­·µ»Ř DataLength>>16 ĘÇ´íÎóµÄŁ¬¸ÄÎŞ·µ»Ř 0 »ň DLC Öµ
ARM GAS  C:\Users\Godwin\AppData\Local\Temp\ccSP7LOn.s 			page 13


 155:User/BSP/CAN_receive_send.c ****   return 0;
 534              		.loc 1 155 10
 535 0024 0023     		movs	r3, #0
 536              	.L29:
 156:User/BSP/CAN_receive_send.c **** }
 537              		.loc 1 156 1
 538 0026 1846     		mov	r0, r3
 539 0028 1037     		adds	r7, r7, #16
 540              	.LCFI23:
 541              		.cfi_def_cfa_offset 8
 542 002a BD46     		mov	sp, r7
 543              	.LCFI24:
 544              		.cfi_def_cfa_register 13
 545              		@ sp needed
 546 002c 80BD     		pop	{r7, pc}
 547              		.cfi_endproc
 548              	.LFE155:
 550              		.global	__aeabi_l2f
 551              		.global	__aeabi_f2lz
 552              		.section	.text.process_motor_data,"ax",%progbits
 553              		.align	1
 554              		.global	process_motor_data
 555              		.syntax unified
 556              		.thumb
 557              		.thumb_func
 559              	process_motor_data:
 560              	.LFB156:
 157:User/BSP/CAN_receive_send.c **** 
 158:User/BSP/CAN_receive_send.c **** /**
 159:User/BSP/CAN_receive_send.c ****  * @brief µç»úĘýľÝ´¦ŔíŁ¨Č¦ĘýŔŰĽÓŁ©
 160:User/BSP/CAN_receive_send.c ****  */
 161:User/BSP/CAN_receive_send.c **** void process_motor_data(motor_measure_t *motor_data)
 162:User/BSP/CAN_receive_send.c **** {
 561              		.loc 1 162 1
 562              		.cfi_startproc
 563              		@ args = 0, pretend = 0, frame = 8
 564              		@ frame_needed = 1, uses_anonymous_args = 0
 565 0000 2DE9B043 		push	{r4, r5, r7, r8, r9, lr}
 566              	.LCFI25:
 567              		.cfi_def_cfa_offset 24
 568              		.cfi_offset 4, -24
 569              		.cfi_offset 5, -20
 570              		.cfi_offset 7, -16
 571              		.cfi_offset 8, -12
 572              		.cfi_offset 9, -8
 573              		.cfi_offset 14, -4
 574 0004 82B0     		sub	sp, sp, #8
 575              	.LCFI26:
 576              		.cfi_def_cfa_offset 32
 577 0006 00AF     		add	r7, sp, #0
 578              	.LCFI27:
 579              		.cfi_def_cfa_register 7
 580 0008 7860     		str	r0, [r7, #4]
 163:User/BSP/CAN_receive_send.c ****   if (motor_data->last_ecd > 7000 && motor_data->ecd < 1000)
 581              		.loc 1 163 17
 582 000a 7B68     		ldr	r3, [r7, #4]
 583 000c B3F90A30 		ldrsh	r3, [r3, #10]
ARM GAS  C:\Users\Godwin\AppData\Local\Temp\ccSP7LOn.s 			page 14


 584              		.loc 1 163 6
 585 0010 41F65832 		movw	r2, #7000
 586 0014 9342     		cmp	r3, r2
 587 0016 2CDD     		ble	.L31
 588              		.loc 1 163 48 discriminator 1
 589 0018 7B68     		ldr	r3, [r7, #4]
 590 001a 5B88     		ldrh	r3, [r3, #2]
 591              		.loc 1 163 35 discriminator 1
 592 001c B3F57A7F 		cmp	r3, #1000
 593 0020 27D2     		bcs	.L31
 164:User/BSP/CAN_receive_send.c ****     motor_data->ecd_cnt += ((ECD_MAX - motor_data->last_ecd) + motor_data->ecd);
 594              		.loc 1 164 15
 595 0022 7B68     		ldr	r3, [r7, #4]
 596 0024 D3E90423 		ldrd	r2, [r3, #16]
 597              		.loc 1 164 25
 598 0028 1046     		mov	r0, r2
 599 002a 1946     		mov	r1, r3
 600 002c FFF7FEFF 		bl	__aeabi_l2f
 601 0030 06EE900A 		vmov	s13, r0
 602              		.loc 1 164 50
 603 0034 7B68     		ldr	r3, [r7, #4]
 604 0036 B3F90A30 		ldrsh	r3, [r3, #10]
 605              		.loc 1 164 38
 606 003a 07EE903A 		vmov	s15, r3	@ int
 607 003e F8EEE77A 		vcvt.f32.s32	s15, s15
 608 0042 9FED337A 		vldr.32	s14, .L34
 609 0046 37EE677A 		vsub.f32	s14, s14, s15
 610              		.loc 1 164 74
 611 004a 7B68     		ldr	r3, [r7, #4]
 612 004c 5B88     		ldrh	r3, [r3, #2]
 613 004e 07EE903A 		vmov	s15, r3	@ int
 614              		.loc 1 164 62
 615 0052 F8EEE77A 		vcvt.f32.s32	s15, s15
 616 0056 77EE277A 		vadd.f32	s15, s14, s15
 617              		.loc 1 164 25
 618 005a 76EEA77A 		vadd.f32	s15, s13, s15
 619 005e 17EE900A 		vmov	r0, s15
 620 0062 FFF7FEFF 		bl	__aeabi_f2lz
 621 0066 0246     		mov	r2, r0
 622 0068 0B46     		mov	r3, r1
 623 006a 7968     		ldr	r1, [r7, #4]
 624 006c C1E90423 		strd	r2, [r1, #16]
 625 0070 48E0     		b	.L32
 626              	.L31:
 165:User/BSP/CAN_receive_send.c ****   else if (motor_data->last_ecd < 1000 && motor_data->ecd > 7000)
 627              		.loc 1 165 22
 628 0072 7B68     		ldr	r3, [r7, #4]
 629 0074 B3F90A30 		ldrsh	r3, [r3, #10]
 630              		.loc 1 165 11
 631 0078 B3F57A7F 		cmp	r3, #1000
 632 007c 2DDA     		bge	.L33
 633              		.loc 1 165 53 discriminator 1
 634 007e 7B68     		ldr	r3, [r7, #4]
 635 0080 5B88     		ldrh	r3, [r3, #2]
 636              		.loc 1 165 40 discriminator 1
 637 0082 41F65832 		movw	r2, #7000
 638 0086 9342     		cmp	r3, r2
ARM GAS  C:\Users\Godwin\AppData\Local\Temp\ccSP7LOn.s 			page 15


 639 0088 27D9     		bls	.L33
 166:User/BSP/CAN_receive_send.c ****     motor_data->ecd_cnt -= ((ECD_MAX - motor_data->ecd) + motor_data->last_ecd);
 640              		.loc 1 166 15
 641 008a 7B68     		ldr	r3, [r7, #4]
 642 008c D3E90423 		ldrd	r2, [r3, #16]
 643              		.loc 1 166 25
 644 0090 1046     		mov	r0, r2
 645 0092 1946     		mov	r1, r3
 646 0094 FFF7FEFF 		bl	__aeabi_l2f
 647 0098 06EE900A 		vmov	s13, r0
 648              		.loc 1 166 50
 649 009c 7B68     		ldr	r3, [r7, #4]
 650 009e 5B88     		ldrh	r3, [r3, #2]
 651 00a0 07EE903A 		vmov	s15, r3	@ int
 652              		.loc 1 166 38
 653 00a4 F8EEE77A 		vcvt.f32.s32	s15, s15
 654 00a8 9FED197A 		vldr.32	s14, .L34
 655 00ac 37EE677A 		vsub.f32	s14, s14, s15
 656              		.loc 1 166 69
 657 00b0 7B68     		ldr	r3, [r7, #4]
 658 00b2 B3F90A30 		ldrsh	r3, [r3, #10]
 659              		.loc 1 166 57
 660 00b6 07EE903A 		vmov	s15, r3	@ int
 661 00ba F8EEE77A 		vcvt.f32.s32	s15, s15
 662 00be 77EE277A 		vadd.f32	s15, s14, s15
 663              		.loc 1 166 25
 664 00c2 76EEE77A 		vsub.f32	s15, s13, s15
 665 00c6 17EE900A 		vmov	r0, s15
 666 00ca FFF7FEFF 		bl	__aeabi_f2lz
 667 00ce 0246     		mov	r2, r0
 668 00d0 0B46     		mov	r3, r1
 669 00d2 7968     		ldr	r1, [r7, #4]
 670 00d4 C1E90423 		strd	r2, [r1, #16]
 671 00d8 14E0     		b	.L32
 672              	.L33:
 167:User/BSP/CAN_receive_send.c ****   else
 168:User/BSP/CAN_receive_send.c ****     motor_data->ecd_cnt += (motor_data->ecd - motor_data->last_ecd);
 673              		.loc 1 168 15
 674 00da 7B68     		ldr	r3, [r7, #4]
 675 00dc D3E90423 		ldrd	r2, [r3, #16]
 676              		.loc 1 168 39
 677 00e0 7968     		ldr	r1, [r7, #4]
 678 00e2 4988     		ldrh	r1, [r1, #2]
 679 00e4 0846     		mov	r0, r1
 680              		.loc 1 168 57
 681 00e6 7968     		ldr	r1, [r7, #4]
 682 00e8 B1F90A10 		ldrsh	r1, [r1, #10]
 683              		.loc 1 168 45
 684 00ec 411A     		subs	r1, r0, r1
 685 00ee C817     		asrs	r0, r1, #31
 686 00f0 0C46     		mov	r4, r1
 687 00f2 0546     		mov	r5, r0
 688              		.loc 1 168 25
 689 00f4 12EB0408 		adds	r8, r2, r4
 690 00f8 43EB0509 		adc	r9, r3, r5
 691 00fc 7B68     		ldr	r3, [r7, #4]
 692 00fe C3E90489 		strd	r8, [r3, #16]
ARM GAS  C:\Users\Godwin\AppData\Local\Temp\ccSP7LOn.s 			page 16


 169:User/BSP/CAN_receive_send.c **** }
 693              		.loc 1 169 1
 694 0102 00BF     		nop
 695              	.L32:
 696 0104 00BF     		nop
 697 0106 0837     		adds	r7, r7, #8
 698              	.LCFI28:
 699              		.cfi_def_cfa_offset 24
 700 0108 BD46     		mov	sp, r7
 701              	.LCFI29:
 702              		.cfi_def_cfa_register 13
 703              		@ sp needed
 704 010a BDE8B083 		pop	{r4, r5, r7, r8, r9, pc}
 705              	.L35:
 706 010e 00BF     		.align	2
 707              	.L34:
 708 0110 00000046 		.word	1174405120
 709              		.cfi_endproc
 710              	.LFE156:
 712              		.section	.text.HAL_FDCAN_RxFifo0Callback,"ax",%progbits
 713              		.align	1
 714              		.global	HAL_FDCAN_RxFifo0Callback
 715              		.syntax unified
 716              		.thumb
 717              		.thumb_func
 719              	HAL_FDCAN_RxFifo0Callback:
 720              	.LFB157:
 170:User/BSP/CAN_receive_send.c **** 
 171:User/BSP/CAN_receive_send.c **** /**
 172:User/BSP/CAN_receive_send.c ****  * @brief CAN˝ÓĘŐ»Řµ÷Ł¨FDCAN IT0 ÖĐ¶ĎŁ©
 173:User/BSP/CAN_receive_send.c ****  *        şËĐÄĐŢ¸ÄŁşŃ­»·¶ÁČˇ FIFO Ö±µ˝żŐŁ¬±ÜĂâŇçłö
 174:User/BSP/CAN_receive_send.c ****  */
 175:User/BSP/CAN_receive_send.c **** void HAL_FDCAN_RxFifo0Callback(FDCAN_HandleTypeDef *hfdcan, uint32_t RxFifo0ITs)
 176:User/BSP/CAN_receive_send.c **** {
 721              		.loc 1 176 1
 722              		.cfi_startproc
 723              		@ args = 0, pretend = 0, frame = 64
 724              		@ frame_needed = 1, uses_anonymous_args = 0
 725 0000 80B5     		push	{r7, lr}
 726              	.LCFI30:
 727              		.cfi_def_cfa_offset 8
 728              		.cfi_offset 7, -8
 729              		.cfi_offset 14, -4
 730 0002 90B0     		sub	sp, sp, #64
 731              	.LCFI31:
 732              		.cfi_def_cfa_offset 72
 733 0004 00AF     		add	r7, sp, #0
 734              	.LCFI32:
 735              		.cfi_def_cfa_register 7
 736 0006 7860     		str	r0, [r7, #4]
 737 0008 3960     		str	r1, [r7]
 177:User/BSP/CAN_receive_send.c ****   FDCAN_RxHeaderTypeDef rx_header;
 178:User/BSP/CAN_receive_send.c ****   uint8_t rx_data[8];
 179:User/BSP/CAN_receive_send.c **** 
 180:User/BSP/CAN_receive_send.c ****   if ((RxFifo0ITs & FDCAN_IT_RX_FIFO0_NEW_MESSAGE) == 0)
 738              		.loc 1 180 19
 739 000a 3B68     		ldr	r3, [r7]
ARM GAS  C:\Users\Godwin\AppData\Local\Temp\ccSP7LOn.s 			page 17


 740 000c 03F00103 		and	r3, r3, #1
 741              		.loc 1 180 6
 742 0010 002B     		cmp	r3, #0
 743 0012 71D0     		beq	.L53
 181:User/BSP/CAN_receive_send.c ****     return;
 182:User/BSP/CAN_receive_send.c **** 
 183:User/BSP/CAN_receive_send.c ****   // Ń­»·¶ÁČˇ FIFO0 ÖĐËůÓĐ´ý´¦ŔíĎűĎ˘
 184:User/BSP/CAN_receive_send.c ****   while (HAL_FDCAN_GetRxMessage(hfdcan, FDCAN_RX_FIFO0, &rx_header, rx_data) == HAL_OK)
 744              		.loc 1 184 9
 745 0014 64E0     		b	.L39
 746              	.L52:
 185:User/BSP/CAN_receive_send.c ****   {
 186:User/BSP/CAN_receive_send.c ****     // ¸ůľÝ CAN ĘµŔý·Ö·˘´¦Ŕí
 187:User/BSP/CAN_receive_send.c ****     if (hfdcan->Instance == FDCAN1)
 747              		.loc 1 187 15
 748 0016 7B68     		ldr	r3, [r7, #4]
 749 0018 1B68     		ldr	r3, [r3]
 750              		.loc 1 187 8
 751 001a 394A     		ldr	r2, .L56
 752 001c 9342     		cmp	r3, r2
 753 001e 09D1     		bne	.L40
 188:User/BSP/CAN_receive_send.c ****     {
 189:User/BSP/CAN_receive_send.c ****       switch (rx_header.Identifier)
 754              		.loc 1 189 24
 755 0020 7B69     		ldr	r3, [r7, #20]
 756              		.loc 1 189 7
 757 0022 052B     		cmp	r3, #5
 758 0024 59D1     		bne	.L54
 190:User/BSP/CAN_receive_send.c ****       {
 191:User/BSP/CAN_receive_send.c ****       case 5:
 192:User/BSP/CAN_receive_send.c ****         damiao_fbdata(&arm_motor[Motor1], rx_data);
 759              		.loc 1 192 9
 760 0026 07F10C03 		add	r3, r7, #12
 761 002a 1946     		mov	r1, r3
 762 002c 3548     		ldr	r0, .L56+4
 763 002e FFF7FEFF 		bl	damiao_fbdata
 193:User/BSP/CAN_receive_send.c **** 
 194:User/BSP/CAN_receive_send.c ****         break;
 764              		.loc 1 194 9
 765 0032 55E0     		b	.L39
 766              	.L40:
 195:User/BSP/CAN_receive_send.c ****       default:
 196:User/BSP/CAN_receive_send.c ****         break;
 197:User/BSP/CAN_receive_send.c ****       }
 198:User/BSP/CAN_receive_send.c ****     }
 199:User/BSP/CAN_receive_send.c ****     else if (hfdcan->Instance == FDCAN2)
 767              		.loc 1 199 20
 768 0034 7B68     		ldr	r3, [r7, #4]
 769 0036 1B68     		ldr	r3, [r3]
 770              		.loc 1 199 13
 771 0038 334A     		ldr	r2, .L56+8
 772 003a 9342     		cmp	r3, r2
 773 003c 50D1     		bne	.L39
 200:User/BSP/CAN_receive_send.c ****     {
 201:User/BSP/CAN_receive_send.c ****       if (rx_header.IdType == FDCAN_STANDARD_ID)
 774              		.loc 1 201 20
 775 003e BB69     		ldr	r3, [r7, #24]
ARM GAS  C:\Users\Godwin\AppData\Local\Temp\ccSP7LOn.s 			page 18


 776              		.loc 1 201 10
 777 0040 002B     		cmp	r3, #0
 778 0042 1ED1     		bne	.L44
 202:User/BSP/CAN_receive_send.c ****       {
 203:User/BSP/CAN_receive_send.c ****         switch (rx_header.Identifier)
 779              		.loc 1 203 26
 780 0044 7B69     		ldr	r3, [r7, #20]
 781              		.loc 1 203 9
 782 0046 062B     		cmp	r3, #6
 783 0048 14D0     		beq	.L45
 784 004a 062B     		cmp	r3, #6
 785 004c 47D8     		bhi	.L55
 786 004e 042B     		cmp	r3, #4
 787 0050 02D0     		beq	.L47
 788 0052 052B     		cmp	r3, #5
 789 0054 07D0     		beq	.L48
 204:User/BSP/CAN_receive_send.c ****         {
 205:User/BSP/CAN_receive_send.c **** 
 206:User/BSP/CAN_receive_send.c ****         case 4:
 207:User/BSP/CAN_receive_send.c ****           damiao_fbdata(&arm_motor[Motor4], rx_data);
 208:User/BSP/CAN_receive_send.c ****           break;
 209:User/BSP/CAN_receive_send.c ****         case 5:
 210:User/BSP/CAN_receive_send.c ****           damiao_fbdata(&arm_motor[Motor5], rx_data);
 211:User/BSP/CAN_receive_send.c ****           break;
 212:User/BSP/CAN_receive_send.c ****         case 6:
 213:User/BSP/CAN_receive_send.c ****           damiao_fbdata(&arm_motor[Motor6], rx_data);
 214:User/BSP/CAN_receive_send.c ****           break;
 215:User/BSP/CAN_receive_send.c ****         default:
 216:User/BSP/CAN_receive_send.c ****           break;
 790              		.loc 1 216 11
 791 0056 42E0     		b	.L55
 792              	.L47:
 207:User/BSP/CAN_receive_send.c ****           break;
 793              		.loc 1 207 11
 794 0058 07F10C03 		add	r3, r7, #12
 795 005c 1946     		mov	r1, r3
 796 005e 2B48     		ldr	r0, .L56+12
 797 0060 FFF7FEFF 		bl	damiao_fbdata
 208:User/BSP/CAN_receive_send.c ****         case 5:
 798              		.loc 1 208 11
 799 0064 3CE0     		b	.L39
 800              	.L48:
 210:User/BSP/CAN_receive_send.c ****           break;
 801              		.loc 1 210 11
 802 0066 07F10C03 		add	r3, r7, #12
 803 006a 1946     		mov	r1, r3
 804 006c 2848     		ldr	r0, .L56+16
 805 006e FFF7FEFF 		bl	damiao_fbdata
 211:User/BSP/CAN_receive_send.c ****         case 6:
 806              		.loc 1 211 11
 807 0072 35E0     		b	.L39
 808              	.L45:
 213:User/BSP/CAN_receive_send.c ****           break;
 809              		.loc 1 213 11
 810 0074 07F10C03 		add	r3, r7, #12
 811 0078 1946     		mov	r1, r3
 812 007a 2648     		ldr	r0, .L56+20
ARM GAS  C:\Users\Godwin\AppData\Local\Temp\ccSP7LOn.s 			page 19


 813 007c FFF7FEFF 		bl	damiao_fbdata
 214:User/BSP/CAN_receive_send.c ****         default:
 814              		.loc 1 214 11
 815 0080 2EE0     		b	.L39
 816              	.L44:
 217:User/BSP/CAN_receive_send.c ****         }
 218:User/BSP/CAN_receive_send.c ****       }
 219:User/BSP/CAN_receive_send.c ****       else if (rx_header.IdType == FDCAN_EXTENDED_ID)
 817              		.loc 1 219 25
 818 0082 BB69     		ldr	r3, [r7, #24]
 819              		.loc 1 219 15
 820 0084 B3F1804F 		cmp	r3, #1073741824
 821 0088 2AD1     		bne	.L39
 822              	.LBB2:
 220:User/BSP/CAN_receive_send.c ****       {
 221:User/BSP/CAN_receive_send.c ****         // ˝âÎöŔ©ŐąÖˇ IDŁ¬ĽŮÉč¸ß×Ö˝ÚÎŞÄż±ęµç»ú ID
 222:User/BSP/CAN_receive_send.c ****         uint8_t target_id = (uint8_t)((rx_header.Identifier >> 8) & 0xFF);
 823              		.loc 1 222 49
 824 008a 7B69     		ldr	r3, [r7, #20]
 825              		.loc 1 222 61
 826 008c 1B0A     		lsrs	r3, r3, #8
 827              		.loc 1 222 17
 828 008e 87F83F30 		strb	r3, [r7, #63]
 223:User/BSP/CAN_receive_send.c ****         if (target_id == 0x01)
 829              		.loc 1 223 12
 830 0092 97F83F30 		ldrb	r3, [r7, #63]	@ zero_extendqisi2
 831 0096 012B     		cmp	r3, #1
 832 0098 07D1     		bne	.L50
 224:User/BSP/CAN_receive_send.c ****         {
 225:User/BSP/CAN_receive_send.c ****           RobStride_Motor_Analysis(&motor1, rx_data, rx_header.Identifier);
 833              		.loc 1 225 11
 834 009a 7A69     		ldr	r2, [r7, #20]
 835 009c 07F10C03 		add	r3, r7, #12
 836 00a0 1946     		mov	r1, r3
 837 00a2 1D48     		ldr	r0, .L56+24
 838 00a4 FFF7FEFF 		bl	RobStride_Motor_Analysis
 839 00a8 1AE0     		b	.L39
 840              	.L50:
 226:User/BSP/CAN_receive_send.c ****         }
 227:User/BSP/CAN_receive_send.c ****         else if (target_id == 0x02)
 841              		.loc 1 227 17
 842 00aa 97F83F30 		ldrb	r3, [r7, #63]	@ zero_extendqisi2
 843 00ae 022B     		cmp	r3, #2
 844 00b0 07D1     		bne	.L51
 228:User/BSP/CAN_receive_send.c ****         {
 229:User/BSP/CAN_receive_send.c ****           RobStride_Motor_Analysis(&motor2, rx_data, rx_header.Identifier);
 845              		.loc 1 229 11
 846 00b2 7A69     		ldr	r2, [r7, #20]
 847 00b4 07F10C03 		add	r3, r7, #12
 848 00b8 1946     		mov	r1, r3
 849 00ba 1848     		ldr	r0, .L56+28
 850 00bc FFF7FEFF 		bl	RobStride_Motor_Analysis
 851 00c0 0EE0     		b	.L39
 852              	.L51:
 230:User/BSP/CAN_receive_send.c ****         }
 231:User/BSP/CAN_receive_send.c ****         else if (target_id == 0x03)
 853              		.loc 1 231 17
ARM GAS  C:\Users\Godwin\AppData\Local\Temp\ccSP7LOn.s 			page 20


 854 00c2 97F83F30 		ldrb	r3, [r7, #63]	@ zero_extendqisi2
 855 00c6 032B     		cmp	r3, #3
 856 00c8 0AD1     		bne	.L39
 232:User/BSP/CAN_receive_send.c ****         {
 233:User/BSP/CAN_receive_send.c ****           RobStride_Motor_Analysis(&motor3, rx_data, rx_header.Identifier);
 857              		.loc 1 233 11
 858 00ca 7A69     		ldr	r2, [r7, #20]
 859 00cc 07F10C03 		add	r3, r7, #12
 860 00d0 1946     		mov	r1, r3
 861 00d2 1348     		ldr	r0, .L56+32
 862 00d4 FFF7FEFF 		bl	RobStride_Motor_Analysis
 863 00d8 02E0     		b	.L39
 864              	.L54:
 865              	.LBE2:
 196:User/BSP/CAN_receive_send.c ****       }
 866              		.loc 1 196 9
 867 00da 00BF     		nop
 868 00dc 00E0     		b	.L39
 869              	.L55:
 216:User/BSP/CAN_receive_send.c ****         }
 870              		.loc 1 216 11
 871 00de 00BF     		nop
 872              	.L39:
 184:User/BSP/CAN_receive_send.c ****   {
 873              		.loc 1 184 10
 874 00e0 07F10C03 		add	r3, r7, #12
 875 00e4 07F11402 		add	r2, r7, #20
 876 00e8 4021     		movs	r1, #64
 877 00ea 7868     		ldr	r0, [r7, #4]
 878 00ec FFF7FEFF 		bl	HAL_FDCAN_GetRxMessage
 879 00f0 0346     		mov	r3, r0
 184:User/BSP/CAN_receive_send.c ****   {
 880              		.loc 1 184 78 discriminator 1
 881 00f2 002B     		cmp	r3, #0
 882 00f4 8FD0     		beq	.L52
 883 00f6 00E0     		b	.L36
 884              	.L53:
 181:User/BSP/CAN_receive_send.c **** 
 885              		.loc 1 181 5 discriminator 1
 886 00f8 00BF     		nop
 887              	.L36:
 234:User/BSP/CAN_receive_send.c ****         }
 235:User/BSP/CAN_receive_send.c ****         // żÉĚíĽÓĆäËűŔ©Őą ID ´¦Ŕí
 236:User/BSP/CAN_receive_send.c ****       }
 237:User/BSP/CAN_receive_send.c ****     }
 238:User/BSP/CAN_receive_send.c ****     // ČôĘąÓĂ FDCAN3Ł¬żÉÔÚ´ËĚíĽÓŔŕËĆ´¦Ŕí
 239:User/BSP/CAN_receive_send.c ****   }
 240:User/BSP/CAN_receive_send.c **** }
 888              		.loc 1 240 1
 889 00fa 4037     		adds	r7, r7, #64
 890              	.LCFI33:
 891              		.cfi_def_cfa_offset 8
 892 00fc BD46     		mov	sp, r7
 893              	.LCFI34:
 894              		.cfi_def_cfa_register 13
 895              		@ sp needed
 896 00fe 80BD     		pop	{r7, pc}
ARM GAS  C:\Users\Godwin\AppData\Local\Temp\ccSP7LOn.s 			page 21


 897              	.L57:
 898              		.align	2
 899              	.L56:
 900 0100 00A00040 		.word	1073782784
 901 0104 00000000 		.word	arm_motor
 902 0108 00A40040 		.word	1073783808
 903 010c 30030000 		.word	arm_motor+816
 904 0110 40040000 		.word	arm_motor+1088
 905 0114 50050000 		.word	arm_motor+1360
 906 0118 00000000 		.word	motor1
 907 011c 00000000 		.word	motor2
 908 0120 00000000 		.word	motor3
 909              		.cfi_endproc
 910              	.LFE157:
 912              		.section	.text.HAL_FDCAN_ErrorCallback,"ax",%progbits
 913              		.align	1
 914              		.global	HAL_FDCAN_ErrorCallback
 915              		.syntax unified
 916              		.thumb
 917              		.thumb_func
 919              	HAL_FDCAN_ErrorCallback:
 920              	.LFB158:
 241:User/BSP/CAN_receive_send.c **** 
 242:User/BSP/CAN_receive_send.c **** /**
 243:User/BSP/CAN_receive_send.c ****  * @brief CAN´íÎó´¦Ŕí»Řµ÷Ł¬ÖŘĐÂłőĘĽ»Ż˛˘»Ö¸´ąýÂËĆ÷Ł¨Í¬Ę±ĹäÖĂ±ę×ĽşÍŔ©ŐąŁ©
 244:User/BSP/CAN_receive_send.c ****  */
 245:User/BSP/CAN_receive_send.c **** void HAL_FDCAN_ErrorCallback(FDCAN_HandleTypeDef *hfdcan)
 246:User/BSP/CAN_receive_send.c **** {
 921              		.loc 1 246 1
 922              		.cfi_startproc
 923              		@ args = 0, pretend = 0, frame = 40
 924              		@ frame_needed = 1, uses_anonymous_args = 0
 925 0000 80B5     		push	{r7, lr}
 926              	.LCFI35:
 927              		.cfi_def_cfa_offset 8
 928              		.cfi_offset 7, -8
 929              		.cfi_offset 14, -4
 930 0002 8CB0     		sub	sp, sp, #48
 931              	.LCFI36:
 932              		.cfi_def_cfa_offset 56
 933 0004 02AF     		add	r7, sp, #8
 934              	.LCFI37:
 935              		.cfi_def_cfa 7, 48
 936 0006 7860     		str	r0, [r7, #4]
 247:User/BSP/CAN_receive_send.c ****   // ÍŁÖąˇ˘·´łőĘĽ»Żˇ˘ÖŘĐÂłőĘĽ»Ż
 248:User/BSP/CAN_receive_send.c ****   HAL_FDCAN_Stop(hfdcan);
 937              		.loc 1 248 3
 938 0008 7868     		ldr	r0, [r7, #4]
 939 000a FFF7FEFF 		bl	HAL_FDCAN_Stop
 249:User/BSP/CAN_receive_send.c ****   HAL_FDCAN_DeInit(hfdcan);
 940              		.loc 1 249 3
 941 000e 7868     		ldr	r0, [r7, #4]
 942 0010 FFF7FEFF 		bl	HAL_FDCAN_DeInit
 250:User/BSP/CAN_receive_send.c ****   HAL_FDCAN_Init(hfdcan);
 943              		.loc 1 250 3
 944 0014 7868     		ldr	r0, [r7, #4]
 945 0016 FFF7FEFF 		bl	HAL_FDCAN_Init
ARM GAS  C:\Users\Godwin\AppData\Local\Temp\ccSP7LOn.s 			page 22


 251:User/BSP/CAN_receive_send.c **** 
 252:User/BSP/CAN_receive_send.c ****   // ÖŘĐÂĹäÖĂąýÂËĆ÷Ł¨±ę×Ľ+Ŕ©ŐąŁ©
 253:User/BSP/CAN_receive_send.c ****   FDCAN_FilterTypeDef sFilter;
 254:User/BSP/CAN_receive_send.c ****   // ±ę×ĽÖˇąýÂËĆ÷Ł¨˝ÓĘŐËůÓĐ±ę×ĽÖˇŁ©
 255:User/BSP/CAN_receive_send.c ****   sFilter.IdType = FDCAN_STANDARD_ID;
 946              		.loc 1 255 18
 947 001a 0023     		movs	r3, #0
 948 001c BB60     		str	r3, [r7, #8]
 256:User/BSP/CAN_receive_send.c ****   sFilter.FilterIndex = 0;
 949              		.loc 1 256 23
 950 001e 0023     		movs	r3, #0
 951 0020 FB60     		str	r3, [r7, #12]
 257:User/BSP/CAN_receive_send.c ****   sFilter.FilterType = FDCAN_FILTER_MASK;
 952              		.loc 1 257 22
 953 0022 0223     		movs	r3, #2
 954 0024 3B61     		str	r3, [r7, #16]
 258:User/BSP/CAN_receive_send.c ****   sFilter.FilterConfig = FDCAN_FILTER_TO_RXFIFO0;
 955              		.loc 1 258 24
 956 0026 0123     		movs	r3, #1
 957 0028 7B61     		str	r3, [r7, #20]
 259:User/BSP/CAN_receive_send.c ****   sFilter.FilterID1 = 0x000;
 958              		.loc 1 259 21
 959 002a 0023     		movs	r3, #0
 960 002c BB61     		str	r3, [r7, #24]
 260:User/BSP/CAN_receive_send.c ****   sFilter.FilterID2 = 0x000;
 961              		.loc 1 260 21
 962 002e 0023     		movs	r3, #0
 963 0030 FB61     		str	r3, [r7, #28]
 261:User/BSP/CAN_receive_send.c ****   HAL_FDCAN_ConfigFilter(hfdcan, &sFilter);
 964              		.loc 1 261 3
 965 0032 07F10803 		add	r3, r7, #8
 966 0036 1946     		mov	r1, r3
 967 0038 7868     		ldr	r0, [r7, #4]
 968 003a FFF7FEFF 		bl	HAL_FDCAN_ConfigFilter
 262:User/BSP/CAN_receive_send.c **** 
 263:User/BSP/CAN_receive_send.c ****   // Ŕ©ŐąÖˇąýÂËĆ÷Ł¨˝ÓĘŐËůÓĐŔ©ŐąÖˇŁ©
 264:User/BSP/CAN_receive_send.c ****   sFilter.IdType = FDCAN_EXTENDED_ID;
 969              		.loc 1 264 18
 970 003e 4FF08043 		mov	r3, #1073741824
 971 0042 BB60     		str	r3, [r7, #8]
 265:User/BSP/CAN_receive_send.c ****   sFilter.FilterIndex = 0; // ¶ŔÁ˘Ë÷ŇýżŐĽä
 972              		.loc 1 265 23
 973 0044 0023     		movs	r3, #0
 974 0046 FB60     		str	r3, [r7, #12]
 266:User/BSP/CAN_receive_send.c ****   sFilter.FilterID1 = 0x00000000;
 975              		.loc 1 266 21
 976 0048 0023     		movs	r3, #0
 977 004a BB61     		str	r3, [r7, #24]
 267:User/BSP/CAN_receive_send.c ****   sFilter.FilterID2 = 0x00000000;
 978              		.loc 1 267 21
 979 004c 0023     		movs	r3, #0
 980 004e FB61     		str	r3, [r7, #28]
 268:User/BSP/CAN_receive_send.c ****   HAL_FDCAN_ConfigFilter(hfdcan, &sFilter);
 981              		.loc 1 268 3
 982 0050 07F10803 		add	r3, r7, #8
 983 0054 1946     		mov	r1, r3
 984 0056 7868     		ldr	r0, [r7, #4]
ARM GAS  C:\Users\Godwin\AppData\Local\Temp\ccSP7LOn.s 			page 23


 985 0058 FFF7FEFF 		bl	HAL_FDCAN_ConfigFilter
 269:User/BSP/CAN_receive_send.c **** 
 270:User/BSP/CAN_receive_send.c ****   // żÉŃˇŁşĹäÖĂČ«ľÖąýÂËĆ÷ÎŞ˝ÓĘÜËůÓĐŁ¨Čô˛»ĎëŇŔŔµąýÂËĆ÷Ł¬żÉÉč FDCAN_ACCEPT_IN_RX_FIFO0Ł©
 271:User/BSP/CAN_receive_send.c ****   HAL_FDCAN_ConfigGlobalFilter(hfdcan, FDCAN_ACCEPT_IN_RX_FIFO0, FDCAN_ACCEPT_IN_RX_FIFO0,
 986              		.loc 1 271 3
 987 005c 0023     		movs	r3, #0
 988 005e 0093     		str	r3, [sp]
 989 0060 0023     		movs	r3, #0
 990 0062 0022     		movs	r2, #0
 991 0064 0021     		movs	r1, #0
 992 0066 7868     		ldr	r0, [r7, #4]
 993 0068 FFF7FEFF 		bl	HAL_FDCAN_ConfigGlobalFilter
 272:User/BSP/CAN_receive_send.c ****                                FDCAN_FILTER_REMOTE, FDCAN_FILTER_REMOTE);
 273:User/BSP/CAN_receive_send.c **** 
 274:User/BSP/CAN_receive_send.c ****   // ÖŘĐÂĽ¤»îÍ¨ÖŞ˛˘Ćô¶Ż
 275:User/BSP/CAN_receive_send.c ****   HAL_FDCAN_ActivateNotification(hfdcan, FDCAN_IT_RX_FIFO0_NEW_MESSAGE, 0);
 994              		.loc 1 275 3
 995 006c 0022     		movs	r2, #0
 996 006e 0121     		movs	r1, #1
 997 0070 7868     		ldr	r0, [r7, #4]
 998 0072 FFF7FEFF 		bl	HAL_FDCAN_ActivateNotification
 276:User/BSP/CAN_receive_send.c ****   HAL_FDCAN_Start(hfdcan);
 999              		.loc 1 276 3
 1000 0076 7868     		ldr	r0, [r7, #4]
 1001 0078 FFF7FEFF 		bl	HAL_FDCAN_Start
 277:User/BSP/CAN_receive_send.c **** }...
 1002              		.loc 1 277 1
 1003 007c 00BF     		nop
 1004 007e 2837     		adds	r7, r7, #40
 1005              	.LCFI38:
 1006              		.cfi_def_cfa_offset 8
 1007 0080 BD46     		mov	sp, r7
 1008              	.LCFI39:
 1009              		.cfi_def_cfa_register 13
 1010              		@ sp needed
 1011 0082 80BD     		pop	{r7, pc}
 1012              		.cfi_endproc
 1013              	.LFE158:
 1015              		.text
 1016              	.Letext0:
 1017              		.file 2 "C:/Users/Godwin/13.2 Rel1/arm-none-eabi/include/machine/_default_types.h"
 1018              		.file 3 "C:/Users/Godwin/13.2 Rel1/arm-none-eabi/include/sys/_stdint.h"
 1019              		.file 4 "Drivers/CMSIS/Device/ST/STM32H7xx/Include/stm32h723xx.h"
 1020              		.file 5 "Drivers/CMSIS/Device/ST/STM32H7xx/Include/stm32h7xx.h"
 1021              		.file 6 "Drivers/STM32H7xx_HAL_Driver/Inc/stm32h7xx_hal_def.h"
 1022              		.file 7 "Drivers/STM32H7xx_HAL_Driver/Inc/stm32h7xx_hal_fdcan.h"
 1023              		.file 8 "User/BSP/can_receive_send.h"
 1024              		.file 9 "User/Hardware/dm4310_drv.h"
 1025              		.file 10 "User/Hardware/Robstride04.h"
 1026              		.file 11 "User/Hardware/arm.h"
 1027              		.file 12 "Core/Inc/main.h"
ARM GAS  C:\Users\Godwin\AppData\Local\Temp\ccSP7LOn.s 			page 24

