ARM GAS  C:\Users\Godwin\AppData\Local\Temp\cc1oo7M6.s 			page 1


   1              		.cpu cortex-m7
   2              		.arch armv7e-m
   3              		.fpu fpv5-d16
   4              		.eabi_attribute 28, 1
   5              		.eabi_attribute 20, 1
   6              		.eabi_attribute 21, 1
   7              		.eabi_attribute 23, 3
   8              		.eabi_attribute 24, 1
   9              		.eabi_attribute 25, 1
  10              		.eabi_attribute 26, 1
  11              		.eabi_attribute 30, 6
  12              		.eabi_attribute 34, 1
  13              		.eabi_attribute 18, 4
  14              		.file	"CAN_receive_send.c"
  15              		.text
  16              	.Ltext0:
  17              		.cfi_sections	.debug_frame
  18              		.file 1 "User/BSP/CAN_receive_send.c"
  19              		.global	RxHeader1
  20              		.section	.bss.RxHeader1,"aw",%nobits
  21              		.align	2
  24              	RxHeader1:
  25 0000 00000000 		.space	40
  25      00000000 
  25      00000000 
  25      00000000 
  25      00000000 
  26              		.global	g_Can1RxData
  27              		.section	.bss.g_Can1RxData,"aw",%nobits
  28              		.align	2
  31              	g_Can1RxData:
  32 0000 00000000 		.space	64
  32      00000000 
  32      00000000 
  32      00000000 
  32      00000000 
  33              		.global	daibaoshan
  34              		.section	.bss.daibaoshan,"aw",%nobits
  35              		.align	2
  38              	daibaoshan:
  39 0000 00000000 		.space	12
  39      00000000 
  39      00000000 
  40              		.global	motor_data
  41              		.section	.bss.motor_data,"aw",%nobits
  42              		.align	3
  45              	motor_data:
  46 0000 00000000 		.space	1848
  46      00000000 
  46      00000000 
  46      00000000 
  46      00000000 
  47              		.section	.text.can_init,"ax",%progbits
  48              		.align	1
  49              		.global	can_init
  50              		.syntax unified
  51              		.thumb
ARM GAS  C:\Users\Godwin\AppData\Local\Temp\cc1oo7M6.s 			page 2


  52              		.thumb_func
  54              	can_init:
  55              	.LFB151:
   1:User/BSP/CAN_receive_send.c **** /**
   2:User/BSP/CAN_receive_send.c ****  * @file CAN_receive_send.c
   3:User/BSP/CAN_receive_send.c ****  * @author Siri (lixirui2017@outlook.com)
   4:User/BSP/CAN_receive_send.c ****  * @brief can bsp蚊窟僕嚥俊鞭
   5:User/BSP/CAN_receive_send.c ****  * @version 0.2
   6:User/BSP/CAN_receive_send.c ****  * @date 2024-10-19
   7:User/BSP/CAN_receive_send.c ****  *
   8:User/BSP/CAN_receive_send.c ****  * @copyright Copyright (c) 2024
   9:User/BSP/CAN_receive_send.c ****  *
  10:User/BSP/CAN_receive_send.c ****  */
  11:User/BSP/CAN_receive_send.c **** #include "can_receive_send.h"
  12:User/BSP/CAN_receive_send.c **** #include "dm4310_drv.h"
  13:User/BSP/CAN_receive_send.c **** #include "string.h"
  14:User/BSP/CAN_receive_send.c **** #include "Robstride04.h"
  15:User/BSP/CAN_receive_send.c **** #include "arm.h"
  16:User/BSP/CAN_receive_send.c **** #include "stdio.h"
  17:User/BSP/CAN_receive_send.c **** #include "FreeRTOS.h"
  18:User/BSP/CAN_receive_send.c **** #include "task.h"
  19:User/BSP/CAN_receive_send.c **** #include "main.h"
  20:User/BSP/CAN_receive_send.c **** #include "cmsis_os.h"
  21:User/BSP/CAN_receive_send.c **** 
  22:User/BSP/CAN_receive_send.c **** /* Private includes ----------------------------------------------------------*/
  23:User/BSP/CAN_receive_send.c **** /* USER CODE BEGIN Includes */
  24:User/BSP/CAN_receive_send.c **** #include "remote_control.h"
  25:User/BSP/CAN_receive_send.c **** #include "music.h"
  26:User/BSP/CAN_receive_send.c **** #include "LED.h"
  27:User/BSP/CAN_receive_send.c **** #include <cmsis_os2.h>
  28:User/BSP/CAN_receive_send.c **** #include "iwdg.h"
  29:User/BSP/CAN_receive_send.c **** #include "buzzer.h"
  30:User/BSP/CAN_receive_send.c **** #include "fdcan.h"
  31:User/BSP/CAN_receive_send.c **** #include "DrEmpower_can.h" // 駅倬淫根寄隼窮字駁強遊猟周｀
  32:User/BSP/CAN_receive_send.c **** #include "ktech_motor.h"
  33:User/BSP/CAN_receive_send.c **** #include "head.h"
  34:User/BSP/CAN_receive_send.c **** /* USER CODE END Includes */
  35:User/BSP/CAN_receive_send.c **** // 廣吭⦿狛陀匂塘崔厮壓 fdcan.c 嶄喇 CubeMX 頼撹⇧緩侃音壅嶷鹸塘崔
  36:User/BSP/CAN_receive_send.c **** // 云猟周峪減夭方象辺窟侃尖才喘薩蚊兜兵晒
  37:User/BSP/CAN_receive_send.c **** 
  38:User/BSP/CAN_receive_send.c **** FDCAN_RxHeaderTypeDef RxHeader1; // 辛嬬喘噐凪麿喘余⇧隠藻
  39:User/BSP/CAN_receive_send.c **** uint8_t g_Can1RxData[64];        // 隠藻徽秀咏音壅聞喘↙個喘蕉何延楚⇄
  40:User/BSP/CAN_receive_send.c **** float daibaoshan[3];
  41:User/BSP/CAN_receive_send.c **** motor_measure_t motor_data[33];
  42:User/BSP/CAN_receive_send.c **** 
  43:User/BSP/CAN_receive_send.c **** extern uint8_t rx_buffer[8];
  44:User/BSP/CAN_receive_send.c **** extern int8_t READ_FLAG;
  45:User/BSP/CAN_receive_send.c **** extern uint16_t can_id;
  46:User/BSP/CAN_receive_send.c **** 
  47:User/BSP/CAN_receive_send.c **** extern FDCAN_HandleTypeDef hfdcan1;
  48:User/BSP/CAN_receive_send.c **** extern FDCAN_HandleTypeDef hfdcan2;
  49:User/BSP/CAN_receive_send.c **** extern FDCAN_HandleTypeDef hfdcan3;
  50:User/BSP/CAN_receive_send.c **** 
  51:User/BSP/CAN_receive_send.c **** /**
  52:User/BSP/CAN_receive_send.c ****  * @brief 兜兵晒can↙喘薩蚊兜兵晒⇄
  53:User/BSP/CAN_receive_send.c ****  *        廣吭⦿狛陀匂、嶄僅、尼強厮壓 fdcan.c 嶄頼撹⇧云痕方涙俶嶷鹸距喘 HAL 痕方。
  54:User/BSP/CAN_receive_send.c ****  *        飛俶駆翌兜兵晒↙泌延楚賠巣⇄⇧辛壓緩耶紗。
ARM GAS  C:\Users\Godwin\AppData\Local\Temp\cc1oo7M6.s 			page 3


  55:User/BSP/CAN_receive_send.c ****  */
  56:User/BSP/CAN_receive_send.c **** void can_init(void)
  57:User/BSP/CAN_receive_send.c **** {
  56              		.loc 1 57 1
  57              		.cfi_startproc
  58              		@ args = 0, pretend = 0, frame = 0
  59              		@ frame_needed = 1, uses_anonymous_args = 0
  60              		@ link register save eliminated.
  61 0000 80B4     		push	{r7}
  62              	.LCFI0:
  63              		.cfi_def_cfa_offset 4
  64              		.cfi_offset 7, -4
  65 0002 00AF     		add	r7, sp, #0
  66              	.LCFI1:
  67              		.cfi_def_cfa_register 7
  58:User/BSP/CAN_receive_send.c ****   // 侭嗤 HAL 屢購議塘崔厮喇 MX_FDCANx_Init 頼撹⇧緩侃音壅嶷鹸
  59:User/BSP/CAN_receive_send.c ****   // 辛耶紗喘薩兜兵晒旗鷹⇧箭泌賠巣炎崗方怏
  60:User/BSP/CAN_receive_send.c **** }
  68              		.loc 1 60 1
  69 0004 00BF     		nop
  70 0006 BD46     		mov	sp, r7
  71              	.LCFI2:
  72              		.cfi_def_cfa_register 13
  73              		@ sp needed
  74 0008 5DF8047B 		ldr	r7, [sp], #4
  75              	.LCFI3:
  76              		.cfi_restore 7
  77              		.cfi_def_cfa_offset 0
  78 000c 7047     		bx	lr
  79              		.cfi_endproc
  80              	.LFE151:
  82              		.section	.text.get_motor_measure,"ax",%progbits
  83              		.align	1
  84              		.global	get_motor_measure
  85              		.syntax unified
  86              		.thumb
  87              		.thumb_func
  89              	get_motor_measure:
  90              	.LFB152:
  61:User/BSP/CAN_receive_send.c **** 
  62:User/BSP/CAN_receive_send.c **** // damiao 窮字方象盾裂↙隠隔音延⇄
  63:User/BSP/CAN_receive_send.c **** void get_motor_measure(motor_measure_t *ptr, uint8_t data[])
  64:User/BSP/CAN_receive_send.c **** {
  91              		.loc 1 64 1
  92              		.cfi_startproc
  93              		@ args = 0, pretend = 0, frame = 8
  94              		@ frame_needed = 1, uses_anonymous_args = 0
  95              		@ link register save eliminated.
  96 0000 80B4     		push	{r7}
  97              	.LCFI4:
  98              		.cfi_def_cfa_offset 4
  99              		.cfi_offset 7, -4
 100 0002 83B0     		sub	sp, sp, #12
 101              	.LCFI5:
 102              		.cfi_def_cfa_offset 16
 103 0004 00AF     		add	r7, sp, #0
 104              	.LCFI6:
ARM GAS  C:\Users\Godwin\AppData\Local\Temp\cc1oo7M6.s 			page 4


 105              		.cfi_def_cfa_register 7
 106 0006 7860     		str	r0, [r7, #4]
 107 0008 3960     		str	r1, [r7]
  65:User/BSP/CAN_receive_send.c ****   (ptr)->last_ecd = (ptr)->ecd;
 108              		.loc 1 65 26
 109 000a 7B68     		ldr	r3, [r7, #4]
 110 000c 5B88     		ldrh	r3, [r3, #2]
 111 000e 1AB2     		sxth	r2, r3
 112              		.loc 1 65 19
 113 0010 7B68     		ldr	r3, [r7, #4]
 114 0012 5A81     		strh	r2, [r3, #10]	@ movhi
  66:User/BSP/CAN_receive_send.c ****   (ptr)->ecd = (uint16_t)((data)[0] << 8 | (data)[1]);
 115              		.loc 1 66 33
 116 0014 3B68     		ldr	r3, [r7]
 117 0016 1B78     		ldrb	r3, [r3]	@ zero_extendqisi2
 118              		.loc 1 66 42
 119 0018 1BB2     		sxth	r3, r3
 120 001a 1B02     		lsls	r3, r3, #8
 121 001c 1AB2     		sxth	r2, r3
 122              		.loc 1 66 50
 123 001e 3B68     		ldr	r3, [r7]
 124 0020 0133     		adds	r3, r3, #1
 125 0022 1B78     		ldrb	r3, [r3]	@ zero_extendqisi2
 126 0024 1BB2     		sxth	r3, r3
 127              		.loc 1 66 42
 128 0026 1343     		orrs	r3, r3, r2
 129 0028 1BB2     		sxth	r3, r3
 130              		.loc 1 66 16
 131 002a 9AB2     		uxth	r2, r3
 132              		.loc 1 66 14
 133 002c 7B68     		ldr	r3, [r7, #4]
 134 002e 5A80     		strh	r2, [r3, #2]	@ movhi
  67:User/BSP/CAN_receive_send.c ****   (ptr)->speed_rpm = (uint16_t)((data)[2] << 8 | (data)[3]);
 135              		.loc 1 67 39
 136 0030 3B68     		ldr	r3, [r7]
 137 0032 0233     		adds	r3, r3, #2
 138 0034 1B78     		ldrb	r3, [r3]	@ zero_extendqisi2
 139              		.loc 1 67 22
 140 0036 1BB2     		sxth	r3, r3
 141 0038 1B02     		lsls	r3, r3, #8
 142 003a 1AB2     		sxth	r2, r3
 143              		.loc 1 67 56
 144 003c 3B68     		ldr	r3, [r7]
 145 003e 0333     		adds	r3, r3, #3
 146 0040 1B78     		ldrb	r3, [r3]	@ zero_extendqisi2
 147 0042 1BB2     		sxth	r3, r3
 148              		.loc 1 67 48
 149 0044 1343     		orrs	r3, r3, r2
 150 0046 1AB2     		sxth	r2, r3
 151              		.loc 1 67 20
 152 0048 7B68     		ldr	r3, [r7, #4]
 153 004a 9A80     		strh	r2, [r3, #4]	@ movhi
  68:User/BSP/CAN_receive_send.c ****   (ptr)->given_current = (uint16_t)((data)[4] << 8 | (data)[5]);
 154              		.loc 1 68 43
 155 004c 3B68     		ldr	r3, [r7]
 156 004e 0433     		adds	r3, r3, #4
 157 0050 1B78     		ldrb	r3, [r3]	@ zero_extendqisi2
ARM GAS  C:\Users\Godwin\AppData\Local\Temp\cc1oo7M6.s 			page 5


 158              		.loc 1 68 26
 159 0052 1BB2     		sxth	r3, r3
 160 0054 1B02     		lsls	r3, r3, #8
 161 0056 1AB2     		sxth	r2, r3
 162              		.loc 1 68 60
 163 0058 3B68     		ldr	r3, [r7]
 164 005a 0533     		adds	r3, r3, #5
 165 005c 1B78     		ldrb	r3, [r3]	@ zero_extendqisi2
 166 005e 1BB2     		sxth	r3, r3
 167              		.loc 1 68 52
 168 0060 1343     		orrs	r3, r3, r2
 169 0062 1AB2     		sxth	r2, r3
 170              		.loc 1 68 24
 171 0064 7B68     		ldr	r3, [r7, #4]
 172 0066 DA80     		strh	r2, [r3, #6]	@ movhi
  69:User/BSP/CAN_receive_send.c ****   (ptr)->temperate = (data)[6];
 173              		.loc 1 69 20
 174 0068 3B68     		ldr	r3, [r7]
 175 006a 9A79     		ldrb	r2, [r3, #6]	@ zero_extendqisi2
 176 006c 7B68     		ldr	r3, [r7, #4]
 177 006e 1A72     		strb	r2, [r3, #8]
  70:User/BSP/CAN_receive_send.c **** }
 178              		.loc 1 70 1
 179 0070 00BF     		nop
 180 0072 0C37     		adds	r7, r7, #12
 181              	.LCFI7:
 182              		.cfi_def_cfa_offset 4
 183 0074 BD46     		mov	sp, r7
 184              	.LCFI8:
 185              		.cfi_def_cfa_register 13
 186              		@ sp needed
 187 0076 5DF8047B 		ldr	r7, [sp], #4
 188              	.LCFI9:
 189              		.cfi_restore 7
 190              		.cfi_def_cfa_offset 0
 191 007a 7047     		bx	lr
 192              		.cfi_endproc
 193              	.LFE152:
 195              		.section	.text.canx_send_data,"ax",%progbits
 196              		.align	1
 197              		.global	canx_send_data
 198              		.syntax unified
 199              		.thumb
 200              		.thumb_func
 202              	canx_send_data:
 203              	.LFB153:
  71:User/BSP/CAN_receive_send.c **** 
  72:User/BSP/CAN_receive_send.c **** /**
  73:User/BSP/CAN_receive_send.c ****  * @brief 窟僕炎彈屐方象
  74:User/BSP/CAN_receive_send.c ****  */
  75:User/BSP/CAN_receive_send.c **** uint8_t canx_send_data(FDCAN_HandleTypeDef *hcan, uint16_t id, uint8_t *data, uint32_t len)
  76:User/BSP/CAN_receive_send.c **** {
 204              		.loc 1 76 1
 205              		.cfi_startproc
 206              		@ args = 0, pretend = 0, frame = 56
 207              		@ frame_needed = 1, uses_anonymous_args = 0
 208 0000 80B5     		push	{r7, lr}
ARM GAS  C:\Users\Godwin\AppData\Local\Temp\cc1oo7M6.s 			page 6


 209              	.LCFI10:
 210              		.cfi_def_cfa_offset 8
 211              		.cfi_offset 7, -8
 212              		.cfi_offset 14, -4
 213 0002 8EB0     		sub	sp, sp, #56
 214              	.LCFI11:
 215              		.cfi_def_cfa_offset 64
 216 0004 00AF     		add	r7, sp, #0
 217              	.LCFI12:
 218              		.cfi_def_cfa_register 7
 219 0006 F860     		str	r0, [r7, #12]
 220 0008 7A60     		str	r2, [r7, #4]
 221 000a 3B60     		str	r3, [r7]
 222 000c 0B46     		mov	r3, r1	@ movhi
 223 000e 7B81     		strh	r3, [r7, #10]	@ movhi
  77:User/BSP/CAN_receive_send.c ****   FDCAN_TxHeaderTypeDef TxHeader;
  78:User/BSP/CAN_receive_send.c ****   TxHeader.Identifier = id;
 224              		.loc 1 78 23
 225 0010 7B89     		ldrh	r3, [r7, #10]
 226 0012 7B61     		str	r3, [r7, #20]
  79:User/BSP/CAN_receive_send.c ****   TxHeader.IdType = FDCAN_STANDARD_ID;
 227              		.loc 1 79 19
 228 0014 0023     		movs	r3, #0
 229 0016 BB61     		str	r3, [r7, #24]
  80:User/BSP/CAN_receive_send.c ****   TxHeader.TxFrameType = FDCAN_DATA_FRAME;
 230              		.loc 1 80 24
 231 0018 0023     		movs	r3, #0
 232 001a FB61     		str	r3, [r7, #28]
  81:User/BSP/CAN_receive_send.c **** 
  82:User/BSP/CAN_receive_send.c ****   // 方象海業啌符
  83:User/BSP/CAN_receive_send.c ****   if (len <= 8)
 233              		.loc 1 83 6
 234 001c 3B68     		ldr	r3, [r7]
 235 001e 082B     		cmp	r3, #8
 236 0020 02D8     		bhi	.L4
  84:User/BSP/CAN_receive_send.c ****     TxHeader.DataLength = FDCAN_DLC_BYTES_8;
 237              		.loc 1 84 25
 238 0022 0823     		movs	r3, #8
 239 0024 3B62     		str	r3, [r7, #32]
 240 0026 25E0     		b	.L5
 241              	.L4:
  85:User/BSP/CAN_receive_send.c ****   else if (len == 12)
 242              		.loc 1 85 11
 243 0028 3B68     		ldr	r3, [r7]
 244 002a 0C2B     		cmp	r3, #12
 245 002c 02D1     		bne	.L6
  86:User/BSP/CAN_receive_send.c ****     TxHeader.DataLength = FDCAN_DLC_BYTES_12;
 246              		.loc 1 86 25
 247 002e 0923     		movs	r3, #9
 248 0030 3B62     		str	r3, [r7, #32]
 249 0032 1FE0     		b	.L5
 250              	.L6:
  87:User/BSP/CAN_receive_send.c ****   else if (len == 16)
 251              		.loc 1 87 11
 252 0034 3B68     		ldr	r3, [r7]
 253 0036 102B     		cmp	r3, #16
 254 0038 02D1     		bne	.L7
ARM GAS  C:\Users\Godwin\AppData\Local\Temp\cc1oo7M6.s 			page 7


  88:User/BSP/CAN_receive_send.c ****     TxHeader.DataLength = FDCAN_DLC_BYTES_16;
 255              		.loc 1 88 25
 256 003a 0A23     		movs	r3, #10
 257 003c 3B62     		str	r3, [r7, #32]
 258 003e 19E0     		b	.L5
 259              	.L7:
  89:User/BSP/CAN_receive_send.c ****   else if (len == 20)
 260              		.loc 1 89 11
 261 0040 3B68     		ldr	r3, [r7]
 262 0042 142B     		cmp	r3, #20
 263 0044 02D1     		bne	.L8
  90:User/BSP/CAN_receive_send.c ****     TxHeader.DataLength = FDCAN_DLC_BYTES_20;
 264              		.loc 1 90 25
 265 0046 0B23     		movs	r3, #11
 266 0048 3B62     		str	r3, [r7, #32]
 267 004a 13E0     		b	.L5
 268              	.L8:
  91:User/BSP/CAN_receive_send.c ****   else if (len == 24)
 269              		.loc 1 91 11
 270 004c 3B68     		ldr	r3, [r7]
 271 004e 182B     		cmp	r3, #24
 272 0050 02D1     		bne	.L9
  92:User/BSP/CAN_receive_send.c ****     TxHeader.DataLength = FDCAN_DLC_BYTES_24;
 273              		.loc 1 92 25
 274 0052 0C23     		movs	r3, #12
 275 0054 3B62     		str	r3, [r7, #32]
 276 0056 0DE0     		b	.L5
 277              	.L9:
  93:User/BSP/CAN_receive_send.c ****   else if (len == 48)
 278              		.loc 1 93 11
 279 0058 3B68     		ldr	r3, [r7]
 280 005a 302B     		cmp	r3, #48
 281 005c 02D1     		bne	.L10
  94:User/BSP/CAN_receive_send.c ****     TxHeader.DataLength = FDCAN_DLC_BYTES_48;
 282              		.loc 1 94 25
 283 005e 0E23     		movs	r3, #14
 284 0060 3B62     		str	r3, [r7, #32]
 285 0062 07E0     		b	.L5
 286              	.L10:
  95:User/BSP/CAN_receive_send.c ****   else if (len == 64)
 287              		.loc 1 95 11
 288 0064 3B68     		ldr	r3, [r7]
 289 0066 402B     		cmp	r3, #64
 290 0068 02D1     		bne	.L11
  96:User/BSP/CAN_receive_send.c ****     TxHeader.DataLength = FDCAN_DLC_BYTES_64;
 291              		.loc 1 96 25
 292 006a 0F23     		movs	r3, #15
 293 006c 3B62     		str	r3, [r7, #32]
 294 006e 01E0     		b	.L5
 295              	.L11:
  97:User/BSP/CAN_receive_send.c ****   else
  98:User/BSP/CAN_receive_send.c ****     return 1; // 音屶隔議海業
 296              		.loc 1 98 12
 297 0070 0123     		movs	r3, #1
 298 0072 16E0     		b	.L14
 299              	.L5:
  99:User/BSP/CAN_receive_send.c **** 
ARM GAS  C:\Users\Godwin\AppData\Local\Temp\cc1oo7M6.s 			page 8


 100:User/BSP/CAN_receive_send.c ****   TxHeader.ErrorStateIndicator = FDCAN_ESI_ACTIVE;
 300              		.loc 1 100 32
 301 0074 0023     		movs	r3, #0
 302 0076 7B62     		str	r3, [r7, #36]
 101:User/BSP/CAN_receive_send.c ****   TxHeader.BitRateSwitch = FDCAN_BRS_OFF;
 303              		.loc 1 101 26
 304 0078 0023     		movs	r3, #0
 305 007a BB62     		str	r3, [r7, #40]
 102:User/BSP/CAN_receive_send.c ****   TxHeader.FDFormat = FDCAN_CLASSIC_CAN;
 306              		.loc 1 102 21
 307 007c 0023     		movs	r3, #0
 308 007e FB62     		str	r3, [r7, #44]
 103:User/BSP/CAN_receive_send.c ****   TxHeader.TxEventFifoControl = FDCAN_NO_TX_EVENTS;
 309              		.loc 1 103 31
 310 0080 0023     		movs	r3, #0
 311 0082 3B63     		str	r3, [r7, #48]
 104:User/BSP/CAN_receive_send.c ****   TxHeader.MessageMarker = 0x00;
 312              		.loc 1 104 26
 313 0084 0023     		movs	r3, #0
 314 0086 7B63     		str	r3, [r7, #52]
 105:User/BSP/CAN_receive_send.c **** 
 106:User/BSP/CAN_receive_send.c ****   if (HAL_FDCAN_AddMessageToTxFifoQ(hcan, &TxHeader, data) != HAL_OK)
 315              		.loc 1 106 7
 316 0088 07F11403 		add	r3, r7, #20
 317 008c 7A68     		ldr	r2, [r7, #4]
 318 008e 1946     		mov	r1, r3
 319 0090 F868     		ldr	r0, [r7, #12]
 320 0092 FFF7FEFF 		bl	HAL_FDCAN_AddMessageToTxFifoQ
 321 0096 0346     		mov	r3, r0
 322              		.loc 1 106 6 discriminator 1
 323 0098 002B     		cmp	r3, #0
 324 009a 01D0     		beq	.L13
 107:User/BSP/CAN_receive_send.c ****   {
 108:User/BSP/CAN_receive_send.c ****     Error_Handler();
 325              		.loc 1 108 5
 326 009c FFF7FEFF 		bl	Error_Handler
 327              	.L13:
 109:User/BSP/CAN_receive_send.c ****   }
 110:User/BSP/CAN_receive_send.c ****   return 0;
 328              		.loc 1 110 10
 329 00a0 0023     		movs	r3, #0
 330              	.L14:
 111:User/BSP/CAN_receive_send.c **** }
 331              		.loc 1 111 1
 332 00a2 1846     		mov	r0, r3
 333 00a4 3837     		adds	r7, r7, #56
 334              	.LCFI13:
 335              		.cfi_def_cfa_offset 8
 336 00a6 BD46     		mov	sp, r7
 337              	.LCFI14:
 338              		.cfi_def_cfa_register 13
 339              		@ sp needed
 340 00a8 80BD     		pop	{r7, pc}
 341              		.cfi_endproc
 342              	.LFE153:
 344              		.section	.text.canx_send_ext_data,"ax",%progbits
 345              		.align	1
ARM GAS  C:\Users\Godwin\AppData\Local\Temp\cc1oo7M6.s 			page 9


 346              		.global	canx_send_ext_data
 347              		.syntax unified
 348              		.thumb
 349              		.thumb_func
 351              	canx_send_ext_data:
 352              	.LFB154:
 112:User/BSP/CAN_receive_send.c **** 
 113:User/BSP/CAN_receive_send.c **** /**
 114:User/BSP/CAN_receive_send.c ****  * @brief 窟僕制婢屐方象
 115:User/BSP/CAN_receive_send.c ****  */
 116:User/BSP/CAN_receive_send.c **** uint8_t canx_send_ext_data(FDCAN_HandleTypeDef *hcan, uint32_t id, uint8_t *data, uint32_t len)
 117:User/BSP/CAN_receive_send.c **** {
 353              		.loc 1 117 1
 354              		.cfi_startproc
 355              		@ args = 0, pretend = 0, frame = 56
 356              		@ frame_needed = 1, uses_anonymous_args = 0
 357 0000 80B5     		push	{r7, lr}
 358              	.LCFI15:
 359              		.cfi_def_cfa_offset 8
 360              		.cfi_offset 7, -8
 361              		.cfi_offset 14, -4
 362 0002 8EB0     		sub	sp, sp, #56
 363              	.LCFI16:
 364              		.cfi_def_cfa_offset 64
 365 0004 00AF     		add	r7, sp, #0
 366              	.LCFI17:
 367              		.cfi_def_cfa_register 7
 368 0006 F860     		str	r0, [r7, #12]
 369 0008 B960     		str	r1, [r7, #8]
 370 000a 7A60     		str	r2, [r7, #4]
 371 000c 3B60     		str	r3, [r7]
 118:User/BSP/CAN_receive_send.c ****   FDCAN_TxHeaderTypeDef TxHeader;
 119:User/BSP/CAN_receive_send.c ****   TxHeader.Identifier = id;
 372              		.loc 1 119 23
 373 000e BB68     		ldr	r3, [r7, #8]
 374 0010 7B61     		str	r3, [r7, #20]
 120:User/BSP/CAN_receive_send.c ****   TxHeader.IdType = FDCAN_EXTENDED_ID;
 375              		.loc 1 120 19
 376 0012 4FF08043 		mov	r3, #1073741824
 377 0016 BB61     		str	r3, [r7, #24]
 121:User/BSP/CAN_receive_send.c ****   TxHeader.TxFrameType = FDCAN_DATA_FRAME;
 378              		.loc 1 121 24
 379 0018 0023     		movs	r3, #0
 380 001a FB61     		str	r3, [r7, #28]
 122:User/BSP/CAN_receive_send.c **** 
 123:User/BSP/CAN_receive_send.c ****   // 方象海業啌符↙揖炎彈屐⇄
 124:User/BSP/CAN_receive_send.c ****   if (len <= 8)
 381              		.loc 1 124 6
 382 001c 3B68     		ldr	r3, [r7]
 383 001e 082B     		cmp	r3, #8
 384 0020 02D8     		bhi	.L16
 125:User/BSP/CAN_receive_send.c ****     TxHeader.DataLength = FDCAN_DLC_BYTES_8;
 385              		.loc 1 125 25
 386 0022 0823     		movs	r3, #8
 387 0024 3B62     		str	r3, [r7, #32]
 388 0026 25E0     		b	.L17
 389              	.L16:
ARM GAS  C:\Users\Godwin\AppData\Local\Temp\cc1oo7M6.s 			page 10


 126:User/BSP/CAN_receive_send.c ****   else if (len == 12)
 390              		.loc 1 126 11
 391 0028 3B68     		ldr	r3, [r7]
 392 002a 0C2B     		cmp	r3, #12
 393 002c 02D1     		bne	.L18
 127:User/BSP/CAN_receive_send.c ****     TxHeader.DataLength = FDCAN_DLC_BYTES_12;
 394              		.loc 1 127 25
 395 002e 0923     		movs	r3, #9
 396 0030 3B62     		str	r3, [r7, #32]
 397 0032 1FE0     		b	.L17
 398              	.L18:
 128:User/BSP/CAN_receive_send.c ****   else if (len == 16)
 399              		.loc 1 128 11
 400 0034 3B68     		ldr	r3, [r7]
 401 0036 102B     		cmp	r3, #16
 402 0038 02D1     		bne	.L19
 129:User/BSP/CAN_receive_send.c ****     TxHeader.DataLength = FDCAN_DLC_BYTES_16;
 403              		.loc 1 129 25
 404 003a 0A23     		movs	r3, #10
 405 003c 3B62     		str	r3, [r7, #32]
 406 003e 19E0     		b	.L17
 407              	.L19:
 130:User/BSP/CAN_receive_send.c ****   else if (len == 20)
 408              		.loc 1 130 11
 409 0040 3B68     		ldr	r3, [r7]
 410 0042 142B     		cmp	r3, #20
 411 0044 02D1     		bne	.L20
 131:User/BSP/CAN_receive_send.c ****     TxHeader.DataLength = FDCAN_DLC_BYTES_20;
 412              		.loc 1 131 25
 413 0046 0B23     		movs	r3, #11
 414 0048 3B62     		str	r3, [r7, #32]
 415 004a 13E0     		b	.L17
 416              	.L20:
 132:User/BSP/CAN_receive_send.c ****   else if (len == 24)
 417              		.loc 1 132 11
 418 004c 3B68     		ldr	r3, [r7]
 419 004e 182B     		cmp	r3, #24
 420 0050 02D1     		bne	.L21
 133:User/BSP/CAN_receive_send.c ****     TxHeader.DataLength = FDCAN_DLC_BYTES_24;
 421              		.loc 1 133 25
 422 0052 0C23     		movs	r3, #12
 423 0054 3B62     		str	r3, [r7, #32]
 424 0056 0DE0     		b	.L17
 425              	.L21:
 134:User/BSP/CAN_receive_send.c ****   else if (len == 48)
 426              		.loc 1 134 11
 427 0058 3B68     		ldr	r3, [r7]
 428 005a 302B     		cmp	r3, #48
 429 005c 02D1     		bne	.L22
 135:User/BSP/CAN_receive_send.c ****     TxHeader.DataLength = FDCAN_DLC_BYTES_48;
 430              		.loc 1 135 25
 431 005e 0E23     		movs	r3, #14
 432 0060 3B62     		str	r3, [r7, #32]
 433 0062 07E0     		b	.L17
 434              	.L22:
 136:User/BSP/CAN_receive_send.c ****   else if (len == 64)
 435              		.loc 1 136 11
ARM GAS  C:\Users\Godwin\AppData\Local\Temp\cc1oo7M6.s 			page 11


 436 0064 3B68     		ldr	r3, [r7]
 437 0066 402B     		cmp	r3, #64
 438 0068 02D1     		bne	.L23
 137:User/BSP/CAN_receive_send.c ****     TxHeader.DataLength = FDCAN_DLC_BYTES_64;
 439              		.loc 1 137 25
 440 006a 0F23     		movs	r3, #15
 441 006c 3B62     		str	r3, [r7, #32]
 442 006e 01E0     		b	.L17
 443              	.L23:
 138:User/BSP/CAN_receive_send.c ****   else
 139:User/BSP/CAN_receive_send.c ****     return 1;
 444              		.loc 1 139 12
 445 0070 0123     		movs	r3, #1
 446 0072 16E0     		b	.L26
 447              	.L17:
 140:User/BSP/CAN_receive_send.c **** 
 141:User/BSP/CAN_receive_send.c ****   TxHeader.ErrorStateIndicator = FDCAN_ESI_ACTIVE;
 448              		.loc 1 141 32
 449 0074 0023     		movs	r3, #0
 450 0076 7B62     		str	r3, [r7, #36]
 142:User/BSP/CAN_receive_send.c ****   TxHeader.BitRateSwitch = FDCAN_BRS_OFF;
 451              		.loc 1 142 26
 452 0078 0023     		movs	r3, #0
 453 007a BB62     		str	r3, [r7, #40]
 143:User/BSP/CAN_receive_send.c ****   TxHeader.FDFormat = FDCAN_CLASSIC_CAN;
 454              		.loc 1 143 21
 455 007c 0023     		movs	r3, #0
 456 007e FB62     		str	r3, [r7, #44]
 144:User/BSP/CAN_receive_send.c ****   TxHeader.TxEventFifoControl = FDCAN_NO_TX_EVENTS;
 457              		.loc 1 144 31
 458 0080 0023     		movs	r3, #0
 459 0082 3B63     		str	r3, [r7, #48]
 145:User/BSP/CAN_receive_send.c ****   TxHeader.MessageMarker = 0x00;
 460              		.loc 1 145 26
 461 0084 0023     		movs	r3, #0
 462 0086 7B63     		str	r3, [r7, #52]
 146:User/BSP/CAN_receive_send.c **** 
 147:User/BSP/CAN_receive_send.c ****   if (HAL_FDCAN_AddMessageToTxFifoQ(hcan, &TxHeader, data) != HAL_OK)
 463              		.loc 1 147 7
 464 0088 07F11403 		add	r3, r7, #20
 465 008c 7A68     		ldr	r2, [r7, #4]
 466 008e 1946     		mov	r1, r3
 467 0090 F868     		ldr	r0, [r7, #12]
 468 0092 FFF7FEFF 		bl	HAL_FDCAN_AddMessageToTxFifoQ
 469 0096 0346     		mov	r3, r0
 470              		.loc 1 147 6 discriminator 1
 471 0098 002B     		cmp	r3, #0
 472 009a 01D0     		beq	.L25
 148:User/BSP/CAN_receive_send.c ****   {
 149:User/BSP/CAN_receive_send.c ****     Error_Handler();
 473              		.loc 1 149 5
 474 009c FFF7FEFF 		bl	Error_Handler
 475              	.L25:
 150:User/BSP/CAN_receive_send.c ****   }
 151:User/BSP/CAN_receive_send.c ****   return 0;
 476              		.loc 1 151 10
 477 00a0 0023     		movs	r3, #0
ARM GAS  C:\Users\Godwin\AppData\Local\Temp\cc1oo7M6.s 			page 12


 478              	.L26:
 152:User/BSP/CAN_receive_send.c **** }
 479              		.loc 1 152 1
 480 00a2 1846     		mov	r0, r3
 481 00a4 3837     		adds	r7, r7, #56
 482              	.LCFI18:
 483              		.cfi_def_cfa_offset 8
 484 00a6 BD46     		mov	sp, r7
 485              	.LCFI19:
 486              		.cfi_def_cfa_register 13
 487              		@ sp needed
 488 00a8 80BD     		pop	{r7, pc}
 489              		.cfi_endproc
 490              	.LFE154:
 492              		.section	.text.fdcanx_receive,"ax",%progbits
 493              		.align	1
 494              		.global	fdcanx_receive
 495              		.syntax unified
 496              		.thumb
 497              		.thumb_func
 499              	fdcanx_receive:
 500              	.LFB155:
 153:User/BSP/CAN_receive_send.c **** 
 154:User/BSP/CAN_receive_send.c **** /**
 155:User/BSP/CAN_receive_send.c ****  * @brief 俊辺方象↙症痕方⇧音壅壓指距嶄聞喘⇧隠藻惹否來⇄
 156:User/BSP/CAN_receive_send.c ****  *        廣吭⦿緩痕方卦指峙涙吭吶⇧秀咏音勣聞喘
 157:User/BSP/CAN_receive_send.c ****  */
 158:User/BSP/CAN_receive_send.c **** uint8_t fdcanx_receive(FDCAN_HandleTypeDef *hfdcan, uint32_t RXFIFO, FDCAN_RxHeaderTypeDef *fdcan_R
 159:User/BSP/CAN_receive_send.c **** {
 501              		.loc 1 159 1
 502              		.cfi_startproc
 503              		@ args = 0, pretend = 0, frame = 16
 504              		@ frame_needed = 1, uses_anonymous_args = 0
 505 0000 80B5     		push	{r7, lr}
 506              	.LCFI20:
 507              		.cfi_def_cfa_offset 8
 508              		.cfi_offset 7, -8
 509              		.cfi_offset 14, -4
 510 0002 84B0     		sub	sp, sp, #16
 511              	.LCFI21:
 512              		.cfi_def_cfa_offset 24
 513 0004 00AF     		add	r7, sp, #0
 514              	.LCFI22:
 515              		.cfi_def_cfa_register 7
 516 0006 F860     		str	r0, [r7, #12]
 517 0008 B960     		str	r1, [r7, #8]
 518 000a 7A60     		str	r2, [r7, #4]
 519 000c 3B60     		str	r3, [r7]
 160:User/BSP/CAN_receive_send.c ****   if (HAL_FDCAN_GetRxMessage(hfdcan, RXFIFO, fdcan_RxHeader, buf) != HAL_OK)
 520              		.loc 1 160 7
 521 000e 3B68     		ldr	r3, [r7]
 522 0010 7A68     		ldr	r2, [r7, #4]
 523 0012 B968     		ldr	r1, [r7, #8]
 524 0014 F868     		ldr	r0, [r7, #12]
 525 0016 FFF7FEFF 		bl	HAL_FDCAN_GetRxMessage
 526 001a 0346     		mov	r3, r0
 527              		.loc 1 160 6 discriminator 1
ARM GAS  C:\Users\Godwin\AppData\Local\Temp\cc1oo7M6.s 			page 13


 528 001c 002B     		cmp	r3, #0
 529 001e 01D0     		beq	.L28
 161:User/BSP/CAN_receive_send.c ****     return 0;
 530              		.loc 1 161 12
 531 0020 0023     		movs	r3, #0
 532 0022 00E0     		b	.L29
 533              	.L28:
 162:User/BSP/CAN_receive_send.c ****   // 圻卦指 DataLength>>16 頁危列議⇧個葎卦指 0 賜 DLC 峙
 163:User/BSP/CAN_receive_send.c ****   return 0;
 534              		.loc 1 163 10
 535 0024 0023     		movs	r3, #0
 536              	.L29:
 164:User/BSP/CAN_receive_send.c **** }
 537              		.loc 1 164 1
 538 0026 1846     		mov	r0, r3
 539 0028 1037     		adds	r7, r7, #16
 540              	.LCFI23:
 541              		.cfi_def_cfa_offset 8
 542 002a BD46     		mov	sp, r7
 543              	.LCFI24:
 544              		.cfi_def_cfa_register 13
 545              		@ sp needed
 546 002c 80BD     		pop	{r7, pc}
 547              		.cfi_endproc
 548              	.LFE155:
 550              		.global	__aeabi_l2f
 551              		.global	__aeabi_f2lz
 552              		.section	.text.process_motor_data,"ax",%progbits
 553              		.align	1
 554              		.global	process_motor_data
 555              		.syntax unified
 556              		.thumb
 557              		.thumb_func
 559              	process_motor_data:
 560              	.LFB156:
 165:User/BSP/CAN_receive_send.c **** 
 166:User/BSP/CAN_receive_send.c **** /**
 167:User/BSP/CAN_receive_send.c ****  * @brief 窮字方象侃尖↙筈方拙紗⇄
 168:User/BSP/CAN_receive_send.c ****  */
 169:User/BSP/CAN_receive_send.c **** void process_motor_data(motor_measure_t *motor_data)
 170:User/BSP/CAN_receive_send.c **** {
 561              		.loc 1 170 1
 562              		.cfi_startproc
 563              		@ args = 0, pretend = 0, frame = 8
 564              		@ frame_needed = 1, uses_anonymous_args = 0
 565 0000 2DE9B043 		push	{r4, r5, r7, r8, r9, lr}
 566              	.LCFI25:
 567              		.cfi_def_cfa_offset 24
 568              		.cfi_offset 4, -24
 569              		.cfi_offset 5, -20
 570              		.cfi_offset 7, -16
 571              		.cfi_offset 8, -12
 572              		.cfi_offset 9, -8
 573              		.cfi_offset 14, -4
 574 0004 82B0     		sub	sp, sp, #8
 575              	.LCFI26:
 576              		.cfi_def_cfa_offset 32
ARM GAS  C:\Users\Godwin\AppData\Local\Temp\cc1oo7M6.s 			page 14


 577 0006 00AF     		add	r7, sp, #0
 578              	.LCFI27:
 579              		.cfi_def_cfa_register 7
 580 0008 7860     		str	r0, [r7, #4]
 171:User/BSP/CAN_receive_send.c ****   if (motor_data->last_ecd > 7000 && motor_data->ecd < 1000)
 581              		.loc 1 171 17
 582 000a 7B68     		ldr	r3, [r7, #4]
 583 000c B3F90A30 		ldrsh	r3, [r3, #10]
 584              		.loc 1 171 6
 585 0010 41F65832 		movw	r2, #7000
 586 0014 9342     		cmp	r3, r2
 587 0016 2CDD     		ble	.L31
 588              		.loc 1 171 48 discriminator 1
 589 0018 7B68     		ldr	r3, [r7, #4]
 590 001a 5B88     		ldrh	r3, [r3, #2]
 591              		.loc 1 171 35 discriminator 1
 592 001c B3F57A7F 		cmp	r3, #1000
 593 0020 27D2     		bcs	.L31
 172:User/BSP/CAN_receive_send.c ****     motor_data->ecd_cnt += ((ECD_MAX - motor_data->last_ecd) + motor_data->ecd);
 594              		.loc 1 172 15
 595 0022 7B68     		ldr	r3, [r7, #4]
 596 0024 D3E90423 		ldrd	r2, [r3, #16]
 597              		.loc 1 172 25
 598 0028 1046     		mov	r0, r2
 599 002a 1946     		mov	r1, r3
 600 002c FFF7FEFF 		bl	__aeabi_l2f
 601 0030 06EE900A 		vmov	s13, r0
 602              		.loc 1 172 50
 603 0034 7B68     		ldr	r3, [r7, #4]
 604 0036 B3F90A30 		ldrsh	r3, [r3, #10]
 605              		.loc 1 172 38
 606 003a 07EE903A 		vmov	s15, r3	@ int
 607 003e F8EEE77A 		vcvt.f32.s32	s15, s15
 608 0042 9FED337A 		vldr.32	s14, .L34
 609 0046 37EE677A 		vsub.f32	s14, s14, s15
 610              		.loc 1 172 74
 611 004a 7B68     		ldr	r3, [r7, #4]
 612 004c 5B88     		ldrh	r3, [r3, #2]
 613 004e 07EE903A 		vmov	s15, r3	@ int
 614              		.loc 1 172 62
 615 0052 F8EEE77A 		vcvt.f32.s32	s15, s15
 616 0056 77EE277A 		vadd.f32	s15, s14, s15
 617              		.loc 1 172 25
 618 005a 76EEA77A 		vadd.f32	s15, s13, s15
 619 005e 17EE900A 		vmov	r0, s15
 620 0062 FFF7FEFF 		bl	__aeabi_f2lz
 621 0066 0246     		mov	r2, r0
 622 0068 0B46     		mov	r3, r1
 623 006a 7968     		ldr	r1, [r7, #4]
 624 006c C1E90423 		strd	r2, [r1, #16]
 625 0070 48E0     		b	.L32
 626              	.L31:
 173:User/BSP/CAN_receive_send.c ****   else if (motor_data->last_ecd < 1000 && motor_data->ecd > 7000)
 627              		.loc 1 173 22
 628 0072 7B68     		ldr	r3, [r7, #4]
 629 0074 B3F90A30 		ldrsh	r3, [r3, #10]
 630              		.loc 1 173 11
ARM GAS  C:\Users\Godwin\AppData\Local\Temp\cc1oo7M6.s 			page 15


 631 0078 B3F57A7F 		cmp	r3, #1000
 632 007c 2DDA     		bge	.L33
 633              		.loc 1 173 53 discriminator 1
 634 007e 7B68     		ldr	r3, [r7, #4]
 635 0080 5B88     		ldrh	r3, [r3, #2]
 636              		.loc 1 173 40 discriminator 1
 637 0082 41F65832 		movw	r2, #7000
 638 0086 9342     		cmp	r3, r2
 639 0088 27D9     		bls	.L33
 174:User/BSP/CAN_receive_send.c ****     motor_data->ecd_cnt -= ((ECD_MAX - motor_data->ecd) + motor_data->last_ecd);
 640              		.loc 1 174 15
 641 008a 7B68     		ldr	r3, [r7, #4]
 642 008c D3E90423 		ldrd	r2, [r3, #16]
 643              		.loc 1 174 25
 644 0090 1046     		mov	r0, r2
 645 0092 1946     		mov	r1, r3
 646 0094 FFF7FEFF 		bl	__aeabi_l2f
 647 0098 06EE900A 		vmov	s13, r0
 648              		.loc 1 174 50
 649 009c 7B68     		ldr	r3, [r7, #4]
 650 009e 5B88     		ldrh	r3, [r3, #2]
 651 00a0 07EE903A 		vmov	s15, r3	@ int
 652              		.loc 1 174 38
 653 00a4 F8EEE77A 		vcvt.f32.s32	s15, s15
 654 00a8 9FED197A 		vldr.32	s14, .L34
 655 00ac 37EE677A 		vsub.f32	s14, s14, s15
 656              		.loc 1 174 69
 657 00b0 7B68     		ldr	r3, [r7, #4]
 658 00b2 B3F90A30 		ldrsh	r3, [r3, #10]
 659              		.loc 1 174 57
 660 00b6 07EE903A 		vmov	s15, r3	@ int
 661 00ba F8EEE77A 		vcvt.f32.s32	s15, s15
 662 00be 77EE277A 		vadd.f32	s15, s14, s15
 663              		.loc 1 174 25
 664 00c2 76EEE77A 		vsub.f32	s15, s13, s15
 665 00c6 17EE900A 		vmov	r0, s15
 666 00ca FFF7FEFF 		bl	__aeabi_f2lz
 667 00ce 0246     		mov	r2, r0
 668 00d0 0B46     		mov	r3, r1
 669 00d2 7968     		ldr	r1, [r7, #4]
 670 00d4 C1E90423 		strd	r2, [r1, #16]
 671 00d8 14E0     		b	.L32
 672              	.L33:
 175:User/BSP/CAN_receive_send.c ****   else
 176:User/BSP/CAN_receive_send.c ****     motor_data->ecd_cnt += (motor_data->ecd - motor_data->last_ecd);
 673              		.loc 1 176 15
 674 00da 7B68     		ldr	r3, [r7, #4]
 675 00dc D3E90423 		ldrd	r2, [r3, #16]
 676              		.loc 1 176 39
 677 00e0 7968     		ldr	r1, [r7, #4]
 678 00e2 4988     		ldrh	r1, [r1, #2]
 679 00e4 0846     		mov	r0, r1
 680              		.loc 1 176 57
 681 00e6 7968     		ldr	r1, [r7, #4]
 682 00e8 B1F90A10 		ldrsh	r1, [r1, #10]
 683              		.loc 1 176 45
 684 00ec 411A     		subs	r1, r0, r1
ARM GAS  C:\Users\Godwin\AppData\Local\Temp\cc1oo7M6.s 			page 16


 685 00ee C817     		asrs	r0, r1, #31
 686 00f0 0C46     		mov	r4, r1
 687 00f2 0546     		mov	r5, r0
 688              		.loc 1 176 25
 689 00f4 12EB0408 		adds	r8, r2, r4
 690 00f8 43EB0509 		adc	r9, r3, r5
 691 00fc 7B68     		ldr	r3, [r7, #4]
 692 00fe C3E90489 		strd	r8, [r3, #16]
 177:User/BSP/CAN_receive_send.c **** }
 693              		.loc 1 177 1
 694 0102 00BF     		nop
 695              	.L32:
 696 0104 00BF     		nop
 697 0106 0837     		adds	r7, r7, #8
 698              	.LCFI28:
 699              		.cfi_def_cfa_offset 24
 700 0108 BD46     		mov	sp, r7
 701              	.LCFI29:
 702              		.cfi_def_cfa_register 13
 703              		@ sp needed
 704 010a BDE8B083 		pop	{r4, r5, r7, r8, r9, pc}
 705              	.L35:
 706 010e 00BF     		.align	2
 707              	.L34:
 708 0110 00000046 		.word	1174405120
 709              		.cfi_endproc
 710              	.LFE156:
 712              		.section	.text.HAL_FDCAN_RxFifo0Callback,"ax",%progbits
 713              		.align	1
 714              		.global	HAL_FDCAN_RxFifo0Callback
 715              		.syntax unified
 716              		.thumb
 717              		.thumb_func
 719              	HAL_FDCAN_RxFifo0Callback:
 720              	.LFB157:
 178:User/BSP/CAN_receive_send.c **** 
 179:User/BSP/CAN_receive_send.c **** /**
 180:User/BSP/CAN_receive_send.c ****  * @brief CAN俊辺指距↙FDCAN IT0 嶄僅⇄
 181:User/BSP/CAN_receive_send.c ****  *        宰伉俐個⦿儉桟響函 FIFO 岷欺腎⇧閲窒吝竃
 182:User/BSP/CAN_receive_send.c ****  */
 183:User/BSP/CAN_receive_send.c **** void HAL_FDCAN_RxFifo0Callback(FDCAN_HandleTypeDef *hfdcan, uint32_t RxFifo0ITs)
 184:User/BSP/CAN_receive_send.c **** {
 721              		.loc 1 184 1
 722              		.cfi_startproc
 723              		@ args = 0, pretend = 0, frame = 64
 724              		@ frame_needed = 1, uses_anonymous_args = 0
 725 0000 80B5     		push	{r7, lr}
 726              	.LCFI30:
 727              		.cfi_def_cfa_offset 8
 728              		.cfi_offset 7, -8
 729              		.cfi_offset 14, -4
 730 0002 90B0     		sub	sp, sp, #64
 731              	.LCFI31:
 732              		.cfi_def_cfa_offset 72
 733 0004 00AF     		add	r7, sp, #0
 734              	.LCFI32:
 735              		.cfi_def_cfa_register 7
ARM GAS  C:\Users\Godwin\AppData\Local\Temp\cc1oo7M6.s 			page 17


 736 0006 7860     		str	r0, [r7, #4]
 737 0008 3960     		str	r1, [r7]
 185:User/BSP/CAN_receive_send.c ****   FDCAN_RxHeaderTypeDef rx_header;
 186:User/BSP/CAN_receive_send.c ****   uint8_t rx_data[8];
 187:User/BSP/CAN_receive_send.c **** 
 188:User/BSP/CAN_receive_send.c ****   if ((RxFifo0ITs & FDCAN_IT_RX_FIFO0_NEW_MESSAGE) == 0)
 738              		.loc 1 188 19
 739 000a 3B68     		ldr	r3, [r7]
 740 000c 03F00103 		and	r3, r3, #1
 741              		.loc 1 188 6
 742 0010 002B     		cmp	r3, #0
 743 0012 00F08480 		beq	.L52
 189:User/BSP/CAN_receive_send.c ****     return;
 190:User/BSP/CAN_receive_send.c **** 
 191:User/BSP/CAN_receive_send.c ****   while (HAL_FDCAN_GetRxMessage(hfdcan, FDCAN_RX_FIFO0, &rx_header, rx_data) == HAL_OK)
 744              		.loc 1 191 9
 745 0016 75E0     		b	.L39
 746              	.L51:
 192:User/BSP/CAN_receive_send.c ****   {
 193:User/BSP/CAN_receive_send.c ****     if (hfdcan->Instance == FDCAN1)
 747              		.loc 1 193 15
 748 0018 7B68     		ldr	r3, [r7, #4]
 749 001a 1B68     		ldr	r3, [r3]
 750              		.loc 1 193 8
 751 001c 424A     		ldr	r2, .L53
 752 001e 9342     		cmp	r3, r2
 753 0020 16D1     		bne	.L40
 194:User/BSP/CAN_receive_send.c ****     {
 195:User/BSP/CAN_receive_send.c ****       if (rx_header.Identifier == 0x141)
 754              		.loc 1 195 20
 755 0022 7B69     		ldr	r3, [r7, #20]
 756              		.loc 1 195 10
 757 0024 40F24112 		movw	r2, #321
 758 0028 9342     		cmp	r3, r2
 759 002a 06D1     		bne	.L41
 196:User/BSP/CAN_receive_send.c ****       {
 197:User/BSP/CAN_receive_send.c ****         ktech_parse_motor_fb(&motor_linkong[0], rx_data);
 760              		.loc 1 197 9
 761 002c 07F10C03 		add	r3, r7, #12
 762 0030 1946     		mov	r1, r3
 763 0032 3E48     		ldr	r0, .L53+4
 764 0034 FFF7FEFF 		bl	ktech_parse_motor_fb
 765 0038 64E0     		b	.L39
 766              	.L41:
 198:User/BSP/CAN_receive_send.c ****       }
 199:User/BSP/CAN_receive_send.c ****       else if (rx_header.Identifier == 0x142)
 767              		.loc 1 199 25
 768 003a 7B69     		ldr	r3, [r7, #20]
 769              		.loc 1 199 15
 770 003c B3F5A17F 		cmp	r3, #322
 771 0040 60D1     		bne	.L39
 200:User/BSP/CAN_receive_send.c ****       {
 201:User/BSP/CAN_receive_send.c ****         ktech_parse_motor_fb(&motor_linkong[1], rx_data);
 772              		.loc 1 201 9
 773 0042 07F10C03 		add	r3, r7, #12
 774 0046 1946     		mov	r1, r3
 775 0048 3948     		ldr	r0, .L53+8
ARM GAS  C:\Users\Godwin\AppData\Local\Temp\cc1oo7M6.s 			page 18


 776 004a FFF7FEFF 		bl	ktech_parse_motor_fb
 777 004e 59E0     		b	.L39
 778              	.L40:
 202:User/BSP/CAN_receive_send.c ****       }
 203:User/BSP/CAN_receive_send.c **** 
 204:User/BSP/CAN_receive_send.c **** 
 205:User/BSP/CAN_receive_send.c ****     }
 206:User/BSP/CAN_receive_send.c ****     else if (hfdcan->Instance == FDCAN2)
 779              		.loc 1 206 20
 780 0050 7B68     		ldr	r3, [r7, #4]
 781 0052 1B68     		ldr	r3, [r3]
 782              		.loc 1 206 13
 783 0054 374A     		ldr	r2, .L53+12
 784 0056 9342     		cmp	r3, r2
 785 0058 54D1     		bne	.L39
 207:User/BSP/CAN_receive_send.c ****     {
 208:User/BSP/CAN_receive_send.c ****       if (rx_header.IdType == FDCAN_STANDARD_ID)
 786              		.loc 1 208 20
 787 005a BB69     		ldr	r3, [r7, #24]
 788              		.loc 1 208 10
 789 005c 002B     		cmp	r3, #0
 790 005e 26D1     		bne	.L43
 209:User/BSP/CAN_receive_send.c ****       {
 210:User/BSP/CAN_receive_send.c **** 
 211:User/BSP/CAN_receive_send.c ****         switch (rx_header.Identifier)
 791              		.loc 1 211 26
 792 0060 7B69     		ldr	r3, [r7, #20]
 793              		.loc 1 211 9
 794 0062 062B     		cmp	r3, #6
 795 0064 14D0     		beq	.L44
 796 0066 062B     		cmp	r3, #6
 797 0068 19D8     		bhi	.L45
 798 006a 042B     		cmp	r3, #4
 799 006c 02D0     		beq	.L46
 800 006e 052B     		cmp	r3, #5
 801 0070 07D0     		beq	.L47
 802 0072 14E0     		b	.L45
 803              	.L46:
 804              	.LBB2:
 212:User/BSP/CAN_receive_send.c ****         {
 213:User/BSP/CAN_receive_send.c ****         case 4:
 214:User/BSP/CAN_receive_send.c ****           damiao_fbdata(&arm_motor[Motor4], rx_data);
 805              		.loc 1 214 11
 806 0074 07F10C03 		add	r3, r7, #12
 807 0078 1946     		mov	r1, r3
 808 007a 2F48     		ldr	r0, .L53+16
 809 007c FFF7FEFF 		bl	damiao_fbdata
 215:User/BSP/CAN_receive_send.c ****           break;
 810              		.loc 1 215 11
 811 0080 40E0     		b	.L39
 812              	.L47:
 216:User/BSP/CAN_receive_send.c ****         case 5:
 217:User/BSP/CAN_receive_send.c ****           damiao_fbdata(&arm_motor[Motor5], rx_data);
 813              		.loc 1 217 11
 814 0082 07F10C03 		add	r3, r7, #12
 815 0086 1946     		mov	r1, r3
 816 0088 2C48     		ldr	r0, .L53+20
ARM GAS  C:\Users\Godwin\AppData\Local\Temp\cc1oo7M6.s 			page 19


 817 008a FFF7FEFF 		bl	damiao_fbdata
 218:User/BSP/CAN_receive_send.c ****           break;
 818              		.loc 1 218 11
 819 008e 39E0     		b	.L39
 820              	.L44:
 219:User/BSP/CAN_receive_send.c ****         case 6:
 220:User/BSP/CAN_receive_send.c ****           damiao_fbdata(&arm_motor[Motor6], rx_data);
 821              		.loc 1 220 11
 822 0090 07F10C03 		add	r3, r7, #12
 823 0094 1946     		mov	r1, r3
 824 0096 2A48     		ldr	r0, .L53+24
 825 0098 FFF7FEFF 		bl	damiao_fbdata
 221:User/BSP/CAN_receive_send.c ****           break;
 826              		.loc 1 221 11
 827 009c 32E0     		b	.L39
 828              	.L45:
 222:User/BSP/CAN_receive_send.c ****         default:
 223:User/BSP/CAN_receive_send.c ****           // --- 仟奐⦿寄隼窮字侃尖 ---
 224:User/BSP/CAN_receive_send.c ****           // 戻函窮字ID↙ID議互5了⇄
 225:User/BSP/CAN_receive_send.c ****           uint8_t motor_id = (rx_header.Identifier >> 5) & 0x3F;
 829              		.loc 1 225 40
 830 009e 7B69     		ldr	r3, [r7, #20]
 831              		.loc 1 225 52
 832 00a0 5B09     		lsrs	r3, r3, #5
 833              		.loc 1 225 58
 834 00a2 DBB2     		uxtb	r3, r3
 835              		.loc 1 225 19
 836 00a4 03F03F03 		and	r3, r3, #63
 837 00a8 87F83E30 		strb	r3, [r7, #62]
 226:User/BSP/CAN_receive_send.c ****           if (motor_id == 11) // 艇聞喘議寄隼窮字ID
 227:User/BSP/CAN_receive_send.c ****           {
 228:User/BSP/CAN_receive_send.c ****             // 繍俊辺欺議方象贋秘駁強垂畠蕉延楚
 229:User/BSP/CAN_receive_send.c ****           }
 230:User/BSP/CAN_receive_send.c ****           else if (motor_id == 12)
 231:User/BSP/CAN_receive_send.c ****           {
 232:User/BSP/CAN_receive_send.c **** 
 233:User/BSP/CAN_receive_send.c ****           }
 234:User/BSP/CAN_receive_send.c ****           else if (motor_id == 13)
 235:User/BSP/CAN_receive_send.c ****           {
 236:User/BSP/CAN_receive_send.c ****             
 237:User/BSP/CAN_receive_send.c ****           }
 238:User/BSP/CAN_receive_send.c **** 
 239:User/BSP/CAN_receive_send.c ****           // 飛珊嗤凪麿炎彈屐窮字⇧辛壓緩制婢
 240:User/BSP/CAN_receive_send.c ****           break;
 838              		.loc 1 240 11
 839 00ac 2AE0     		b	.L39
 840              	.L43:
 841              	.LBE2:
 241:User/BSP/CAN_receive_send.c ****         }
 242:User/BSP/CAN_receive_send.c ****       }
 243:User/BSP/CAN_receive_send.c ****       else if (rx_header.IdType == FDCAN_EXTENDED_ID)
 842              		.loc 1 243 25
 843 00ae BB69     		ldr	r3, [r7, #24]
 844              		.loc 1 243 15
 845 00b0 B3F1804F 		cmp	r3, #1073741824
 846 00b4 26D1     		bne	.L39
 847              	.LBB3:
ARM GAS  C:\Users\Godwin\AppData\Local\Temp\cc1oo7M6.s 			page 20


 244:User/BSP/CAN_receive_send.c ****       {
 245:User/BSP/CAN_receive_send.c ****         // 制婢屐侃尖↙圻RobStride吉⇄
 246:User/BSP/CAN_receive_send.c ****         uint8_t target_id = (uint8_t)((rx_header.Identifier >> 8) & 0xFF);
 848              		.loc 1 246 49
 849 00b6 7B69     		ldr	r3, [r7, #20]
 850              		.loc 1 246 61
 851 00b8 1B0A     		lsrs	r3, r3, #8
 852              		.loc 1 246 17
 853 00ba 87F83F30 		strb	r3, [r7, #63]
 247:User/BSP/CAN_receive_send.c ****         if (target_id == 0x01)
 854              		.loc 1 247 12
 855 00be 97F83F30 		ldrb	r3, [r7, #63]	@ zero_extendqisi2
 856 00c2 012B     		cmp	r3, #1
 857 00c4 07D1     		bne	.L49
 248:User/BSP/CAN_receive_send.c ****         {
 249:User/BSP/CAN_receive_send.c ****           RobStride_Motor_Analysis(&motor1, rx_data, rx_header.Identifier);
 858              		.loc 1 249 11
 859 00c6 7A69     		ldr	r2, [r7, #20]
 860 00c8 07F10C03 		add	r3, r7, #12
 861 00cc 1946     		mov	r1, r3
 862 00ce 1D48     		ldr	r0, .L53+28
 863 00d0 FFF7FEFF 		bl	RobStride_Motor_Analysis
 864 00d4 16E0     		b	.L39
 865              	.L49:
 250:User/BSP/CAN_receive_send.c ****         }
 251:User/BSP/CAN_receive_send.c ****         else if (target_id == 0x02)
 866              		.loc 1 251 17
 867 00d6 97F83F30 		ldrb	r3, [r7, #63]	@ zero_extendqisi2
 868 00da 022B     		cmp	r3, #2
 869 00dc 07D1     		bne	.L50
 252:User/BSP/CAN_receive_send.c ****         {
 253:User/BSP/CAN_receive_send.c ****           RobStride_Motor_Analysis(&motor2, rx_data, rx_header.Identifier);
 870              		.loc 1 253 11
 871 00de 7A69     		ldr	r2, [r7, #20]
 872 00e0 07F10C03 		add	r3, r7, #12
 873 00e4 1946     		mov	r1, r3
 874 00e6 1848     		ldr	r0, .L53+32
 875 00e8 FFF7FEFF 		bl	RobStride_Motor_Analysis
 876 00ec 0AE0     		b	.L39
 877              	.L50:
 254:User/BSP/CAN_receive_send.c ****         }
 255:User/BSP/CAN_receive_send.c ****         else if (target_id == 0x03)
 878              		.loc 1 255 17
 879 00ee 97F83F30 		ldrb	r3, [r7, #63]	@ zero_extendqisi2
 880 00f2 032B     		cmp	r3, #3
 881 00f4 06D1     		bne	.L39
 256:User/BSP/CAN_receive_send.c ****         {
 257:User/BSP/CAN_receive_send.c ****           RobStride_Motor_Analysis(&motor3, rx_data, rx_header.Identifier);
 882              		.loc 1 257 11
 883 00f6 7A69     		ldr	r2, [r7, #20]
 884 00f8 07F10C03 		add	r3, r7, #12
 885 00fc 1946     		mov	r1, r3
 886 00fe 1348     		ldr	r0, .L53+36
 887 0100 FFF7FEFF 		bl	RobStride_Motor_Analysis
 888              	.L39:
 889              	.LBE3:
 191:User/BSP/CAN_receive_send.c ****   {
ARM GAS  C:\Users\Godwin\AppData\Local\Temp\cc1oo7M6.s 			page 21


 890              		.loc 1 191 10
 891 0104 07F10C03 		add	r3, r7, #12
 892 0108 07F11402 		add	r2, r7, #20
 893 010c 4021     		movs	r1, #64
 894 010e 7868     		ldr	r0, [r7, #4]
 895 0110 FFF7FEFF 		bl	HAL_FDCAN_GetRxMessage
 896 0114 0346     		mov	r3, r0
 191:User/BSP/CAN_receive_send.c ****   {
 897              		.loc 1 191 78 discriminator 1
 898 0116 002B     		cmp	r3, #0
 899 0118 3FF47EAF 		beq	.L51
 900 011c 00E0     		b	.L36
 901              	.L52:
 189:User/BSP/CAN_receive_send.c **** 
 902              		.loc 1 189 5 discriminator 1
 903 011e 00BF     		nop
 904              	.L36:
 258:User/BSP/CAN_receive_send.c ****         }
 259:User/BSP/CAN_receive_send.c ****       }
 260:User/BSP/CAN_receive_send.c ****     }
 261:User/BSP/CAN_receive_send.c ****   }
 262:User/BSP/CAN_receive_send.c **** }
 905              		.loc 1 262 1
 906 0120 4037     		adds	r7, r7, #64
 907              	.LCFI33:
 908              		.cfi_def_cfa_offset 8
 909 0122 BD46     		mov	sp, r7
 910              	.LCFI34:
 911              		.cfi_def_cfa_register 13
 912              		@ sp needed
 913 0124 80BD     		pop	{r7, pc}
 914              	.L54:
 915 0126 00BF     		.align	2
 916              	.L53:
 917 0128 00A00040 		.word	1073782784
 918 012c 00000000 		.word	motor_linkong
 919 0130 58000000 		.word	motor_linkong+88
 920 0134 00A40040 		.word	1073783808
 921 0138 30030000 		.word	arm_motor+816
 922 013c 40040000 		.word	arm_motor+1088
 923 0140 50050000 		.word	arm_motor+1360
 924 0144 00000000 		.word	motor1
 925 0148 00000000 		.word	motor2
 926 014c 00000000 		.word	motor3
 927              		.cfi_endproc
 928              	.LFE157:
 930              		.section	.text.HAL_FDCAN_ErrorCallback,"ax",%progbits
 931              		.align	1
 932              		.global	HAL_FDCAN_ErrorCallback
 933              		.syntax unified
 934              		.thumb
 935              		.thumb_func
 937              	HAL_FDCAN_ErrorCallback:
 938              	.LFB158:
 263:User/BSP/CAN_receive_send.c **** 
 264:User/BSP/CAN_receive_send.c **** /**
 265:User/BSP/CAN_receive_send.c ****  * @brief CAN危列侃尖指距⇧嶷仟兜兵晒旺志鹸狛陀匂↙揖扮塘崔炎彈才制婢⇄
ARM GAS  C:\Users\Godwin\AppData\Local\Temp\cc1oo7M6.s 			page 22


 266:User/BSP/CAN_receive_send.c ****  */
 267:User/BSP/CAN_receive_send.c **** void HAL_FDCAN_ErrorCallback(FDCAN_HandleTypeDef *hfdcan)
 268:User/BSP/CAN_receive_send.c **** {
 939              		.loc 1 268 1
 940              		.cfi_startproc
 941              		@ args = 0, pretend = 0, frame = 40
 942              		@ frame_needed = 1, uses_anonymous_args = 0
 943 0000 80B5     		push	{r7, lr}
 944              	.LCFI35:
 945              		.cfi_def_cfa_offset 8
 946              		.cfi_offset 7, -8
 947              		.cfi_offset 14, -4
 948 0002 8CB0     		sub	sp, sp, #48
 949              	.LCFI36:
 950              		.cfi_def_cfa_offset 56
 951 0004 02AF     		add	r7, sp, #8
 952              	.LCFI37:
 953              		.cfi_def_cfa 7, 48
 954 0006 7860     		str	r0, [r7, #4]
 269:User/BSP/CAN_receive_send.c ****   // 唯峭、郡兜兵晒、嶷仟兜兵晒
 270:User/BSP/CAN_receive_send.c ****   HAL_FDCAN_Stop(hfdcan);
 955              		.loc 1 270 3
 956 0008 7868     		ldr	r0, [r7, #4]
 957 000a FFF7FEFF 		bl	HAL_FDCAN_Stop
 271:User/BSP/CAN_receive_send.c ****   HAL_FDCAN_DeInit(hfdcan);
 958              		.loc 1 271 3
 959 000e 7868     		ldr	r0, [r7, #4]
 960 0010 FFF7FEFF 		bl	HAL_FDCAN_DeInit
 272:User/BSP/CAN_receive_send.c ****   HAL_FDCAN_Init(hfdcan);
 961              		.loc 1 272 3
 962 0014 7868     		ldr	r0, [r7, #4]
 963 0016 FFF7FEFF 		bl	HAL_FDCAN_Init
 273:User/BSP/CAN_receive_send.c **** 
 274:User/BSP/CAN_receive_send.c ****   // 嶷仟塘崔狛陀匂↙炎彈+制婢⇄
 275:User/BSP/CAN_receive_send.c ****   FDCAN_FilterTypeDef sFilter;
 276:User/BSP/CAN_receive_send.c ****   // 炎彈屐狛陀匂↙俊辺侭嗤炎彈屐⇄
 277:User/BSP/CAN_receive_send.c ****   sFilter.IdType = FDCAN_STANDARD_ID;
 964              		.loc 1 277 18
 965 001a 0023     		movs	r3, #0
 966 001c BB60     		str	r3, [r7, #8]
 278:User/BSP/CAN_receive_send.c ****   sFilter.FilterIndex = 0;
 967              		.loc 1 278 23
 968 001e 0023     		movs	r3, #0
 969 0020 FB60     		str	r3, [r7, #12]
 279:User/BSP/CAN_receive_send.c ****   sFilter.FilterType = FDCAN_FILTER_MASK;
 970              		.loc 1 279 22
 971 0022 0223     		movs	r3, #2
 972 0024 3B61     		str	r3, [r7, #16]
 280:User/BSP/CAN_receive_send.c ****   sFilter.FilterConfig = FDCAN_FILTER_TO_RXFIFO0;
 973              		.loc 1 280 24
 974 0026 0123     		movs	r3, #1
 975 0028 7B61     		str	r3, [r7, #20]
 281:User/BSP/CAN_receive_send.c ****   sFilter.FilterID1 = 0x000;
 976              		.loc 1 281 21
 977 002a 0023     		movs	r3, #0
 978 002c BB61     		str	r3, [r7, #24]
 282:User/BSP/CAN_receive_send.c ****   sFilter.FilterID2 = 0x000;
ARM GAS  C:\Users\Godwin\AppData\Local\Temp\cc1oo7M6.s 			page 23


 979              		.loc 1 282 21
 980 002e 0023     		movs	r3, #0
 981 0030 FB61     		str	r3, [r7, #28]
 283:User/BSP/CAN_receive_send.c ****   HAL_FDCAN_ConfigFilter(hfdcan, &sFilter);
 982              		.loc 1 283 3
 983 0032 07F10803 		add	r3, r7, #8
 984 0036 1946     		mov	r1, r3
 985 0038 7868     		ldr	r0, [r7, #4]
 986 003a FFF7FEFF 		bl	HAL_FDCAN_ConfigFilter
 284:User/BSP/CAN_receive_send.c **** 
 285:User/BSP/CAN_receive_send.c ****   // 制婢屐狛陀匂↙俊辺侭嗤制婢屐⇄
 286:User/BSP/CAN_receive_send.c ****   sFilter.IdType = FDCAN_EXTENDED_ID;
 987              		.loc 1 286 18
 988 003e 4FF08043 		mov	r3, #1073741824
 989 0042 BB60     		str	r3, [r7, #8]
 287:User/BSP/CAN_receive_send.c ****   sFilter.FilterIndex = 0; // 鏡羨沫哈腎寂
 990              		.loc 1 287 23
 991 0044 0023     		movs	r3, #0
 992 0046 FB60     		str	r3, [r7, #12]
 288:User/BSP/CAN_receive_send.c ****   sFilter.FilterID1 = 0x00000000;
 993              		.loc 1 288 21
 994 0048 0023     		movs	r3, #0
 995 004a BB61     		str	r3, [r7, #24]
 289:User/BSP/CAN_receive_send.c ****   sFilter.FilterID2 = 0x00000000;
 996              		.loc 1 289 21
 997 004c 0023     		movs	r3, #0
 998 004e FB61     		str	r3, [r7, #28]
 290:User/BSP/CAN_receive_send.c ****   HAL_FDCAN_ConfigFilter(hfdcan, &sFilter);
 999              		.loc 1 290 3
 1000 0050 07F10803 		add	r3, r7, #8
 1001 0054 1946     		mov	r1, r3
 1002 0056 7868     		ldr	r0, [r7, #4]
 1003 0058 FFF7FEFF 		bl	HAL_FDCAN_ConfigFilter
 291:User/BSP/CAN_receive_send.c **** 
 292:User/BSP/CAN_receive_send.c ****   // 辛僉⦿塘崔畠蕉狛陀匂葎俊鞭侭嗤↙飛音峐卆正狛陀匂⇧辛譜 FDCAN_ACCEPT_IN_RX_FIFO0⇄
 293:User/BSP/CAN_receive_send.c ****   HAL_FDCAN_ConfigGlobalFilter(hfdcan, FDCAN_ACCEPT_IN_RX_FIFO0, FDCAN_ACCEPT_IN_RX_FIFO0,
 1004              		.loc 1 293 3
 1005 005c 0023     		movs	r3, #0
 1006 005e 0093     		str	r3, [sp]
 1007 0060 0023     		movs	r3, #0
 1008 0062 0022     		movs	r2, #0
 1009 0064 0021     		movs	r1, #0
 1010 0066 7868     		ldr	r0, [r7, #4]
 1011 0068 FFF7FEFF 		bl	HAL_FDCAN_ConfigGlobalFilter
 294:User/BSP/CAN_receive_send.c ****                                FDCAN_FILTER_REMOTE, FDCAN_FILTER_REMOTE);
 295:User/BSP/CAN_receive_send.c **** 
 296:User/BSP/CAN_receive_send.c ****   // 嶷仟爾試宥岑旺尼強
 297:User/BSP/CAN_receive_send.c ****   HAL_FDCAN_ActivateNotification(hfdcan, FDCAN_IT_RX_FIFO0_NEW_MESSAGE, 0);
 1012              		.loc 1 297 3
 1013 006c 0022     		movs	r2, #0
 1014 006e 0121     		movs	r1, #1
 1015 0070 7868     		ldr	r0, [r7, #4]
 1016 0072 FFF7FEFF 		bl	HAL_FDCAN_ActivateNotification
 298:User/BSP/CAN_receive_send.c ****   HAL_FDCAN_Start(hfdcan);
 1017              		.loc 1 298 3
 1018 0076 7868     		ldr	r0, [r7, #4]
 1019 0078 FFF7FEFF 		bl	HAL_FDCAN_Start
ARM GAS  C:\Users\Godwin\AppData\Local\Temp\cc1oo7M6.s 			page 24


 299:User/BSP/CAN_receive_send.c **** }...
 1020              		.loc 1 299 1
 1021 007c 00BF     		nop
 1022 007e 2837     		adds	r7, r7, #40
 1023              	.LCFI38:
 1024              		.cfi_def_cfa_offset 8
 1025 0080 BD46     		mov	sp, r7
 1026              	.LCFI39:
 1027              		.cfi_def_cfa_register 13
 1028              		@ sp needed
 1029 0082 80BD     		pop	{r7, pc}
 1030              		.cfi_endproc
 1031              	.LFE158:
 1033              		.text
 1034              	.Letext0:
 1035              		.file 2 "C:/Users/Godwin/13.2 Rel1/arm-none-eabi/include/machine/_default_types.h"
 1036              		.file 3 "C:/Users/Godwin/13.2 Rel1/arm-none-eabi/include/sys/_stdint.h"
 1037              		.file 4 "Drivers/CMSIS/Device/ST/STM32H7xx/Include/stm32h723xx.h"
 1038              		.file 5 "Drivers/CMSIS/Device/ST/STM32H7xx/Include/stm32h7xx.h"
 1039              		.file 6 "Drivers/STM32H7xx_HAL_Driver/Inc/stm32h7xx_hal_def.h"
 1040              		.file 7 "Drivers/STM32H7xx_HAL_Driver/Inc/stm32h7xx_hal_fdcan.h"
 1041              		.file 8 "User/BSP/can_receive_send.h"
 1042              		.file 9 "User/Hardware/dm4310_drv.h"
 1043              		.file 10 "User/Hardware/Robstride04.h"
 1044              		.file 11 "User/Hardware/arm.h"
 1045              		.file 12 "User/Hardware/ktech_motor.h"
 1046              		.file 13 "User/Hardware/head.h"
 1047              		.file 14 "Core/Inc/main.h"
ARM GAS  C:\Users\Godwin\AppData\Local\Temp\cc1oo7M6.s 			page 25


DEFINED SYMBOLS
                            *ABS*:00000000 CAN_receive_send.c
C:\Users\Godwin\AppData\Local\Temp\cc1oo7M6.s:24     .bss.RxHeader1:00000000 RxHeader1
C:\Users\Godwin\AppData\Local\Temp\cc1oo7M6.s:21     .bss.RxHeader1:00000000 $d
C:\Users\Godwin\AppData\Local\Temp\cc1oo7M6.s:31     .bss.g_Can1RxData:00000000 g_Can1RxData
C:\Users\Godwin\AppData\Local\Temp\cc1oo7M6.s:28     .bss.g_Can1RxData:00000000 $d
C:\Users\Godwin\AppData\Local\Temp\cc1oo7M6.s:38     .bss.daibaoshan:00000000 daibaoshan
C:\Users\Godwin\AppData\Local\Temp\cc1oo7M6.s:35     .bss.daibaoshan:00000000 $d
C:\Users\Godwin\AppData\Local\Temp\cc1oo7M6.s:45     .bss.motor_data:00000000 motor_data
C:\Users\Godwin\AppData\Local\Temp\cc1oo7M6.s:42     .bss.motor_data:00000000 $d
C:\Users\Godwin\AppData\Local\Temp\cc1oo7M6.s:48     .text.can_init:00000000 $t
C:\Users\Godwin\AppData\Local\Temp\cc1oo7M6.s:54     .text.can_init:00000000 can_init
C:\Users\Godwin\AppData\Local\Temp\cc1oo7M6.s:83     .text.get_motor_measure:00000000 $t
C:\Users\Godwin\AppData\Local\Temp\cc1oo7M6.s:89     .text.get_motor_measure:00000000 get_motor_measure
C:\Users\Godwin\AppData\Local\Temp\cc1oo7M6.s:196    .text.canx_send_data:00000000 $t
C:\Users\Godwin\AppData\Local\Temp\cc1oo7M6.s:202    .text.canx_send_data:00000000 canx_send_data
C:\Users\Godwin\AppData\Local\Temp\cc1oo7M6.s:345    .text.canx_send_ext_data:00000000 $t
C:\Users\Godwin\AppData\Local\Temp\cc1oo7M6.s:351    .text.canx_send_ext_data:00000000 canx_send_ext_data
C:\Users\Godwin\AppData\Local\Temp\cc1oo7M6.s:493    .text.fdcanx_receive:00000000 $t
C:\Users\Godwin\AppData\Local\Temp\cc1oo7M6.s:499    .text.fdcanx_receive:00000000 fdcanx_receive
C:\Users\Godwin\AppData\Local\Temp\cc1oo7M6.s:553    .text.process_motor_data:00000000 $t
C:\Users\Godwin\AppData\Local\Temp\cc1oo7M6.s:559    .text.process_motor_data:00000000 process_motor_data
C:\Users\Godwin\AppData\Local\Temp\cc1oo7M6.s:708    .text.process_motor_data:00000110 $d
C:\Users\Godwin\AppData\Local\Temp\cc1oo7M6.s:713    .text.HAL_FDCAN_RxFifo0Callback:00000000 $t
C:\Users\Godwin\AppData\Local\Temp\cc1oo7M6.s:719    .text.HAL_FDCAN_RxFifo0Callback:00000000 HAL_FDCAN_RxFifo0Callback
C:\Users\Godwin\AppData\Local\Temp\cc1oo7M6.s:917    .text.HAL_FDCAN_RxFifo0Callback:00000128 $d
C:\Users\Godwin\AppData\Local\Temp\cc1oo7M6.s:931    .text.HAL_FDCAN_ErrorCallback:00000000 $t
C:\Users\Godwin\AppData\Local\Temp\cc1oo7M6.s:937    .text.HAL_FDCAN_ErrorCallback:00000000 HAL_FDCAN_ErrorCallback

UNDEFINED SYMBOLS
HAL_FDCAN_AddMessageToTxFifoQ
Error_Handler
HAL_FDCAN_GetRxMessage
__aeabi_l2f
__aeabi_f2lz
ktech_parse_motor_fb
damiao_fbdata
RobStride_Motor_Analysis
motor_linkong
arm_motor
motor1
motor2
motor3
HAL_FDCAN_Stop
HAL_FDCAN_DeInit
HAL_FDCAN_Init
HAL_FDCAN_ConfigFilter
HAL_FDCAN_ConfigGlobalFilter
HAL_FDCAN_ActivateNotification
HAL_FDCAN_Start
