ARM GAS  C:\Users\Godwin\AppData\Local\Temp\ccnuUyDc.s 			page 1


   1              		.cpu cortex-m7
   2              		.arch armv7e-m
   3              		.fpu fpv5-d16
   4              		.eabi_attribute 28, 1
   5              		.eabi_attribute 20, 1
   6              		.eabi_attribute 21, 1
   7              		.eabi_attribute 23, 3
   8              		.eabi_attribute 24, 1
   9              		.eabi_attribute 25, 1
  10              		.eabi_attribute 26, 1
  11              		.eabi_attribute 30, 6
  12              		.eabi_attribute 34, 1
  13              		.eabi_attribute 18, 4
  14              		.file	"DrEmpower_can.c"
  15              		.text
  16              	.Ltext0:
  17              		.cfi_sections	.debug_frame
  18              		.file 1 "User/Hardware/DrEmpower_can.c"
  19              		.global	command
  20              		.section	.bss.command,"aw",%nobits
  21              		.align	2
  24              	command:
  25 0000 00000000 		.space	64
  25      00000000 
  25      00000000 
  25      00000000 
  25      00000000 
  26              		.global	DaTemp
  27              		.section	.bss.DaTemp,"aw",%nobits
  28              		.align	2
  31              	DaTemp:
  32 0000 00000000 		.space	4
  33              		.global	i
  34              		.section	.bss.i,"aw",%nobits
  37              	i:
  38 0000 00       		.space	1
  39              		.global	rx_buffer
  40              		.section	.bss.rx_buffer,"aw",%nobits
  41              		.align	2
  44              	rx_buffer:
  45 0000 00000000 		.space	8
  45      00000000 
  46              		.global	can_id
  47              		.section	.bss.can_id,"aw",%nobits
  48              		.align	1
  51              	can_id:
  52 0000 0000     		.space	2
  53              		.global	READ_FLAG
  54              		.section	.bss.READ_FLAG,"aw",%nobits
  57              	READ_FLAG:
  58 0000 00       		.space	1
  59              		.global	TRAJ_MODE
  60              		.section	.data.TRAJ_MODE,"aw"
  63              	TRAJ_MODE:
  64 0000 01       		.byte	1
  65              		.global	enable_replay_state
  66              		.section	.bss.enable_replay_state,"aw",%nobits
ARM GAS  C:\Users\Godwin\AppData\Local\Temp\ccnuUyDc.s 			page 2


  69              	enable_replay_state:
  70 0000 00       		.space	1
  71              		.global	motor_state
  72              		.section	.bss.motor_state,"aw",%nobits
  73              		.align	2
  76              	motor_state:
  77 0000 00000000 		.space	320
  77      00000000 
  77      00000000 
  77      00000000 
  77      00000000 
  78              		.global	reply_state_error
  79              		.section	.bss.reply_state_error,"aw",%nobits
  80              		.align	2
  83              	reply_state_error:
  84 0000 00000000 		.space	4
  85              		.section	.text.send_command,"ax",%progbits
  86              		.align	1
  87              		.global	send_command
  88              		.syntax unified
  89              		.thumb
  90              		.thumb_func
  92              	send_command:
  93              	.LFB147:
   1:User/Hardware/DrEmpower_can.c **** /**************************************************
   2:User/Hardware/DrEmpower_can.c **** ´óČ»»úĆ÷ČË-Íâ×Ş×ÓĹĚĘ˝ÎŢË˘ËĹ·ţÇý¶ŻĆ÷żâ
   3:User/Hardware/DrEmpower_can.c **** 
   4:User/Hardware/DrEmpower_can.c **** ĘĘÓĂĆ˝Ě¨ŁşSTM32Ć˝Ě¨
   5:User/Hardware/DrEmpower_can.c **** żâ°ć±ľşĹŁşv2.1
   6:User/Hardware/DrEmpower_can.c **** ˛âĘÔÖ÷żŘ°ć±ľŁşSTM32f103c8t6
   7:User/Hardware/DrEmpower_can.c **** ˛âĘÔČËÔ±ŁşĚĆŐŃ
   8:User/Hardware/DrEmpower_can.c **** ˛âĘÔĘ±ĽäŁş2023.06.10
   9:User/Hardware/DrEmpower_can.c **** *************************************************/
  10:User/Hardware/DrEmpower_can.c **** #include "DrEmpower_can.h"
  11:User/Hardware/DrEmpower_can.c **** #include <string.h>
  12:User/Hardware/DrEmpower_can.c **** #include <stdlib.h>
  13:User/Hardware/DrEmpower_can.c **** #include <math.h>
  14:User/Hardware/DrEmpower_can.c **** //#include "usart.h"
  15:User/Hardware/DrEmpower_can.c **** #include <stdio.h>
  16:User/Hardware/DrEmpower_can.c **** #include "fdcan.h"
  17:User/Hardware/DrEmpower_can.c **** #include "can_receive_send.h"
  18:User/Hardware/DrEmpower_can.c **** #define INPUT_MODE_PASSTHROUGH 1
  19:User/Hardware/DrEmpower_can.c **** #define INPUT_MODE_VEL_RAMP 2
  20:User/Hardware/DrEmpower_can.c **** #define AXIS_STATE_IDLE 1
  21:User/Hardware/DrEmpower_can.c **** #define AXIS_STATE_CLOSED_LOOP_CONTROL 8
  22:User/Hardware/DrEmpower_can.c **** #define INPUT_MODE_TORQUE_RAMP  6
  23:User/Hardware/DrEmpower_can.c **** 
  24:User/Hardware/DrEmpower_can.c **** //#define SERVO_USART huart1              /* Çý¶Żµç»úĘąÓĂµÄ´®żÚ */
  25:User/Hardware/DrEmpower_can.c **** #define SERVO_RECEIVE_TIMEOUT 1000        /* ´®żÚ˝ÓĘŐł¬Ę±(ms) */
  26:User/Hardware/DrEmpower_can.c **** #define ENABLE_INPUT_VALIDITY_CHECK 1   /* ĘäČëşĎ·¨ĐÔĽě˛éˇŁÎŞ 0 Ę±˛»±ŕŇëżŐÖ¸ŐëĹĐ¶ĎµČĽě˛éŁ¬żÉĽőĐˇłĚĐ
  27:User/Hardware/DrEmpower_can.c **** 
  28:User/Hardware/DrEmpower_can.c **** #define SERVO_MALLOC(size) malloc(size) /* ČçąűĘąÓĂÁË˛Ů×÷ĎµÍłŁ¬ĐčŇŞ˝«Őâ¸öşŻĘý»»łÉ˛Ů×÷ĎµÍł¶ÔÓ¦µÄşŻĘý
  29:User/Hardware/DrEmpower_can.c **** #define SERVO_FREE(ptr) free(ptr)       /* ČçąűĘąÓĂÁË˛Ů×÷ĎµÍłŁ¬ĐčŇŞ˝«Őâ¸öşŻĘý»»łÉ˛Ů×÷ĎµÍł¶ÔÓ¦µÄşŻĘý
  30:User/Hardware/DrEmpower_can.c **** #define SERVO_DELAY(n) HAL_Delay(n)     /* ČçąűĘąÓĂÁË˛Ů×÷ĎµÍłŁ¬ĐčŇŞ˝«Őâ¸öşŻĘý»»łÉ˛Ů×÷ĎµÍł¶ÔÓ¦µÄşŻĘý
  31:User/Hardware/DrEmpower_can.c **** #define SERVO_SPRINTF sprintf           /* ĘąÓĂŐâ¸öşŻĘýĐčŇŞÔÚ Keil Ŕďą´Ńˇ Use MicroLIB »ňÔÚ STM32Cu
  32:User/Hardware/DrEmpower_can.c **** //#define PRE_READ() __HAL_UART_FLUSH_DRREGISTER(&SERVO_USART)
  33:User/Hardware/DrEmpower_can.c **** 
ARM GAS  C:\Users\Godwin\AppData\Local\Temp\ccnuUyDc.s 			page 3


  34:User/Hardware/DrEmpower_can.c **** char command[64];       // ĂüÁî·˘ËÍ»şłĺÇř
  35:User/Hardware/DrEmpower_can.c **** char DaTemp[4];
  36:User/Hardware/DrEmpower_can.c **** uint8_t i;
  37:User/Hardware/DrEmpower_can.c **** uint8_t rx_buffer[8];
  38:User/Hardware/DrEmpower_can.c **** uint16_t can_id = 0x00;
  39:User/Hardware/DrEmpower_can.c **** int8_t READ_FLAG = 0;  // ¶ÁČˇ˝áąű±ęÖľÎ»
  40:User/Hardware/DrEmpower_can.c **** 
  41:User/Hardware/DrEmpower_can.c **** int8_t TRAJ_MODE = 1;  //ËŮ¶ČąěĽŁÄŁĘ˝ŃˇÔńżŘÖĆŁ¬1±íĘľĚÝĐÎąěĽŁÄŁĘ˝Ł¬2±íĘľSĐÎąěĽŁÄŁĘ˝Ł¨Ö¸µÄĘÇËŮ¶ČÇúĎßĐ
  42:User/Hardware/DrEmpower_can.c **** 
  43:User/Hardware/DrEmpower_can.c **** int8_t enable_replay_state = 0;  //ČçĐčŇŞ´ňżŞÔË¶ŻżŘÖĆÖ¸ÁîĘµĘ±×´Ě¬·µ»Řą¦ÄÜŁ¬Çë˝«¸Ă±äÁż¸ÄÎŞ1Ł¬˛˘˝«ĎÂĂ
  44:User/Hardware/DrEmpower_can.c **** #define MOTOR_NUM  16
  45:User/Hardware/DrEmpower_can.c **** float motor_state[MOTOR_NUM][5];    //µç»ú×´Ě¬¶ţÎ¬Ęý×éŁ¬Í¨ąýmotor_state[id_num-1]»ńČˇµç»úid_numµÄĘµ
  46:User/Hardware/DrEmpower_can.c **** // # ĆäÖĐmotor_state[id_num-1][0]±íĘľid_numşĹµç»úµÄ˝Ç¶ČŁ¬motor_state[id_num-1][1]±íĘľid_numşĹµç»úµÄ
  47:User/Hardware/DrEmpower_can.c **** uint32_t reply_state_error = 0;   // reply_state´íÎó´ÎĘýŔŰ»ý±ęÖľ
  48:User/Hardware/DrEmpower_can.c **** 
  49:User/Hardware/DrEmpower_can.c **** //cur_angle_list = [];  //µ±Ç°˝Ç¶ČÁĐ±í
  50:User/Hardware/DrEmpower_can.c **** 
  51:User/Hardware/DrEmpower_can.c **** //"""
  52:User/Hardware/DrEmpower_can.c **** //ÄÚ˛ż¸¨ÖúşŻĘýŁ¬ÓĂ»§ÎŢĐčĘąÓĂ
  53:User/Hardware/DrEmpower_can.c **** //"""
  54:User/Hardware/DrEmpower_can.c **** 
  55:User/Hardware/DrEmpower_can.c **** // CAN·˘ËÍşŻĘý
  56:User/Hardware/DrEmpower_can.c **** void send_command(hcan_t* hcan,uint8_t id_num, char cmd, unsigned char *data,uint8_t rt )
  57:User/Hardware/DrEmpower_can.c **** {
  94              		.loc 1 57 1
  95              		.cfi_startproc
  96              		@ args = 4, pretend = 0, frame = 24
  97              		@ frame_needed = 1, uses_anonymous_args = 0
  98 0000 80B5     		push	{r7, lr}
  99              	.LCFI0:
 100              		.cfi_def_cfa_offset 8
 101              		.cfi_offset 7, -8
 102              		.cfi_offset 14, -4
 103 0002 86B0     		sub	sp, sp, #24
 104              	.LCFI1:
 105              		.cfi_def_cfa_offset 32
 106 0004 00AF     		add	r7, sp, #0
 107              	.LCFI2:
 108              		.cfi_def_cfa_register 7
 109 0006 F860     		str	r0, [r7, #12]
 110 0008 7B60     		str	r3, [r7, #4]
 111 000a 0B46     		mov	r3, r1
 112 000c FB72     		strb	r3, [r7, #11]
 113 000e 1346     		mov	r3, r2
 114 0010 BB72     		strb	r3, [r7, #10]
  58:User/Hardware/DrEmpower_can.c ****     short id_list = (id_num << 5) + cmd;
 115              		.loc 1 58 29
 116 0012 FB7A     		ldrb	r3, [r7, #11]	@ zero_extendqisi2
 117 0014 9BB2     		uxth	r3, r3
 118 0016 5B01     		lsls	r3, r3, #5
 119 0018 9AB2     		uxth	r2, r3
 120              		.loc 1 58 35
 121 001a BB7A     		ldrb	r3, [r7, #10]	@ zero_extendqisi2
 122 001c 9BB2     		uxth	r3, r3
 123 001e 1344     		add	r3, r3, r2
 124 0020 9BB2     		uxth	r3, r3
 125              		.loc 1 58 11
ARM GAS  C:\Users\Godwin\AppData\Local\Temp\ccnuUyDc.s 			page 4


 126 0022 FB82     		strh	r3, [r7, #22]	@ movhi
  59:User/Hardware/DrEmpower_can.c ****     // Can_Send_Msg(id_list, 8, data);
  60:User/Hardware/DrEmpower_can.c ****     canx_send_data(hcan, id_list, data, 8);
 127              		.loc 1 60 5
 128 0024 F98A     		ldrh	r1, [r7, #22]
 129 0026 0823     		movs	r3, #8
 130 0028 7A68     		ldr	r2, [r7, #4]
 131 002a F868     		ldr	r0, [r7, #12]
 132 002c FFF7FEFF 		bl	canx_send_data
  61:User/Hardware/DrEmpower_can.c **** }
 133              		.loc 1 61 1
 134 0030 00BF     		nop
 135 0032 1837     		adds	r7, r7, #24
 136              	.LCFI3:
 137              		.cfi_def_cfa_offset 8
 138 0034 BD46     		mov	sp, r7
 139              	.LCFI4:
 140              		.cfi_def_cfa_register 13
 141              		@ sp needed
 142 0036 80BD     		pop	{r7, pc}
 143              		.cfi_endproc
 144              	.LFE147:
 146              		.section	.text.SERVO_DELAY_US,"ax",%progbits
 147              		.align	1
 148              		.global	SERVO_DELAY_US
 149              		.syntax unified
 150              		.thumb
 151              		.thumb_func
 153              	SERVO_DELAY_US:
 154              	.LFB148:
  62:User/Hardware/DrEmpower_can.c **** 
  63:User/Hardware/DrEmpower_can.c **** void SERVO_DELAY_US(uint8_t tick)
  64:User/Hardware/DrEmpower_can.c **** {
 155              		.loc 1 64 1
 156              		.cfi_startproc
 157              		@ args = 0, pretend = 0, frame = 16
 158              		@ frame_needed = 1, uses_anonymous_args = 0
 159              		@ link register save eliminated.
 160 0000 80B4     		push	{r7}
 161              	.LCFI5:
 162              		.cfi_def_cfa_offset 4
 163              		.cfi_offset 7, -4
 164 0002 85B0     		sub	sp, sp, #20
 165              	.LCFI6:
 166              		.cfi_def_cfa_offset 24
 167 0004 00AF     		add	r7, sp, #0
 168              	.LCFI7:
 169              		.cfi_def_cfa_register 7
 170 0006 0346     		mov	r3, r0
 171 0008 FB71     		strb	r3, [r7, #7]
 172              	.LBB2:
  65:User/Hardware/DrEmpower_can.c ****     for(uint8_t t = 0; t<tick; t++);
 173              		.loc 1 65 17
 174 000a 0023     		movs	r3, #0
 175 000c FB73     		strb	r3, [r7, #15]
 176              		.loc 1 65 5
 177 000e 02E0     		b	.L3
ARM GAS  C:\Users\Godwin\AppData\Local\Temp\ccnuUyDc.s 			page 5


 178              	.L4:
 179              		.loc 1 65 33 discriminator 3
 180 0010 FB7B     		ldrb	r3, [r7, #15]	@ zero_extendqisi2
 181 0012 0133     		adds	r3, r3, #1
 182 0014 FB73     		strb	r3, [r7, #15]
 183              	.L3:
 184              		.loc 1 65 25 discriminator 1
 185 0016 FA7B     		ldrb	r2, [r7, #15]	@ zero_extendqisi2
 186 0018 FB79     		ldrb	r3, [r7, #7]	@ zero_extendqisi2
 187 001a 9A42     		cmp	r2, r3
 188 001c F8D3     		bcc	.L4
 189              	.LBE2:
  66:User/Hardware/DrEmpower_can.c **** }
 190              		.loc 1 66 1
 191 001e 00BF     		nop
 192 0020 00BF     		nop
 193 0022 1437     		adds	r7, r7, #20
 194              	.LCFI8:
 195              		.cfi_def_cfa_offset 4
 196 0024 BD46     		mov	sp, r7
 197              	.LCFI9:
 198              		.cfi_def_cfa_register 13
 199              		@ sp needed
 200 0026 5DF8047B 		ldr	r7, [sp], #4
 201              	.LCFI10:
 202              		.cfi_restore 7
 203              		.cfi_def_cfa_offset 0
 204 002a 7047     		bx	lr
 205              		.cfi_endproc
 206              	.LFE148:
 208              		.section	.text.receive_data,"ax",%progbits
 209              		.align	1
 210              		.global	receive_data
 211              		.syntax unified
 212              		.thumb
 213              		.thumb_func
 215              	receive_data:
 216              	.LFB149:
  67:User/Hardware/DrEmpower_can.c **** 
  68:User/Hardware/DrEmpower_can.c **** //CAN˝ÓĘŐşŻĘý
  69:User/Hardware/DrEmpower_can.c **** void receive_data(void)
  70:User/Hardware/DrEmpower_can.c **** {
 217              		.loc 1 70 1
 218              		.cfi_startproc
 219              		@ args = 0, pretend = 0, frame = 8
 220              		@ frame_needed = 1, uses_anonymous_args = 0
 221 0000 80B5     		push	{r7, lr}
 222              	.LCFI11:
 223              		.cfi_def_cfa_offset 8
 224              		.cfi_offset 7, -8
 225              		.cfi_offset 14, -4
 226 0002 82B0     		sub	sp, sp, #8
 227              	.LCFI12:
 228              		.cfi_def_cfa_offset 16
 229 0004 00AF     		add	r7, sp, #0
 230              	.LCFI13:
 231              		.cfi_def_cfa_register 7
ARM GAS  C:\Users\Godwin\AppData\Local\Temp\ccnuUyDc.s 			page 6


  71:User/Hardware/DrEmpower_can.c ****     uint8_t OutTime_mark=0;
 232              		.loc 1 71 13
 233 0006 0023     		movs	r3, #0
 234 0008 FB71     		strb	r3, [r7, #7]
  72:User/Hardware/DrEmpower_can.c ****     uint32_t  OutTime=0;
 235              		.loc 1 72 15
 236 000a 0023     		movs	r3, #0
 237 000c 3B60     		str	r3, [r7]
  73:User/Hardware/DrEmpower_can.c ****     while(OutTime_mark==0)
 238              		.loc 1 73 10
 239 000e 13E0     		b	.L6
 240              	.L9:
  74:User/Hardware/DrEmpower_can.c ****     {
  75:User/Hardware/DrEmpower_can.c ****         if( READ_FLAG ==1) OutTime_mark=1;
 241              		.loc 1 75 23
 242 0010 0D4B     		ldr	r3, .L10
 243 0012 93F90030 		ldrsb	r3, [r3]
 244              		.loc 1 75 11
 245 0016 012B     		cmp	r3, #1
 246 0018 01D1     		bne	.L7
 247              		.loc 1 75 40 discriminator 1
 248 001a 0123     		movs	r3, #1
 249 001c FB71     		strb	r3, [r7, #7]
 250              	.L7:
  76:User/Hardware/DrEmpower_can.c ****         SERVO_DELAY_US(1);
 251              		.loc 1 76 9
 252 001e 0120     		movs	r0, #1
 253 0020 FFF7FEFF 		bl	SERVO_DELAY_US
  77:User/Hardware/DrEmpower_can.c ****         OutTime++;
 254              		.loc 1 77 16
 255 0024 3B68     		ldr	r3, [r7]
 256 0026 0133     		adds	r3, r3, #1
 257 0028 3B60     		str	r3, [r7]
  78:User/Hardware/DrEmpower_can.c ****         if( OutTime ==0xfffe) OutTime_mark=1;
 258              		.loc 1 78 11
 259 002a 3B68     		ldr	r3, [r7]
 260 002c 4FF6FE72 		movw	r2, #65534
 261 0030 9342     		cmp	r3, r2
 262 0032 01D1     		bne	.L6
 263              		.loc 1 78 43 discriminator 1
 264 0034 0123     		movs	r3, #1
 265 0036 FB71     		strb	r3, [r7, #7]
 266              	.L6:
  73:User/Hardware/DrEmpower_can.c ****     {
 267              		.loc 1 73 23
 268 0038 FB79     		ldrb	r3, [r7, #7]	@ zero_extendqisi2
 269 003a 002B     		cmp	r3, #0
 270 003c E8D0     		beq	.L9
  79:User/Hardware/DrEmpower_can.c ****     }
  80:User/Hardware/DrEmpower_can.c **** }
 271              		.loc 1 80 1
 272 003e 00BF     		nop
 273 0040 00BF     		nop
 274 0042 0837     		adds	r7, r7, #8
 275              	.LCFI14:
 276              		.cfi_def_cfa_offset 8
 277 0044 BD46     		mov	sp, r7
ARM GAS  C:\Users\Godwin\AppData\Local\Temp\ccnuUyDc.s 			page 7


 278              	.LCFI15:
 279              		.cfi_def_cfa_register 13
 280              		@ sp needed
 281 0046 80BD     		pop	{r7, pc}
 282              	.L11:
 283              		.align	2
 284              	.L10:
 285 0048 00000000 		.word	READ_FLAG
 286              		.cfi_endproc
 287              	.LFE149:
 289              		.global	data_struct
 290              		.section	.bss.data_struct,"aw",%nobits
 291              		.align	2
 294              	data_struct:
 295 0000 00000000 		.space	4
 296              		.global	data_list
 297              		.section	.bss.data_list,"aw",%nobits
 298              		.align	2
 301              	data_list:
 302 0000 00000000 		.space	36
 302      00000000 
 302      00000000 
 302      00000000 
 302      00000000 
 303              		.section	.text.uint16_to_data,"ax",%progbits
 304              		.align	1
 305              		.syntax unified
 306              		.thumb
 307              		.thumb_func
 309              	uint16_to_data:
 310              	.LFB150:
  81:User/Hardware/DrEmpower_can.c **** 
  82:User/Hardware/DrEmpower_can.c **** 
  83:User/Hardware/DrEmpower_can.c **** // ĘýľÝ¸ńĘ˝×Ş»»şŻĘýŁ¬decodeĘÇ˝«¶ţ˝řÖĆ(bytes)×Ş»ŻłÉČËż´µÄ¶®µĂĘýľÝŁ¬encode·´Ö®
  84:User/Hardware/DrEmpower_can.c **** /*
  85:User/Hardware/DrEmpower_can.c **** floatŁ¬shortŁ¬unsigned shortŁ¬intŁ¬unsigned intÎĺÖÖĘýľÝŔŕĐÍÓëbyteŔŕĐÍµÄ×Ş»»
  86:User/Hardware/DrEmpower_can.c **** ÎĺÖÖĘýľÝ¶ÔÓ¦ĂűŁş0,1,2,3,4;
  87:User/Hardware/DrEmpower_can.c **** ĘąÓĂ·˝·¨Ł¬ÔÚşŻĘýÖĐµ÷ÓĂĘ±Łş
  88:User/Hardware/DrEmpower_can.c ****     Ę×ĎČŇŞÔÚµ÷ÓĂÇ°¶Ô˝áąąĚĺÄÚµÄĘýľÝ˝řĐĐ¸łÖµ
  89:User/Hardware/DrEmpower_can.c ****     value_data[3]ŁşČô˝«ÎĺÖÖŔŕĐÍµÄĘýľÝ×Ş»»ÎŞbyteŁ¬Ôň¸łÖµ
  90:User/Hardware/DrEmpower_can.c ****     byte_data[8]ŁşČô˝«byte×Ş»»ÎŞÎĺÖÖĘýľÝµÄŔŕĐÍŁ¬Ôň¸łÖµ
  91:User/Hardware/DrEmpower_can.c ****     type_data[3]ŔŕĐÍĂű¸łÖµŁ¨±ŘŇŞŁ©
  92:User/Hardware/DrEmpower_can.c ****     lengthŁşĘýľÝ¸öĘý¸łÖµŁ¨±ŘŇŞŁ©
  93:User/Hardware/DrEmpower_can.c **** 
  94:User/Hardware/DrEmpower_can.c **** Čô˝«ÎĺÖÖŔŕĐÍµÄĘýľÝ×Ş»»ÎŞbyteŁ¬µ÷ÓĂformat_data(data_struct data_list , char * str)Ł¬
  95:User/Hardware/DrEmpower_can.c ****     ˛ÎĘýÎŞŁş˝áąąĚĺÖ¸ŐëŁ¬ŇŞ×öµÄ˛Ů×÷Ł¨ĘäČëˇ°encodeˇ±Ł©
  96:User/Hardware/DrEmpower_can.c **** Čô˝«byte×Ş»»ÎŞÎĺÖÖĘýľÝµÄŔŕĐÍŁ¬µ÷ÓĂformat_data(data_struct data_list , char * str)Ł¬
  97:User/Hardware/DrEmpower_can.c ****     ˛ÎĘýÎŞŁş˝áąąĚĺÖ¸ŐëŁ¬ŇŞ×öµÄ˛Ů×÷Ł¨ĘäČëˇ°decodeˇ±Ł©
  98:User/Hardware/DrEmpower_can.c **** 
  99:User/Hardware/DrEmpower_can.c **** ĎÂĂćÁ˝¸öşŻĘýÔÚÉĎĘöÁ˝¸öşŻĘýÖĐ×Ô¶Żµ÷ÓĂŁ¬˛»ĐčŇŞĘąÓĂŐßÖ÷¶Żµ÷ÓĂ
 100:User/Hardware/DrEmpower_can.c ****     byte2value()
 101:User/Hardware/DrEmpower_can.c ****     value2byte()
 102:User/Hardware/DrEmpower_can.c **** 
 103:User/Hardware/DrEmpower_can.c **** typeŔŕĐÍŁş
 104:User/Hardware/DrEmpower_can.c **** type_data=0, ¸ˇµăĘýŁ¨floatŁ©,ĘýľÝł¤¶Č32Î»,·űşĹˇ®fˇŻ;
 105:User/Hardware/DrEmpower_can.c **** type_data=1, ÎŢ·űşĹ¶ĚŐűĘýŁ¨unsigned short intŁ©,ĘýľÝł¤¶Č16Î»,·űşĹˇ®u16ˇŻ;
 106:User/Hardware/DrEmpower_can.c **** type_data=2, ÓĐ·űşĹ¶ĚŐűĘýŁ¨short intŁ©,ĘýľÝł¤¶Č16Î»,·űşĹˇ®s16ˇŻ;
ARM GAS  C:\Users\Godwin\AppData\Local\Temp\ccnuUyDc.s 			page 8


 107:User/Hardware/DrEmpower_can.c **** type_data=3, ÎŢ·űşĹ¶ĚŐűĘýŁ¨unsigned intŁ©,ĘýľÝł¤¶Č32Î»,·űşĹˇ®u32ˇŻ;
 108:User/Hardware/DrEmpower_can.c **** type_data=4, ÓĐ·űşĹ¶ĚŐűĘýŁ¨intŁ©,ĘýľÝł¤¶Č32Î»,·űşĹˇ®s32ˇŻ;
 109:User/Hardware/DrEmpower_can.c **** 
 110:User/Hardware/DrEmpower_can.c **** */
 111:User/Hardware/DrEmpower_can.c **** struct format_data_struct
 112:User/Hardware/DrEmpower_can.c **** {
 113:User/Hardware/DrEmpower_can.c ****     float value_data[3];//Čô˝«ÎĺÖÖŔŕĐÍµÄĘýľÝ×Ş»»ÎŞbyteŁ¬Ôň¸łÖµ
 114:User/Hardware/DrEmpower_can.c ****     unsigned char byte_data[8];//Čô˝«byte×Ş»»ÎŞÎĺÖÖĘýľÝµÄŔŕĐÍŁ¬Ôň¸łÖµ
 115:User/Hardware/DrEmpower_can.c ****     int type_data[3];//ŔŕĐÍĂű¸łÖµŁ¨±ŘŇŞŁ©
 116:User/Hardware/DrEmpower_can.c ****     int length;//ĘýľÝ¸öĘý¸łÖµŁ¨±ŘŇŞŁ©
 117:User/Hardware/DrEmpower_can.c **** }*data_struct,data_list;  //¶¨ŇĺČ«ľÖ±äÁż data_listŁ¬ÓĂÓÚ˝řĐĐCANĘýľÝencodeşÍdecodeąýłĚÖĐ´ć´˘˛ÎĘýĘäČë
 118:User/Hardware/DrEmpower_can.c **** 
 119:User/Hardware/DrEmpower_can.c **** // note: the bit order is in accordance with intel little endian
 120:User/Hardware/DrEmpower_can.c **** static inline void uint16_to_data(uint16_t val, uint8_t *data)
 121:User/Hardware/DrEmpower_can.c **** {
 311              		.loc 1 121 1
 312              		.cfi_startproc
 313              		@ args = 0, pretend = 0, frame = 8
 314              		@ frame_needed = 1, uses_anonymous_args = 0
 315              		@ link register save eliminated.
 316 0000 80B4     		push	{r7}
 317              	.LCFI16:
 318              		.cfi_def_cfa_offset 4
 319              		.cfi_offset 7, -4
 320 0002 83B0     		sub	sp, sp, #12
 321              	.LCFI17:
 322              		.cfi_def_cfa_offset 16
 323 0004 00AF     		add	r7, sp, #0
 324              	.LCFI18:
 325              		.cfi_def_cfa_register 7
 326 0006 0346     		mov	r3, r0
 327 0008 3960     		str	r1, [r7]
 328 000a FB80     		strh	r3, [r7, #6]	@ movhi
 122:User/Hardware/DrEmpower_can.c ****     data[1] = (uint8_t)(val >> 8);
 329              		.loc 1 122 15
 330 000c FB88     		ldrh	r3, [r7, #6]
 331 000e 1B0A     		lsrs	r3, r3, #8
 332 0010 9AB2     		uxth	r2, r3
 333              		.loc 1 122 9
 334 0012 3B68     		ldr	r3, [r7]
 335 0014 0133     		adds	r3, r3, #1
 336              		.loc 1 122 15
 337 0016 D2B2     		uxtb	r2, r2
 338              		.loc 1 122 13
 339 0018 1A70     		strb	r2, [r3]
 123:User/Hardware/DrEmpower_can.c ****     data[0] = (uint8_t)(val);
 340              		.loc 1 123 15
 341 001a FB88     		ldrh	r3, [r7, #6]	@ movhi
 342 001c DAB2     		uxtb	r2, r3
 343              		.loc 1 123 13
 344 001e 3B68     		ldr	r3, [r7]
 345 0020 1A70     		strb	r2, [r3]
 124:User/Hardware/DrEmpower_can.c **** }
 346              		.loc 1 124 1
 347 0022 00BF     		nop
 348 0024 0C37     		adds	r7, r7, #12
 349              	.LCFI19:
ARM GAS  C:\Users\Godwin\AppData\Local\Temp\ccnuUyDc.s 			page 9


 350              		.cfi_def_cfa_offset 4
 351 0026 BD46     		mov	sp, r7
 352              	.LCFI20:
 353              		.cfi_def_cfa_register 13
 354              		@ sp needed
 355 0028 5DF8047B 		ldr	r7, [sp], #4
 356              	.LCFI21:
 357              		.cfi_restore 7
 358              		.cfi_def_cfa_offset 0
 359 002c 7047     		bx	lr
 360              		.cfi_endproc
 361              	.LFE150:
 363              		.section	.text.data_to_uint16,"ax",%progbits
 364              		.align	1
 365              		.syntax unified
 366              		.thumb
 367              		.thumb_func
 369              	data_to_uint16:
 370              	.LFB151:
 125:User/Hardware/DrEmpower_can.c **** static inline uint16_t data_to_uint16(uint8_t *data)
 126:User/Hardware/DrEmpower_can.c **** {
 371              		.loc 1 126 1
 372              		.cfi_startproc
 373              		@ args = 0, pretend = 0, frame = 16
 374              		@ frame_needed = 1, uses_anonymous_args = 0
 375              		@ link register save eliminated.
 376 0000 80B4     		push	{r7}
 377              	.LCFI22:
 378              		.cfi_def_cfa_offset 4
 379              		.cfi_offset 7, -4
 380 0002 85B0     		sub	sp, sp, #20
 381              	.LCFI23:
 382              		.cfi_def_cfa_offset 24
 383 0004 00AF     		add	r7, sp, #0
 384              	.LCFI24:
 385              		.cfi_def_cfa_register 7
 386 0006 7860     		str	r0, [r7, #4]
 127:User/Hardware/DrEmpower_can.c ****     uint16_t tmp_uint16;
 128:User/Hardware/DrEmpower_can.c ****     tmp_uint16 = (((uint32_t)data[1] << 8)  + ((uint32_t)data[0]));
 387              		.loc 1 128 34
 388 0008 7B68     		ldr	r3, [r7, #4]
 389 000a 0133     		adds	r3, r3, #1
 390 000c 1B78     		ldrb	r3, [r3]	@ zero_extendqisi2
 391              		.loc 1 128 38
 392 000e 1B02     		lsls	r3, r3, #8
 393 0010 9BB2     		uxth	r3, r3
 394              		.loc 1 128 62
 395 0012 7A68     		ldr	r2, [r7, #4]
 396 0014 1278     		ldrb	r2, [r2]	@ zero_extendqisi2
 397              		.loc 1 128 16
 398 0016 1344     		add	r3, r3, r2
 399 0018 FB81     		strh	r3, [r7, #14]	@ movhi
 129:User/Hardware/DrEmpower_can.c ****     return tmp_uint16;
 400              		.loc 1 129 12
 401 001a FB89     		ldrh	r3, [r7, #14]
 130:User/Hardware/DrEmpower_can.c **** }
 402              		.loc 1 130 1
ARM GAS  C:\Users\Godwin\AppData\Local\Temp\ccnuUyDc.s 			page 10


 403 001c 1846     		mov	r0, r3
 404 001e 1437     		adds	r7, r7, #20
 405              	.LCFI25:
 406              		.cfi_def_cfa_offset 4
 407 0020 BD46     		mov	sp, r7
 408              	.LCFI26:
 409              		.cfi_def_cfa_register 13
 410              		@ sp needed
 411 0022 5DF8047B 		ldr	r7, [sp], #4
 412              	.LCFI27:
 413              		.cfi_restore 7
 414              		.cfi_def_cfa_offset 0
 415 0026 7047     		bx	lr
 416              		.cfi_endproc
 417              	.LFE151:
 419              		.section	.text.uint_to_data,"ax",%progbits
 420              		.align	1
 421              		.syntax unified
 422              		.thumb
 423              		.thumb_func
 425              	uint_to_data:
 426              	.LFB152:
 131:User/Hardware/DrEmpower_can.c **** static inline void uint_to_data(uint32_t val, uint8_t *data)
 132:User/Hardware/DrEmpower_can.c **** {
 427              		.loc 1 132 1
 428              		.cfi_startproc
 429              		@ args = 0, pretend = 0, frame = 8
 430              		@ frame_needed = 1, uses_anonymous_args = 0
 431              		@ link register save eliminated.
 432 0000 80B4     		push	{r7}
 433              	.LCFI28:
 434              		.cfi_def_cfa_offset 4
 435              		.cfi_offset 7, -4
 436 0002 83B0     		sub	sp, sp, #12
 437              	.LCFI29:
 438              		.cfi_def_cfa_offset 16
 439 0004 00AF     		add	r7, sp, #0
 440              	.LCFI30:
 441              		.cfi_def_cfa_register 7
 442 0006 7860     		str	r0, [r7, #4]
 443 0008 3960     		str	r1, [r7]
 133:User/Hardware/DrEmpower_can.c ****     data[3] = (uint8_t)(val >> 24);
 444              		.loc 1 133 29
 445 000a 7B68     		ldr	r3, [r7, #4]
 446 000c 1A0E     		lsrs	r2, r3, #24
 447              		.loc 1 133 9
 448 000e 3B68     		ldr	r3, [r7]
 449 0010 0333     		adds	r3, r3, #3
 450              		.loc 1 133 15
 451 0012 D2B2     		uxtb	r2, r2
 452              		.loc 1 133 13
 453 0014 1A70     		strb	r2, [r3]
 134:User/Hardware/DrEmpower_can.c ****     data[2] = (uint8_t)(val >> 16);
 454              		.loc 1 134 29
 455 0016 7B68     		ldr	r3, [r7, #4]
 456 0018 1A0C     		lsrs	r2, r3, #16
 457              		.loc 1 134 9
ARM GAS  C:\Users\Godwin\AppData\Local\Temp\ccnuUyDc.s 			page 11


 458 001a 3B68     		ldr	r3, [r7]
 459 001c 0233     		adds	r3, r3, #2
 460              		.loc 1 134 15
 461 001e D2B2     		uxtb	r2, r2
 462              		.loc 1 134 13
 463 0020 1A70     		strb	r2, [r3]
 135:User/Hardware/DrEmpower_can.c ****     data[1] = (uint8_t)(val >> 8);
 464              		.loc 1 135 29
 465 0022 7B68     		ldr	r3, [r7, #4]
 466 0024 1A0A     		lsrs	r2, r3, #8
 467              		.loc 1 135 9
 468 0026 3B68     		ldr	r3, [r7]
 469 0028 0133     		adds	r3, r3, #1
 470              		.loc 1 135 15
 471 002a D2B2     		uxtb	r2, r2
 472              		.loc 1 135 13
 473 002c 1A70     		strb	r2, [r3]
 136:User/Hardware/DrEmpower_can.c ****     data[0] = (uint8_t)(val);
 474              		.loc 1 136 15
 475 002e 7B68     		ldr	r3, [r7, #4]
 476 0030 DAB2     		uxtb	r2, r3
 477              		.loc 1 136 13
 478 0032 3B68     		ldr	r3, [r7]
 479 0034 1A70     		strb	r2, [r3]
 137:User/Hardware/DrEmpower_can.c **** }
 480              		.loc 1 137 1
 481 0036 00BF     		nop
 482 0038 0C37     		adds	r7, r7, #12
 483              	.LCFI31:
 484              		.cfi_def_cfa_offset 4
 485 003a BD46     		mov	sp, r7
 486              	.LCFI32:
 487              		.cfi_def_cfa_register 13
 488              		@ sp needed
 489 003c 5DF8047B 		ldr	r7, [sp], #4
 490              	.LCFI33:
 491              		.cfi_restore 7
 492              		.cfi_def_cfa_offset 0
 493 0040 7047     		bx	lr
 494              		.cfi_endproc
 495              	.LFE152:
 497              		.section	.text.data_to_uint,"ax",%progbits
 498              		.align	1
 499              		.syntax unified
 500              		.thumb
 501              		.thumb_func
 503              	data_to_uint:
 504              	.LFB153:
 138:User/Hardware/DrEmpower_can.c **** static inline uint32_t data_to_uint(uint8_t *data)
 139:User/Hardware/DrEmpower_can.c **** {
 505              		.loc 1 139 1
 506              		.cfi_startproc
 507              		@ args = 0, pretend = 0, frame = 16
 508              		@ frame_needed = 1, uses_anonymous_args = 0
 509              		@ link register save eliminated.
 510 0000 80B4     		push	{r7}
 511              	.LCFI34:
ARM GAS  C:\Users\Godwin\AppData\Local\Temp\ccnuUyDc.s 			page 12


 512              		.cfi_def_cfa_offset 4
 513              		.cfi_offset 7, -4
 514 0002 85B0     		sub	sp, sp, #20
 515              	.LCFI35:
 516              		.cfi_def_cfa_offset 24
 517 0004 00AF     		add	r7, sp, #0
 518              	.LCFI36:
 519              		.cfi_def_cfa_register 7
 520 0006 7860     		str	r0, [r7, #4]
 140:User/Hardware/DrEmpower_can.c ****     uint32_t tmp_uint;
 141:User/Hardware/DrEmpower_can.c ****     tmp_uint = (((uint32_t)data[3] << 24) + ((uint32_t)data[2] << 16) + ((uint32_t)data[1] << 8)  +
 521              		.loc 1 141 32
 522 0008 7B68     		ldr	r3, [r7, #4]
 523 000a 0333     		adds	r3, r3, #3
 524 000c 1B78     		ldrb	r3, [r3]	@ zero_extendqisi2
 525              		.loc 1 141 36
 526 000e 1A06     		lsls	r2, r3, #24
 527              		.loc 1 141 60
 528 0010 7B68     		ldr	r3, [r7, #4]
 529 0012 0233     		adds	r3, r3, #2
 530 0014 1B78     		ldrb	r3, [r3]	@ zero_extendqisi2
 531              		.loc 1 141 64
 532 0016 1B04     		lsls	r3, r3, #16
 533              		.loc 1 141 43
 534 0018 1A44     		add	r2, r2, r3
 535              		.loc 1 141 88
 536 001a 7B68     		ldr	r3, [r7, #4]
 537 001c 0133     		adds	r3, r3, #1
 538 001e 1B78     		ldrb	r3, [r3]	@ zero_extendqisi2
 539              		.loc 1 141 92
 540 0020 1B02     		lsls	r3, r3, #8
 541              		.loc 1 141 71
 542 0022 1344     		add	r3, r3, r2
 543              		.loc 1 141 116
 544 0024 7A68     		ldr	r2, [r7, #4]
 545 0026 1278     		ldrb	r2, [r2]	@ zero_extendqisi2
 546              		.loc 1 141 14
 547 0028 1344     		add	r3, r3, r2
 548 002a FB60     		str	r3, [r7, #12]
 142:User/Hardware/DrEmpower_can.c ****     return tmp_uint;
 549              		.loc 1 142 12
 550 002c FB68     		ldr	r3, [r7, #12]
 143:User/Hardware/DrEmpower_can.c **** }
 551              		.loc 1 143 1
 552 002e 1846     		mov	r0, r3
 553 0030 1437     		adds	r7, r7, #20
 554              	.LCFI37:
 555              		.cfi_def_cfa_offset 4
 556 0032 BD46     		mov	sp, r7
 557              	.LCFI38:
 558              		.cfi_def_cfa_register 13
 559              		@ sp needed
 560 0034 5DF8047B 		ldr	r7, [sp], #4
 561              	.LCFI39:
 562              		.cfi_restore 7
 563              		.cfi_def_cfa_offset 0
 564 0038 7047     		bx	lr
ARM GAS  C:\Users\Godwin\AppData\Local\Temp\ccnuUyDc.s 			page 13


 565              		.cfi_endproc
 566              	.LFE153:
 568              		.section	.text.int16_to_data,"ax",%progbits
 569              		.align	1
 570              		.syntax unified
 571              		.thumb
 572              		.thumb_func
 574              	int16_to_data:
 575              	.LFB154:
 144:User/Hardware/DrEmpower_can.c **** static inline void int16_to_data(int16_t val, uint8_t *data)
 145:User/Hardware/DrEmpower_can.c **** {
 576              		.loc 1 145 1
 577              		.cfi_startproc
 578              		@ args = 0, pretend = 0, frame = 8
 579              		@ frame_needed = 1, uses_anonymous_args = 0
 580              		@ link register save eliminated.
 581 0000 80B4     		push	{r7}
 582              	.LCFI40:
 583              		.cfi_def_cfa_offset 4
 584              		.cfi_offset 7, -4
 585 0002 83B0     		sub	sp, sp, #12
 586              	.LCFI41:
 587              		.cfi_def_cfa_offset 16
 588 0004 00AF     		add	r7, sp, #0
 589              	.LCFI42:
 590              		.cfi_def_cfa_register 7
 591 0006 0346     		mov	r3, r0
 592 0008 3960     		str	r1, [r7]
 593 000a FB80     		strh	r3, [r7, #6]	@ movhi
 146:User/Hardware/DrEmpower_can.c ****     data[0] = *(((uint8_t*)(&val)) + 0);
 594              		.loc 1 146 29
 595 000c BB1D     		adds	r3, r7, #6
 596              		.loc 1 146 15
 597 000e 1A78     		ldrb	r2, [r3]	@ zero_extendqisi2
 598              		.loc 1 146 13
 599 0010 3B68     		ldr	r3, [r7]
 600 0012 1A70     		strb	r2, [r3]
 147:User/Hardware/DrEmpower_can.c ****     data[1] = *(((uint8_t*)(&val)) + 1);
 601              		.loc 1 147 9
 602 0014 3B68     		ldr	r3, [r7]
 603 0016 0133     		adds	r3, r3, #1
 604              		.loc 1 147 13
 605 0018 FA79     		ldrb	r2, [r7, #7]	@ zero_extendqisi2
 606 001a 1A70     		strb	r2, [r3]
 148:User/Hardware/DrEmpower_can.c **** }
 607              		.loc 1 148 1
 608 001c 00BF     		nop
 609 001e 0C37     		adds	r7, r7, #12
 610              	.LCFI43:
 611              		.cfi_def_cfa_offset 4
 612 0020 BD46     		mov	sp, r7
 613              	.LCFI44:
 614              		.cfi_def_cfa_register 13
 615              		@ sp needed
 616 0022 5DF8047B 		ldr	r7, [sp], #4
 617              	.LCFI45:
 618              		.cfi_restore 7
ARM GAS  C:\Users\Godwin\AppData\Local\Temp\ccnuUyDc.s 			page 14


 619              		.cfi_def_cfa_offset 0
 620 0026 7047     		bx	lr
 621              		.cfi_endproc
 622              	.LFE154:
 624              		.section	.text.data_to_int16,"ax",%progbits
 625              		.align	1
 626              		.syntax unified
 627              		.thumb
 628              		.thumb_func
 630              	data_to_int16:
 631              	.LFB155:
 149:User/Hardware/DrEmpower_can.c **** static inline int16_t data_to_int16(uint8_t *data)
 150:User/Hardware/DrEmpower_can.c **** {
 632              		.loc 1 150 1
 633              		.cfi_startproc
 634              		@ args = 0, pretend = 0, frame = 16
 635              		@ frame_needed = 1, uses_anonymous_args = 0
 636              		@ link register save eliminated.
 637 0000 80B4     		push	{r7}
 638              	.LCFI46:
 639              		.cfi_def_cfa_offset 4
 640              		.cfi_offset 7, -4
 641 0002 85B0     		sub	sp, sp, #20
 642              	.LCFI47:
 643              		.cfi_def_cfa_offset 24
 644 0004 00AF     		add	r7, sp, #0
 645              	.LCFI48:
 646              		.cfi_def_cfa_register 7
 647 0006 7860     		str	r0, [r7, #4]
 151:User/Hardware/DrEmpower_can.c ****     int16_t tmp_int16;
 152:User/Hardware/DrEmpower_can.c ****     *(((uint8_t*)(&tmp_int16)) + 0) = data[0];
 648              		.loc 1 152 19
 649 0008 07F10E03 		add	r3, r7, #14
 650              		.loc 1 152 43
 651 000c 7A68     		ldr	r2, [r7, #4]
 652 000e 1278     		ldrb	r2, [r2]	@ zero_extendqisi2
 653              		.loc 1 152 37
 654 0010 1A70     		strb	r2, [r3]
 153:User/Hardware/DrEmpower_can.c ****     *(((uint8_t*)(&tmp_int16)) + 1) = data[1];
 655              		.loc 1 153 32
 656 0012 07F10E03 		add	r3, r7, #14
 657 0016 0133     		adds	r3, r3, #1
 658              		.loc 1 153 37
 659 0018 7A68     		ldr	r2, [r7, #4]
 660 001a 5278     		ldrb	r2, [r2, #1]	@ zero_extendqisi2
 661 001c 1A70     		strb	r2, [r3]
 154:User/Hardware/DrEmpower_can.c ****     return tmp_int16;
 662              		.loc 1 154 12
 663 001e B7F90E30 		ldrsh	r3, [r7, #14]
 155:User/Hardware/DrEmpower_can.c **** }
 664              		.loc 1 155 1
 665 0022 1846     		mov	r0, r3
 666 0024 1437     		adds	r7, r7, #20
 667              	.LCFI49:
 668              		.cfi_def_cfa_offset 4
 669 0026 BD46     		mov	sp, r7
 670              	.LCFI50:
ARM GAS  C:\Users\Godwin\AppData\Local\Temp\ccnuUyDc.s 			page 15


 671              		.cfi_def_cfa_register 13
 672              		@ sp needed
 673 0028 5DF8047B 		ldr	r7, [sp], #4
 674              	.LCFI51:
 675              		.cfi_restore 7
 676              		.cfi_def_cfa_offset 0
 677 002c 7047     		bx	lr
 678              		.cfi_endproc
 679              	.LFE155:
 681              		.section	.text.int_to_data,"ax",%progbits
 682              		.align	1
 683              		.syntax unified
 684              		.thumb
 685              		.thumb_func
 687              	int_to_data:
 688              	.LFB156:
 156:User/Hardware/DrEmpower_can.c **** static inline void int_to_data(int val, uint8_t *data)
 157:User/Hardware/DrEmpower_can.c **** {
 689              		.loc 1 157 1
 690              		.cfi_startproc
 691              		@ args = 0, pretend = 0, frame = 8
 692              		@ frame_needed = 1, uses_anonymous_args = 0
 693              		@ link register save eliminated.
 694 0000 80B4     		push	{r7}
 695              	.LCFI52:
 696              		.cfi_def_cfa_offset 4
 697              		.cfi_offset 7, -4
 698 0002 83B0     		sub	sp, sp, #12
 699              	.LCFI53:
 700              		.cfi_def_cfa_offset 16
 701 0004 00AF     		add	r7, sp, #0
 702              	.LCFI54:
 703              		.cfi_def_cfa_register 7
 704 0006 7860     		str	r0, [r7, #4]
 705 0008 3960     		str	r1, [r7]
 158:User/Hardware/DrEmpower_can.c ****     data[0] = *(((uint8_t*)(&val)) + 0);
 706              		.loc 1 158 29
 707 000a 3B1D     		adds	r3, r7, #4
 708              		.loc 1 158 15
 709 000c 1A78     		ldrb	r2, [r3]	@ zero_extendqisi2
 710              		.loc 1 158 13
 711 000e 3B68     		ldr	r3, [r7]
 712 0010 1A70     		strb	r2, [r3]
 159:User/Hardware/DrEmpower_can.c ****     data[1] = *(((uint8_t*)(&val)) + 1);
 713              		.loc 1 159 9
 714 0012 3B68     		ldr	r3, [r7]
 715 0014 0133     		adds	r3, r3, #1
 716              		.loc 1 159 13
 717 0016 7A79     		ldrb	r2, [r7, #5]	@ zero_extendqisi2
 718 0018 1A70     		strb	r2, [r3]
 160:User/Hardware/DrEmpower_can.c ****     data[2] = *(((uint8_t*)(&val)) + 2);
 719              		.loc 1 160 9
 720 001a 3B68     		ldr	r3, [r7]
 721 001c 0233     		adds	r3, r3, #2
 722              		.loc 1 160 13
 723 001e BA79     		ldrb	r2, [r7, #6]	@ zero_extendqisi2
 724 0020 1A70     		strb	r2, [r3]
ARM GAS  C:\Users\Godwin\AppData\Local\Temp\ccnuUyDc.s 			page 16


 161:User/Hardware/DrEmpower_can.c ****     data[3] = *(((uint8_t*)(&val)) + 3);
 725              		.loc 1 161 9
 726 0022 3B68     		ldr	r3, [r7]
 727 0024 0333     		adds	r3, r3, #3
 728              		.loc 1 161 13
 729 0026 FA79     		ldrb	r2, [r7, #7]	@ zero_extendqisi2
 730 0028 1A70     		strb	r2, [r3]
 162:User/Hardware/DrEmpower_can.c **** }
 731              		.loc 1 162 1
 732 002a 00BF     		nop
 733 002c 0C37     		adds	r7, r7, #12
 734              	.LCFI55:
 735              		.cfi_def_cfa_offset 4
 736 002e BD46     		mov	sp, r7
 737              	.LCFI56:
 738              		.cfi_def_cfa_register 13
 739              		@ sp needed
 740 0030 5DF8047B 		ldr	r7, [sp], #4
 741              	.LCFI57:
 742              		.cfi_restore 7
 743              		.cfi_def_cfa_offset 0
 744 0034 7047     		bx	lr
 745              		.cfi_endproc
 746              	.LFE156:
 748              		.section	.text.data_to_int,"ax",%progbits
 749              		.align	1
 750              		.syntax unified
 751              		.thumb
 752              		.thumb_func
 754              	data_to_int:
 755              	.LFB157:
 163:User/Hardware/DrEmpower_can.c **** static inline int data_to_int(uint8_t *data)
 164:User/Hardware/DrEmpower_can.c **** {
 756              		.loc 1 164 1
 757              		.cfi_startproc
 758              		@ args = 0, pretend = 0, frame = 16
 759              		@ frame_needed = 1, uses_anonymous_args = 0
 760              		@ link register save eliminated.
 761 0000 80B4     		push	{r7}
 762              	.LCFI58:
 763              		.cfi_def_cfa_offset 4
 764              		.cfi_offset 7, -4
 765 0002 85B0     		sub	sp, sp, #20
 766              	.LCFI59:
 767              		.cfi_def_cfa_offset 24
 768 0004 00AF     		add	r7, sp, #0
 769              	.LCFI60:
 770              		.cfi_def_cfa_register 7
 771 0006 7860     		str	r0, [r7, #4]
 165:User/Hardware/DrEmpower_can.c ****     int tmp_int;
 166:User/Hardware/DrEmpower_can.c ****     *(((uint8_t*)(&tmp_int)) + 0) = data[0];
 772              		.loc 1 166 19
 773 0008 07F10C03 		add	r3, r7, #12
 774              		.loc 1 166 41
 775 000c 7A68     		ldr	r2, [r7, #4]
 776 000e 1278     		ldrb	r2, [r2]	@ zero_extendqisi2
 777              		.loc 1 166 35
ARM GAS  C:\Users\Godwin\AppData\Local\Temp\ccnuUyDc.s 			page 17


 778 0010 1A70     		strb	r2, [r3]
 167:User/Hardware/DrEmpower_can.c ****     *(((uint8_t*)(&tmp_int)) + 1) = data[1];
 779              		.loc 1 167 30
 780 0012 07F10C03 		add	r3, r7, #12
 781 0016 0133     		adds	r3, r3, #1
 782              		.loc 1 167 35
 783 0018 7A68     		ldr	r2, [r7, #4]
 784 001a 5278     		ldrb	r2, [r2, #1]	@ zero_extendqisi2
 785 001c 1A70     		strb	r2, [r3]
 168:User/Hardware/DrEmpower_can.c ****     *(((uint8_t*)(&tmp_int)) + 2) = data[2];
 786              		.loc 1 168 30
 787 001e 07F10C03 		add	r3, r7, #12
 788 0022 0233     		adds	r3, r3, #2
 789              		.loc 1 168 35
 790 0024 7A68     		ldr	r2, [r7, #4]
 791 0026 9278     		ldrb	r2, [r2, #2]	@ zero_extendqisi2
 792 0028 1A70     		strb	r2, [r3]
 169:User/Hardware/DrEmpower_can.c ****     *(((uint8_t*)(&tmp_int)) + 3) = data[3];
 793              		.loc 1 169 30
 794 002a 07F10C03 		add	r3, r7, #12
 795 002e 0333     		adds	r3, r3, #3
 796              		.loc 1 169 35
 797 0030 7A68     		ldr	r2, [r7, #4]
 798 0032 D278     		ldrb	r2, [r2, #3]	@ zero_extendqisi2
 799 0034 1A70     		strb	r2, [r3]
 170:User/Hardware/DrEmpower_can.c ****     return tmp_int;
 800              		.loc 1 170 12
 801 0036 FB68     		ldr	r3, [r7, #12]
 171:User/Hardware/DrEmpower_can.c **** }
 802              		.loc 1 171 1
 803 0038 1846     		mov	r0, r3
 804 003a 1437     		adds	r7, r7, #20
 805              	.LCFI61:
 806              		.cfi_def_cfa_offset 4
 807 003c BD46     		mov	sp, r7
 808              	.LCFI62:
 809              		.cfi_def_cfa_register 13
 810              		@ sp needed
 811 003e 5DF8047B 		ldr	r7, [sp], #4
 812              	.LCFI63:
 813              		.cfi_restore 7
 814              		.cfi_def_cfa_offset 0
 815 0042 7047     		bx	lr
 816              		.cfi_endproc
 817              	.LFE157:
 819              		.section	.text.float_to_data,"ax",%progbits
 820              		.align	1
 821              		.syntax unified
 822              		.thumb
 823              		.thumb_func
 825              	float_to_data:
 826              	.LFB158:
 172:User/Hardware/DrEmpower_can.c **** static inline void float_to_data(float val, uint8_t *data)
 173:User/Hardware/DrEmpower_can.c **** {
 827              		.loc 1 173 1
 828              		.cfi_startproc
 829              		@ args = 0, pretend = 0, frame = 8
ARM GAS  C:\Users\Godwin\AppData\Local\Temp\ccnuUyDc.s 			page 18


 830              		@ frame_needed = 1, uses_anonymous_args = 0
 831              		@ link register save eliminated.
 832 0000 80B4     		push	{r7}
 833              	.LCFI64:
 834              		.cfi_def_cfa_offset 4
 835              		.cfi_offset 7, -4
 836 0002 83B0     		sub	sp, sp, #12
 837              	.LCFI65:
 838              		.cfi_def_cfa_offset 16
 839 0004 00AF     		add	r7, sp, #0
 840              	.LCFI66:
 841              		.cfi_def_cfa_register 7
 842 0006 87ED010A 		vstr.32	s0, [r7, #4]
 843 000a 3860     		str	r0, [r7]
 174:User/Hardware/DrEmpower_can.c ****     data[0] = *(((uint8_t*)(&val)) + 0);
 844              		.loc 1 174 29
 845 000c 3B1D     		adds	r3, r7, #4
 846              		.loc 1 174 15
 847 000e 1A78     		ldrb	r2, [r3]	@ zero_extendqisi2
 848              		.loc 1 174 13
 849 0010 3B68     		ldr	r3, [r7]
 850 0012 1A70     		strb	r2, [r3]
 175:User/Hardware/DrEmpower_can.c ****     data[1] = *(((uint8_t*)(&val)) + 1);
 851              		.loc 1 175 9
 852 0014 3B68     		ldr	r3, [r7]
 853 0016 0133     		adds	r3, r3, #1
 854              		.loc 1 175 13
 855 0018 7A79     		ldrb	r2, [r7, #5]	@ zero_extendqisi2
 856 001a 1A70     		strb	r2, [r3]
 176:User/Hardware/DrEmpower_can.c ****     data[2] = *(((uint8_t*)(&val)) + 2);
 857              		.loc 1 176 9
 858 001c 3B68     		ldr	r3, [r7]
 859 001e 0233     		adds	r3, r3, #2
 860              		.loc 1 176 13
 861 0020 BA79     		ldrb	r2, [r7, #6]	@ zero_extendqisi2
 862 0022 1A70     		strb	r2, [r3]
 177:User/Hardware/DrEmpower_can.c ****     data[3] = *(((uint8_t*)(&val)) + 3);
 863              		.loc 1 177 9
 864 0024 3B68     		ldr	r3, [r7]
 865 0026 0333     		adds	r3, r3, #3
 866              		.loc 1 177 13
 867 0028 FA79     		ldrb	r2, [r7, #7]	@ zero_extendqisi2
 868 002a 1A70     		strb	r2, [r3]
 178:User/Hardware/DrEmpower_can.c **** }
 869              		.loc 1 178 1
 870 002c 00BF     		nop
 871 002e 0C37     		adds	r7, r7, #12
 872              	.LCFI67:
 873              		.cfi_def_cfa_offset 4
 874 0030 BD46     		mov	sp, r7
 875              	.LCFI68:
 876              		.cfi_def_cfa_register 13
 877              		@ sp needed
 878 0032 5DF8047B 		ldr	r7, [sp], #4
 879              	.LCFI69:
 880              		.cfi_restore 7
 881              		.cfi_def_cfa_offset 0
ARM GAS  C:\Users\Godwin\AppData\Local\Temp\ccnuUyDc.s 			page 19


 882 0036 7047     		bx	lr
 883              		.cfi_endproc
 884              	.LFE158:
 886              		.section	.text.data_to_float,"ax",%progbits
 887              		.align	1
 888              		.syntax unified
 889              		.thumb
 890              		.thumb_func
 892              	data_to_float:
 893              	.LFB159:
 179:User/Hardware/DrEmpower_can.c **** static inline float data_to_float(uint8_t *data)
 180:User/Hardware/DrEmpower_can.c **** {
 894              		.loc 1 180 1
 895              		.cfi_startproc
 896              		@ args = 0, pretend = 0, frame = 16
 897              		@ frame_needed = 1, uses_anonymous_args = 0
 898              		@ link register save eliminated.
 899 0000 80B4     		push	{r7}
 900              	.LCFI70:
 901              		.cfi_def_cfa_offset 4
 902              		.cfi_offset 7, -4
 903 0002 85B0     		sub	sp, sp, #20
 904              	.LCFI71:
 905              		.cfi_def_cfa_offset 24
 906 0004 00AF     		add	r7, sp, #0
 907              	.LCFI72:
 908              		.cfi_def_cfa_register 7
 909 0006 7860     		str	r0, [r7, #4]
 181:User/Hardware/DrEmpower_can.c ****     float tmp_float;
 182:User/Hardware/DrEmpower_can.c ****     *(((uint8_t*)(&tmp_float)) + 0) = data[0];
 910              		.loc 1 182 19
 911 0008 07F10C03 		add	r3, r7, #12
 912              		.loc 1 182 43
 913 000c 7A68     		ldr	r2, [r7, #4]
 914 000e 1278     		ldrb	r2, [r2]	@ zero_extendqisi2
 915              		.loc 1 182 37
 916 0010 1A70     		strb	r2, [r3]
 183:User/Hardware/DrEmpower_can.c ****     *(((uint8_t*)(&tmp_float)) + 1) = data[1];
 917              		.loc 1 183 32
 918 0012 07F10C03 		add	r3, r7, #12
 919 0016 0133     		adds	r3, r3, #1
 920              		.loc 1 183 37
 921 0018 7A68     		ldr	r2, [r7, #4]
 922 001a 5278     		ldrb	r2, [r2, #1]	@ zero_extendqisi2
 923 001c 1A70     		strb	r2, [r3]
 184:User/Hardware/DrEmpower_can.c ****     *(((uint8_t*)(&tmp_float)) + 2) = data[2];
 924              		.loc 1 184 32
 925 001e 07F10C03 		add	r3, r7, #12
 926 0022 0233     		adds	r3, r3, #2
 927              		.loc 1 184 37
 928 0024 7A68     		ldr	r2, [r7, #4]
 929 0026 9278     		ldrb	r2, [r2, #2]	@ zero_extendqisi2
 930 0028 1A70     		strb	r2, [r3]
 185:User/Hardware/DrEmpower_can.c ****     *(((uint8_t*)(&tmp_float)) + 3) = data[3];
 931              		.loc 1 185 32
 932 002a 07F10C03 		add	r3, r7, #12
 933 002e 0333     		adds	r3, r3, #3
ARM GAS  C:\Users\Godwin\AppData\Local\Temp\ccnuUyDc.s 			page 20


 934              		.loc 1 185 37
 935 0030 7A68     		ldr	r2, [r7, #4]
 936 0032 D278     		ldrb	r2, [r2, #3]	@ zero_extendqisi2
 937 0034 1A70     		strb	r2, [r3]
 186:User/Hardware/DrEmpower_can.c ****     return tmp_float;
 938              		.loc 1 186 12
 939 0036 FB68     		ldr	r3, [r7, #12]	@ float
 940 0038 07EE903A 		vmov	s15, r3
 187:User/Hardware/DrEmpower_can.c **** }
 941              		.loc 1 187 1
 942 003c B0EE670A 		vmov.f32	s0, s15
 943 0040 1437     		adds	r7, r7, #20
 944              	.LCFI73:
 945              		.cfi_def_cfa_offset 4
 946 0042 BD46     		mov	sp, r7
 947              	.LCFI74:
 948              		.cfi_def_cfa_register 13
 949              		@ sp needed
 950 0044 5DF8047B 		ldr	r7, [sp], #4
 951              	.LCFI75:
 952              		.cfi_restore 7
 953              		.cfi_def_cfa_offset 0
 954 0048 7047     		bx	lr
 955              		.cfi_endproc
 956              	.LFE159:
 958              		.section	.text.byte2value,"ax",%progbits
 959              		.align	1
 960              		.global	byte2value
 961              		.syntax unified
 962              		.thumb
 963              		.thumb_func
 965              	byte2value:
 966              	.LFB160:
 188:User/Hardware/DrEmpower_can.c **** 
 189:User/Hardware/DrEmpower_can.c **** //˛»ĐčÖ÷¶Żµ÷ÓĂ
 190:User/Hardware/DrEmpower_can.c **** void byte2value()
 191:User/Hardware/DrEmpower_can.c **** {
 967              		.loc 1 191 1
 968              		.cfi_startproc
 969              		@ args = 0, pretend = 0, frame = 8
 970              		@ frame_needed = 1, uses_anonymous_args = 0
 971 0000 80B5     		push	{r7, lr}
 972              	.LCFI76:
 973              		.cfi_def_cfa_offset 8
 974              		.cfi_offset 7, -8
 975              		.cfi_offset 14, -4
 976 0002 82B0     		sub	sp, sp, #8
 977              	.LCFI77:
 978              		.cfi_def_cfa_offset 16
 979 0004 00AF     		add	r7, sp, #0
 980              	.LCFI78:
 981              		.cfi_def_cfa_register 7
 192:User/Hardware/DrEmpower_can.c ****     int value_index = 0;
 982              		.loc 1 192 9
 983 0006 0023     		movs	r3, #0
 984 0008 7B60     		str	r3, [r7, #4]
 193:User/Hardware/DrEmpower_can.c ****     int byte_index = 0;
ARM GAS  C:\Users\Godwin\AppData\Local\Temp\ccnuUyDc.s 			page 21


 985              		.loc 1 193 9
 986 000a 0023     		movs	r3, #0
 987 000c 3B60     		str	r3, [r7]
 988              	.L39:
 194:User/Hardware/DrEmpower_can.c ****     while (1)
 195:User/Hardware/DrEmpower_can.c ****     {
 196:User/Hardware/DrEmpower_can.c ****         switch(data_list.type_data[value_index])
 989              		.loc 1 196 35
 990 000e 524A     		ldr	r2, .L41
 991 0010 7B68     		ldr	r3, [r7, #4]
 992 0012 0433     		adds	r3, r3, #4
 993 0014 9B00     		lsls	r3, r3, #2
 994 0016 1344     		add	r3, r3, r2
 995 0018 5B68     		ldr	r3, [r3, #4]
 996              		.loc 1 196 9
 997 001a 042B     		cmp	r3, #4
 998 001c 00F28B80 		bhi	.L28
 999 0020 01A2     		adr	r2, .L30
 1000 0022 52F823F0 		ldr	pc, [r2, r3, lsl #2]
 1001 0026 00BF     		.p2align 2
 1002              	.L30:
 1003 0028 3D000000 		.word	.L34+1
 1004 002c 6B000000 		.word	.L33+1
 1005 0030 9F000000 		.word	.L32+1
 1006 0034 D3000000 		.word	.L31+1
 1007 0038 05010000 		.word	.L29+1
 1008              		.p2align 1
 1009              	.L34:
 197:User/Hardware/DrEmpower_can.c ****         {
 198:User/Hardware/DrEmpower_can.c ****         case 0:
 199:User/Hardware/DrEmpower_can.c ****         {
 200:User/Hardware/DrEmpower_can.c ****             data_list.value_data[value_index] = (float)data_to_float(&data_list.byte_data[byte_inde
 1010              		.loc 1 200 70
 1011 003c 3B68     		ldr	r3, [r7]
 1012 003e 0833     		adds	r3, r3, #8
 1013 0040 454A     		ldr	r2, .L41
 1014 0042 1344     		add	r3, r3, r2
 1015 0044 0433     		adds	r3, r3, #4
 1016              		.loc 1 200 49
 1017 0046 1846     		mov	r0, r3
 1018 0048 FFF7FEFF 		bl	data_to_float
 1019 004c F0EE407A 		vmov.f32	s15, s0
 1020              		.loc 1 200 47 discriminator 1
 1021 0050 414A     		ldr	r2, .L41
 1022 0052 7B68     		ldr	r3, [r7, #4]
 1023 0054 9B00     		lsls	r3, r3, #2
 1024 0056 1344     		add	r3, r3, r2
 1025 0058 C3ED007A 		vstr.32	s15, [r3]
 201:User/Hardware/DrEmpower_can.c ****             byte_index = 4+byte_index;
 1026              		.loc 1 201 24
 1027 005c 3B68     		ldr	r3, [r7]
 1028 005e 0433     		adds	r3, r3, #4
 1029 0060 3B60     		str	r3, [r7]
 202:User/Hardware/DrEmpower_can.c ****             value_index++;
 1030              		.loc 1 202 24
 1031 0062 7B68     		ldr	r3, [r7, #4]
 1032 0064 0133     		adds	r3, r3, #1
ARM GAS  C:\Users\Godwin\AppData\Local\Temp\ccnuUyDc.s 			page 22


 1033 0066 7B60     		str	r3, [r7, #4]
 203:User/Hardware/DrEmpower_can.c ****         }
 204:User/Hardware/DrEmpower_can.c ****         break;
 1034              		.loc 1 204 9
 1035 0068 69E0     		b	.L35
 1036              	.L33:
 205:User/Hardware/DrEmpower_can.c ****         case 1:
 206:User/Hardware/DrEmpower_can.c ****         {
 207:User/Hardware/DrEmpower_can.c ****             data_list.value_data[value_index] = (float)data_to_uint16(&data_list.byte_data[byte_ind
 1037              		.loc 1 207 71
 1038 006a 3B68     		ldr	r3, [r7]
 1039 006c 0833     		adds	r3, r3, #8
 1040 006e 3A4A     		ldr	r2, .L41
 1041 0070 1344     		add	r3, r3, r2
 1042 0072 0433     		adds	r3, r3, #4
 1043              		.loc 1 207 56
 1044 0074 1846     		mov	r0, r3
 1045 0076 FFF7FEFF 		bl	data_to_uint16
 1046 007a 0346     		mov	r3, r0
 1047 007c 07EE903A 		vmov	s15, r3	@ int
 1048              		.loc 1 207 49 discriminator 1
 1049 0080 F8EE677A 		vcvt.f32.u32	s15, s15
 1050              		.loc 1 207 47 discriminator 1
 1051 0084 344A     		ldr	r2, .L41
 1052 0086 7B68     		ldr	r3, [r7, #4]
 1053 0088 9B00     		lsls	r3, r3, #2
 1054 008a 1344     		add	r3, r3, r2
 1055 008c C3ED007A 		vstr.32	s15, [r3]
 208:User/Hardware/DrEmpower_can.c ****             byte_index = 2+byte_index;
 1056              		.loc 1 208 24
 1057 0090 3B68     		ldr	r3, [r7]
 1058 0092 0233     		adds	r3, r3, #2
 1059 0094 3B60     		str	r3, [r7]
 209:User/Hardware/DrEmpower_can.c ****             value_index++;
 1060              		.loc 1 209 24
 1061 0096 7B68     		ldr	r3, [r7, #4]
 1062 0098 0133     		adds	r3, r3, #1
 1063 009a 7B60     		str	r3, [r7, #4]
 210:User/Hardware/DrEmpower_can.c ****         }
 211:User/Hardware/DrEmpower_can.c ****         break;
 1064              		.loc 1 211 9
 1065 009c 4FE0     		b	.L35
 1066              	.L32:
 212:User/Hardware/DrEmpower_can.c ****         case 2:
 213:User/Hardware/DrEmpower_can.c ****         {
 214:User/Hardware/DrEmpower_can.c ****             data_list.value_data[value_index] = (float)data_to_int16(&data_list.byte_data[byte_inde
 1067              		.loc 1 214 70
 1068 009e 3B68     		ldr	r3, [r7]
 1069 00a0 0833     		adds	r3, r3, #8
 1070 00a2 2D4A     		ldr	r2, .L41
 1071 00a4 1344     		add	r3, r3, r2
 1072 00a6 0433     		adds	r3, r3, #4
 1073              		.loc 1 214 56
 1074 00a8 1846     		mov	r0, r3
 1075 00aa FFF7FEFF 		bl	data_to_int16
 1076 00ae 0346     		mov	r3, r0
 1077 00b0 07EE903A 		vmov	s15, r3	@ int
ARM GAS  C:\Users\Godwin\AppData\Local\Temp\ccnuUyDc.s 			page 23


 1078              		.loc 1 214 49 discriminator 1
 1079 00b4 F8EEE77A 		vcvt.f32.s32	s15, s15
 1080              		.loc 1 214 47 discriminator 1
 1081 00b8 274A     		ldr	r2, .L41
 1082 00ba 7B68     		ldr	r3, [r7, #4]
 1083 00bc 9B00     		lsls	r3, r3, #2
 1084 00be 1344     		add	r3, r3, r2
 1085 00c0 C3ED007A 		vstr.32	s15, [r3]
 215:User/Hardware/DrEmpower_can.c ****             byte_index = 2+byte_index;
 1086              		.loc 1 215 24
 1087 00c4 3B68     		ldr	r3, [r7]
 1088 00c6 0233     		adds	r3, r3, #2
 1089 00c8 3B60     		str	r3, [r7]
 216:User/Hardware/DrEmpower_can.c ****             value_index++;
 1090              		.loc 1 216 24
 1091 00ca 7B68     		ldr	r3, [r7, #4]
 1092 00cc 0133     		adds	r3, r3, #1
 1093 00ce 7B60     		str	r3, [r7, #4]
 217:User/Hardware/DrEmpower_can.c ****         }
 218:User/Hardware/DrEmpower_can.c ****         break;
 1094              		.loc 1 218 9
 1095 00d0 35E0     		b	.L35
 1096              	.L31:
 219:User/Hardware/DrEmpower_can.c ****         case 3:
 220:User/Hardware/DrEmpower_can.c ****         {
 221:User/Hardware/DrEmpower_can.c ****             data_list.value_data[value_index] = (float)data_to_uint(&data_list.byte_data[byte_index
 1097              		.loc 1 221 69
 1098 00d2 3B68     		ldr	r3, [r7]
 1099 00d4 0833     		adds	r3, r3, #8
 1100 00d6 204A     		ldr	r2, .L41
 1101 00d8 1344     		add	r3, r3, r2
 1102 00da 0433     		adds	r3, r3, #4
 1103              		.loc 1 221 56
 1104 00dc 1846     		mov	r0, r3
 1105 00de FFF7FEFF 		bl	data_to_uint
 1106 00e2 07EE900A 		vmov	s15, r0	@ int
 1107              		.loc 1 221 49 discriminator 1
 1108 00e6 F8EE677A 		vcvt.f32.u32	s15, s15
 1109              		.loc 1 221 47 discriminator 1
 1110 00ea 1B4A     		ldr	r2, .L41
 1111 00ec 7B68     		ldr	r3, [r7, #4]
 1112 00ee 9B00     		lsls	r3, r3, #2
 1113 00f0 1344     		add	r3, r3, r2
 1114 00f2 C3ED007A 		vstr.32	s15, [r3]
 222:User/Hardware/DrEmpower_can.c ****             byte_index = 4+byte_index;
 1115              		.loc 1 222 24
 1116 00f6 3B68     		ldr	r3, [r7]
 1117 00f8 0433     		adds	r3, r3, #4
 1118 00fa 3B60     		str	r3, [r7]
 223:User/Hardware/DrEmpower_can.c ****             value_index++;
 1119              		.loc 1 223 24
 1120 00fc 7B68     		ldr	r3, [r7, #4]
 1121 00fe 0133     		adds	r3, r3, #1
 1122 0100 7B60     		str	r3, [r7, #4]
 224:User/Hardware/DrEmpower_can.c ****         }
 225:User/Hardware/DrEmpower_can.c ****         break;
 1123              		.loc 1 225 9
ARM GAS  C:\Users\Godwin\AppData\Local\Temp\ccnuUyDc.s 			page 24


 1124 0102 1CE0     		b	.L35
 1125              	.L29:
 226:User/Hardware/DrEmpower_can.c ****         case 4:
 227:User/Hardware/DrEmpower_can.c ****         {
 228:User/Hardware/DrEmpower_can.c ****             data_list.value_data[value_index] = (float)data_to_int(&data_list.byte_data[byte_index]
 1126              		.loc 1 228 68
 1127 0104 3B68     		ldr	r3, [r7]
 1128 0106 0833     		adds	r3, r3, #8
 1129 0108 134A     		ldr	r2, .L41
 1130 010a 1344     		add	r3, r3, r2
 1131 010c 0433     		adds	r3, r3, #4
 1132              		.loc 1 228 56
 1133 010e 1846     		mov	r0, r3
 1134 0110 FFF7FEFF 		bl	data_to_int
 1135 0114 07EE900A 		vmov	s15, r0	@ int
 1136              		.loc 1 228 49 discriminator 1
 1137 0118 F8EEE77A 		vcvt.f32.s32	s15, s15
 1138              		.loc 1 228 47 discriminator 1
 1139 011c 0E4A     		ldr	r2, .L41
 1140 011e 7B68     		ldr	r3, [r7, #4]
 1141 0120 9B00     		lsls	r3, r3, #2
 1142 0122 1344     		add	r3, r3, r2
 1143 0124 C3ED007A 		vstr.32	s15, [r3]
 229:User/Hardware/DrEmpower_can.c ****             byte_index = 4+byte_index;
 1144              		.loc 1 229 24
 1145 0128 3B68     		ldr	r3, [r7]
 1146 012a 0433     		adds	r3, r3, #4
 1147 012c 3B60     		str	r3, [r7]
 230:User/Hardware/DrEmpower_can.c ****             value_index++;
 1148              		.loc 1 230 24
 1149 012e 7B68     		ldr	r3, [r7, #4]
 1150 0130 0133     		adds	r3, r3, #1
 1151 0132 7B60     		str	r3, [r7, #4]
 231:User/Hardware/DrEmpower_can.c ****         }
 232:User/Hardware/DrEmpower_can.c ****         break;
 1152              		.loc 1 232 9
 1153 0134 03E0     		b	.L35
 1154              	.L28:
 233:User/Hardware/DrEmpower_can.c ****         default:
 234:User/Hardware/DrEmpower_can.c ****             value_index++;
 1155              		.loc 1 234 24
 1156 0136 7B68     		ldr	r3, [r7, #4]
 1157 0138 0133     		adds	r3, r3, #1
 1158 013a 7B60     		str	r3, [r7, #4]
 235:User/Hardware/DrEmpower_can.c ****             break;
 1159              		.loc 1 235 13
 1160 013c 00BF     		nop
 1161              	.L35:
 236:User/Hardware/DrEmpower_can.c ****         }
 237:User/Hardware/DrEmpower_can.c ****         if((byte_index>=8)||(value_index>=data_list.length))
 1162              		.loc 1 237 11
 1163 013e 3B68     		ldr	r3, [r7]
 1164 0140 072B     		cmp	r3, #7
 1165 0142 05DC     		bgt	.L40
 1166              		.loc 1 237 52 discriminator 1
 1167 0144 044B     		ldr	r3, .L41
 1168 0146 1B6A     		ldr	r3, [r3, #32]
ARM GAS  C:\Users\Godwin\AppData\Local\Temp\ccnuUyDc.s 			page 25


 1169              		.loc 1 237 27 discriminator 1
 1170 0148 7A68     		ldr	r2, [r7, #4]
 1171 014a 9A42     		cmp	r2, r3
 1172 014c 00DA     		bge	.L40
 196:User/Hardware/DrEmpower_can.c ****         {
 1173              		.loc 1 196 9
 1174 014e 5EE7     		b	.L39
 1175              	.L40:
 238:User/Hardware/DrEmpower_can.c ****         {
 239:User/Hardware/DrEmpower_can.c ****             return;
 1176              		.loc 1 239 13
 1177 0150 00BF     		nop
 240:User/Hardware/DrEmpower_can.c ****         }
 241:User/Hardware/DrEmpower_can.c ****     }
 242:User/Hardware/DrEmpower_can.c **** }
 1178              		.loc 1 242 1
 1179 0152 0837     		adds	r7, r7, #8
 1180              	.LCFI79:
 1181              		.cfi_def_cfa_offset 8
 1182 0154 BD46     		mov	sp, r7
 1183              	.LCFI80:
 1184              		.cfi_def_cfa_register 13
 1185              		@ sp needed
 1186 0156 80BD     		pop	{r7, pc}
 1187              	.L42:
 1188              		.align	2
 1189              	.L41:
 1190 0158 00000000 		.word	data_list
 1191              		.cfi_endproc
 1192              	.LFE160:
 1194              		.section	.text.value2byte,"ax",%progbits
 1195              		.align	1
 1196              		.global	value2byte
 1197              		.syntax unified
 1198              		.thumb
 1199              		.thumb_func
 1201              	value2byte:
 1202              	.LFB161:
 243:User/Hardware/DrEmpower_can.c **** //˛»ĐčÖ÷¶Żµ÷ÓĂ
 244:User/Hardware/DrEmpower_can.c **** void value2byte()
 245:User/Hardware/DrEmpower_can.c **** {
 1203              		.loc 1 245 1
 1204              		.cfi_startproc
 1205              		@ args = 0, pretend = 0, frame = 8
 1206              		@ frame_needed = 1, uses_anonymous_args = 0
 1207 0000 80B5     		push	{r7, lr}
 1208              	.LCFI81:
 1209              		.cfi_def_cfa_offset 8
 1210              		.cfi_offset 7, -8
 1211              		.cfi_offset 14, -4
 1212 0002 82B0     		sub	sp, sp, #8
 1213              	.LCFI82:
 1214              		.cfi_def_cfa_offset 16
 1215 0004 00AF     		add	r7, sp, #0
 1216              	.LCFI83:
 1217              		.cfi_def_cfa_register 7
 246:User/Hardware/DrEmpower_can.c ****     int byte_index=0;
ARM GAS  C:\Users\Godwin\AppData\Local\Temp\ccnuUyDc.s 			page 26


 1218              		.loc 1 246 9
 1219 0006 0023     		movs	r3, #0
 1220 0008 7B60     		str	r3, [r7, #4]
 247:User/Hardware/DrEmpower_can.c ****     int value_index=0;
 1221              		.loc 1 247 9
 1222 000a 0023     		movs	r3, #0
 1223 000c 3B60     		str	r3, [r7]
 1224              	.L56:
 248:User/Hardware/DrEmpower_can.c ****     while(1)
 249:User/Hardware/DrEmpower_can.c ****     {
 250:User/Hardware/DrEmpower_can.c ****         if (data_list.type_data[value_index]==0)
 1225              		.loc 1 250 32
 1226 000e 624A     		ldr	r2, .L58
 1227 0010 3B68     		ldr	r3, [r7]
 1228 0012 0433     		adds	r3, r3, #4
 1229 0014 9B00     		lsls	r3, r3, #2
 1230 0016 1344     		add	r3, r3, r2
 1231 0018 5B68     		ldr	r3, [r3, #4]
 1232              		.loc 1 250 12
 1233 001a 002B     		cmp	r3, #0
 1234 001c 15D1     		bne	.L44
 251:User/Hardware/DrEmpower_can.c ****         {
 252:User/Hardware/DrEmpower_can.c ****             float_to_data(data_list.value_data[value_index],&data_list.byte_data[byte_index]);
 1235              		.loc 1 252 13
 1236 001e 5E4A     		ldr	r2, .L58
 1237 0020 3B68     		ldr	r3, [r7]
 1238 0022 9B00     		lsls	r3, r3, #2
 1239 0024 1344     		add	r3, r3, r2
 1240 0026 D3ED007A 		vldr.32	s15, [r3]
 1241              		.loc 1 252 61
 1242 002a 7B68     		ldr	r3, [r7, #4]
 1243 002c 0833     		adds	r3, r3, #8
 1244 002e 5A4A     		ldr	r2, .L58
 1245 0030 1344     		add	r3, r3, r2
 1246 0032 0433     		adds	r3, r3, #4
 1247              		.loc 1 252 13
 1248 0034 1846     		mov	r0, r3
 1249 0036 B0EE670A 		vmov.f32	s0, s15
 1250 003a FFF7FEFF 		bl	float_to_data
 253:User/Hardware/DrEmpower_can.c ****             byte_index += 4;
 1251              		.loc 1 253 24
 1252 003e 7B68     		ldr	r3, [r7, #4]
 1253 0040 0433     		adds	r3, r3, #4
 1254 0042 7B60     		str	r3, [r7, #4]
 254:User/Hardware/DrEmpower_can.c ****             value_index += 1;
 1255              		.loc 1 254 25
 1256 0044 3B68     		ldr	r3, [r7]
 1257 0046 0133     		adds	r3, r3, #1
 1258 0048 3B60     		str	r3, [r7]
 1259              	.L44:
 255:User/Hardware/DrEmpower_can.c ****         }
 256:User/Hardware/DrEmpower_can.c ****         switch(data_list.type_data[value_index])
 1260              		.loc 1 256 35
 1261 004a 534A     		ldr	r2, .L58
 1262 004c 3B68     		ldr	r3, [r7]
 1263 004e 0433     		adds	r3, r3, #4
 1264 0050 9B00     		lsls	r3, r3, #2
ARM GAS  C:\Users\Godwin\AppData\Local\Temp\ccnuUyDc.s 			page 27


 1265 0052 1344     		add	r3, r3, r2
 1266 0054 5B68     		ldr	r3, [r3, #4]
 1267              		.loc 1 256 9
 1268 0056 042B     		cmp	r3, #4
 1269 0058 00F28D80 		bhi	.L45
 1270 005c 01A2     		adr	r2, .L47
 1271 005e 52F823F0 		ldr	pc, [r2, r3, lsl #2]
 1272 0062 00BF     		.p2align 2
 1273              	.L47:
 1274 0064 79000000 		.word	.L51+1
 1275 0068 A7000000 		.word	.L50+1
 1276 006c DD000000 		.word	.L49+1
 1277 0070 13010000 		.word	.L48+1
 1278 0074 45010000 		.word	.L46+1
 1279              		.p2align 1
 1280              	.L51:
 257:User/Hardware/DrEmpower_can.c ****         {
 258:User/Hardware/DrEmpower_can.c ****         case 0:
 259:User/Hardware/DrEmpower_can.c ****         {
 260:User/Hardware/DrEmpower_can.c ****             float_to_data(data_list.value_data[value_index],&data_list.byte_data[byte_index]);
 1281              		.loc 1 260 13
 1282 0078 474A     		ldr	r2, .L58
 1283 007a 3B68     		ldr	r3, [r7]
 1284 007c 9B00     		lsls	r3, r3, #2
 1285 007e 1344     		add	r3, r3, r2
 1286 0080 D3ED007A 		vldr.32	s15, [r3]
 1287              		.loc 1 260 61
 1288 0084 7B68     		ldr	r3, [r7, #4]
 1289 0086 0833     		adds	r3, r3, #8
 1290 0088 434A     		ldr	r2, .L58
 1291 008a 1344     		add	r3, r3, r2
 1292 008c 0433     		adds	r3, r3, #4
 1293              		.loc 1 260 13
 1294 008e 1846     		mov	r0, r3
 1295 0090 B0EE670A 		vmov.f32	s0, s15
 1296 0094 FFF7FEFF 		bl	float_to_data
 261:User/Hardware/DrEmpower_can.c ****             byte_index += 4;
 1297              		.loc 1 261 24
 1298 0098 7B68     		ldr	r3, [r7, #4]
 1299 009a 0433     		adds	r3, r3, #4
 1300 009c 7B60     		str	r3, [r7, #4]
 262:User/Hardware/DrEmpower_can.c ****             value_index += 1;
 1301              		.loc 1 262 25
 1302 009e 3B68     		ldr	r3, [r7]
 1303 00a0 0133     		adds	r3, r3, #1
 1304 00a2 3B60     		str	r3, [r7]
 263:User/Hardware/DrEmpower_can.c ****         }
 264:User/Hardware/DrEmpower_can.c ****         break;
 1305              		.loc 1 264 9
 1306 00a4 6BE0     		b	.L52
 1307              	.L50:
 265:User/Hardware/DrEmpower_can.c ****         case 1:
 266:User/Hardware/DrEmpower_can.c ****         {
 267:User/Hardware/DrEmpower_can.c ****             uint16_to_data(data_list.value_data[value_index],&data_list.byte_data[byte_index]);
 1308              		.loc 1 267 48
 1309 00a6 3C4A     		ldr	r2, .L58
 1310 00a8 3B68     		ldr	r3, [r7]
ARM GAS  C:\Users\Godwin\AppData\Local\Temp\ccnuUyDc.s 			page 28


 1311 00aa 9B00     		lsls	r3, r3, #2
 1312 00ac 1344     		add	r3, r3, r2
 1313 00ae D3ED007A 		vldr.32	s15, [r3]
 1314              		.loc 1 267 13
 1315 00b2 FCEEE77A 		vcvt.u32.f32	s15, s15
 1316 00b6 17EE903A 		vmov	r3, s15	@ int
 1317 00ba 9AB2     		uxth	r2, r3
 1318              		.loc 1 267 62
 1319 00bc 7B68     		ldr	r3, [r7, #4]
 1320 00be 0833     		adds	r3, r3, #8
 1321 00c0 3549     		ldr	r1, .L58
 1322 00c2 0B44     		add	r3, r3, r1
 1323 00c4 0433     		adds	r3, r3, #4
 1324              		.loc 1 267 13
 1325 00c6 1946     		mov	r1, r3
 1326 00c8 1046     		mov	r0, r2
 1327 00ca FFF7FEFF 		bl	uint16_to_data
 268:User/Hardware/DrEmpower_can.c ****             byte_index += 2;
 1328              		.loc 1 268 24
 1329 00ce 7B68     		ldr	r3, [r7, #4]
 1330 00d0 0233     		adds	r3, r3, #2
 1331 00d2 7B60     		str	r3, [r7, #4]
 269:User/Hardware/DrEmpower_can.c ****             value_index += 1;
 1332              		.loc 1 269 25
 1333 00d4 3B68     		ldr	r3, [r7]
 1334 00d6 0133     		adds	r3, r3, #1
 1335 00d8 3B60     		str	r3, [r7]
 270:User/Hardware/DrEmpower_can.c ****         }
 271:User/Hardware/DrEmpower_can.c ****         break;
 1336              		.loc 1 271 9
 1337 00da 50E0     		b	.L52
 1338              	.L49:
 272:User/Hardware/DrEmpower_can.c ****         case 2:
 273:User/Hardware/DrEmpower_can.c ****         {
 274:User/Hardware/DrEmpower_can.c ****             int16_to_data(data_list.value_data[value_index],&data_list.byte_data[byte_index]);
 1339              		.loc 1 274 47
 1340 00dc 2E4A     		ldr	r2, .L58
 1341 00de 3B68     		ldr	r3, [r7]
 1342 00e0 9B00     		lsls	r3, r3, #2
 1343 00e2 1344     		add	r3, r3, r2
 1344 00e4 D3ED007A 		vldr.32	s15, [r3]
 1345              		.loc 1 274 13
 1346 00e8 FDEEE77A 		vcvt.s32.f32	s15, s15
 1347 00ec 17EE903A 		vmov	r3, s15	@ int
 1348 00f0 1AB2     		sxth	r2, r3
 1349              		.loc 1 274 61
 1350 00f2 7B68     		ldr	r3, [r7, #4]
 1351 00f4 0833     		adds	r3, r3, #8
 1352 00f6 2849     		ldr	r1, .L58
 1353 00f8 0B44     		add	r3, r3, r1
 1354 00fa 0433     		adds	r3, r3, #4
 1355              		.loc 1 274 13
 1356 00fc 1946     		mov	r1, r3
 1357 00fe 1046     		mov	r0, r2
 1358 0100 FFF7FEFF 		bl	int16_to_data
 275:User/Hardware/DrEmpower_can.c ****             byte_index += 2;
 1359              		.loc 1 275 24
ARM GAS  C:\Users\Godwin\AppData\Local\Temp\ccnuUyDc.s 			page 29


 1360 0104 7B68     		ldr	r3, [r7, #4]
 1361 0106 0233     		adds	r3, r3, #2
 1362 0108 7B60     		str	r3, [r7, #4]
 276:User/Hardware/DrEmpower_can.c ****             value_index += 1;
 1363              		.loc 1 276 25
 1364 010a 3B68     		ldr	r3, [r7]
 1365 010c 0133     		adds	r3, r3, #1
 1366 010e 3B60     		str	r3, [r7]
 277:User/Hardware/DrEmpower_can.c ****         }
 278:User/Hardware/DrEmpower_can.c ****         break;
 1367              		.loc 1 278 9
 1368 0110 35E0     		b	.L52
 1369              	.L48:
 279:User/Hardware/DrEmpower_can.c ****         case 3:
 280:User/Hardware/DrEmpower_can.c ****         {
 281:User/Hardware/DrEmpower_can.c ****             uint_to_data(data_list.value_data[value_index],&data_list.byte_data[byte_index]);
 1370              		.loc 1 281 46
 1371 0112 214A     		ldr	r2, .L58
 1372 0114 3B68     		ldr	r3, [r7]
 1373 0116 9B00     		lsls	r3, r3, #2
 1374 0118 1344     		add	r3, r3, r2
 1375 011a D3ED007A 		vldr.32	s15, [r3]
 1376              		.loc 1 281 13
 1377 011e FCEEE77A 		vcvt.u32.f32	s15, s15
 1378              		.loc 1 281 60
 1379 0122 7B68     		ldr	r3, [r7, #4]
 1380 0124 0833     		adds	r3, r3, #8
 1381 0126 1C4A     		ldr	r2, .L58
 1382 0128 1344     		add	r3, r3, r2
 1383 012a 0433     		adds	r3, r3, #4
 1384              		.loc 1 281 13
 1385 012c 1946     		mov	r1, r3
 1386 012e 17EE900A 		vmov	r0, s15	@ int
 1387 0132 FFF7FEFF 		bl	uint_to_data
 282:User/Hardware/DrEmpower_can.c ****             byte_index += 4;
 1388              		.loc 1 282 24
 1389 0136 7B68     		ldr	r3, [r7, #4]
 1390 0138 0433     		adds	r3, r3, #4
 1391 013a 7B60     		str	r3, [r7, #4]
 283:User/Hardware/DrEmpower_can.c ****             value_index += 1;
 1392              		.loc 1 283 25
 1393 013c 3B68     		ldr	r3, [r7]
 1394 013e 0133     		adds	r3, r3, #1
 1395 0140 3B60     		str	r3, [r7]
 284:User/Hardware/DrEmpower_can.c ****         }
 285:User/Hardware/DrEmpower_can.c ****         break;
 1396              		.loc 1 285 9
 1397 0142 1CE0     		b	.L52
 1398              	.L46:
 286:User/Hardware/DrEmpower_can.c ****         case 4:
 287:User/Hardware/DrEmpower_can.c ****         {
 288:User/Hardware/DrEmpower_can.c ****             int_to_data(data_list.value_data[value_index],&data_list.byte_data[byte_index]);
 1399              		.loc 1 288 45
 1400 0144 144A     		ldr	r2, .L58
 1401 0146 3B68     		ldr	r3, [r7]
 1402 0148 9B00     		lsls	r3, r3, #2
 1403 014a 1344     		add	r3, r3, r2
ARM GAS  C:\Users\Godwin\AppData\Local\Temp\ccnuUyDc.s 			page 30


 1404 014c D3ED007A 		vldr.32	s15, [r3]
 1405              		.loc 1 288 13
 1406 0150 FDEEE77A 		vcvt.s32.f32	s15, s15
 1407              		.loc 1 288 59
 1408 0154 7B68     		ldr	r3, [r7, #4]
 1409 0156 0833     		adds	r3, r3, #8
 1410 0158 0F4A     		ldr	r2, .L58
 1411 015a 1344     		add	r3, r3, r2
 1412 015c 0433     		adds	r3, r3, #4
 1413              		.loc 1 288 13
 1414 015e 1946     		mov	r1, r3
 1415 0160 17EE900A 		vmov	r0, s15	@ int
 1416 0164 FFF7FEFF 		bl	int_to_data
 289:User/Hardware/DrEmpower_can.c ****             byte_index += 4;
 1417              		.loc 1 289 24
 1418 0168 7B68     		ldr	r3, [r7, #4]
 1419 016a 0433     		adds	r3, r3, #4
 1420 016c 7B60     		str	r3, [r7, #4]
 290:User/Hardware/DrEmpower_can.c ****             value_index += 1;
 1421              		.loc 1 290 25
 1422 016e 3B68     		ldr	r3, [r7]
 1423 0170 0133     		adds	r3, r3, #1
 1424 0172 3B60     		str	r3, [r7]
 291:User/Hardware/DrEmpower_can.c ****         }
 292:User/Hardware/DrEmpower_can.c ****         break;
 1425              		.loc 1 292 9
 1426 0174 03E0     		b	.L52
 1427              	.L45:
 293:User/Hardware/DrEmpower_can.c ****         default:
 294:User/Hardware/DrEmpower_can.c ****             value_index++;
 1428              		.loc 1 294 24
 1429 0176 3B68     		ldr	r3, [r7]
 1430 0178 0133     		adds	r3, r3, #1
 1431 017a 3B60     		str	r3, [r7]
 295:User/Hardware/DrEmpower_can.c ****             break;
 1432              		.loc 1 295 13
 1433 017c 00BF     		nop
 1434              	.L52:
 296:User/Hardware/DrEmpower_can.c ****         }
 297:User/Hardware/DrEmpower_can.c ****         if((byte_index >=8)||(value_index>=data_list.length))
 1435              		.loc 1 297 11
 1436 017e 7B68     		ldr	r3, [r7, #4]
 1437 0180 072B     		cmp	r3, #7
 1438 0182 05DC     		bgt	.L57
 1439              		.loc 1 297 53 discriminator 1
 1440 0184 044B     		ldr	r3, .L58
 1441 0186 1B6A     		ldr	r3, [r3, #32]
 1442              		.loc 1 297 28 discriminator 1
 1443 0188 3A68     		ldr	r2, [r7]
 1444 018a 9A42     		cmp	r2, r3
 1445 018c 00DA     		bge	.L57
 250:User/Hardware/DrEmpower_can.c ****         {
 1446              		.loc 1 250 12
 1447 018e 3EE7     		b	.L56
 1448              	.L57:
 298:User/Hardware/DrEmpower_can.c ****         {
 299:User/Hardware/DrEmpower_can.c ****             return;
ARM GAS  C:\Users\Godwin\AppData\Local\Temp\ccnuUyDc.s 			page 31


 1449              		.loc 1 299 13
 1450 0190 00BF     		nop
 300:User/Hardware/DrEmpower_can.c ****         }
 301:User/Hardware/DrEmpower_can.c ****     }
 302:User/Hardware/DrEmpower_can.c **** }
 1451              		.loc 1 302 1
 1452 0192 0837     		adds	r7, r7, #8
 1453              	.LCFI84:
 1454              		.cfi_def_cfa_offset 8
 1455 0194 BD46     		mov	sp, r7
 1456              	.LCFI85:
 1457              		.cfi_def_cfa_register 13
 1458              		@ sp needed
 1459 0196 80BD     		pop	{r7, pc}
 1460              	.L59:
 1461              		.align	2
 1462              	.L58:
 1463 0198 00000000 		.word	data_list
 1464              		.cfi_endproc
 1465              	.LFE161:
 1467              		.section	.rodata
 1468              		.align	2
 1469              	.LC5:
 1470 0000 656E636F 		.ascii	"encode\000"
 1470      646500
 1471 0007 00       		.align	2
 1472              	.LC6:
 1473 0008 6465636F 		.ascii	"decode\000"
 1473      646500
 1474              		.section	.text.format_data,"ax",%progbits
 1475              		.align	1
 1476              		.global	format_data
 1477              		.syntax unified
 1478              		.thumb
 1479              		.thumb_func
 1481              	format_data:
 1482              	.LFB162:
 303:User/Hardware/DrEmpower_can.c **** 
 304:User/Hardware/DrEmpower_can.c **** //˛ÎĘý˝áąąĚĺÖ¸ŐëŁ¬ŇŞ×öµÄ˛Ů×÷Ł¨ÎĺÖÖtype×ŞbyteĘäČëˇ°encodeˇ±Ł¬byte×ŞÎĺÖÖtypeĘäČëˇ°decodeˇ±Ł©
 305:User/Hardware/DrEmpower_can.c **** void format_data( float *value_data, int *type_data,int length, char * str)
 306:User/Hardware/DrEmpower_can.c **** {
 1483              		.loc 1 306 1
 1484              		.cfi_startproc
 1485              		@ args = 0, pretend = 0, frame = 24
 1486              		@ frame_needed = 1, uses_anonymous_args = 0
 1487 0000 80B5     		push	{r7, lr}
 1488              	.LCFI86:
 1489              		.cfi_def_cfa_offset 8
 1490              		.cfi_offset 7, -8
 1491              		.cfi_offset 14, -4
 1492 0002 86B0     		sub	sp, sp, #24
 1493              	.LCFI87:
 1494              		.cfi_def_cfa_offset 32
 1495 0004 00AF     		add	r7, sp, #0
 1496              	.LCFI88:
 1497              		.cfi_def_cfa_register 7
 1498 0006 F860     		str	r0, [r7, #12]
ARM GAS  C:\Users\Godwin\AppData\Local\Temp\ccnuUyDc.s 			page 32


 1499 0008 B960     		str	r1, [r7, #8]
 1500 000a 7A60     		str	r2, [r7, #4]
 1501 000c 3B60     		str	r3, [r7]
 307:User/Hardware/DrEmpower_can.c ****     data_list.length=length;
 1502              		.loc 1 307 21
 1503 000e 254A     		ldr	r2, .L68
 1504 0010 7B68     		ldr	r3, [r7, #4]
 1505 0012 1362     		str	r3, [r2, #32]
 1506              	.LBB3:
 308:User/Hardware/DrEmpower_can.c ****     for (int i = 0; i < length; i++)
 1507              		.loc 1 308 14
 1508 0014 0023     		movs	r3, #0
 1509 0016 7B61     		str	r3, [r7, #20]
 1510              		.loc 1 308 5
 1511 0018 17E0     		b	.L61
 1512              	.L62:
 309:User/Hardware/DrEmpower_can.c ****     {
 310:User/Hardware/DrEmpower_can.c ****         data_list.value_data[i]= value_data[i];
 1513              		.loc 1 310 44
 1514 001a 7B69     		ldr	r3, [r7, #20]
 1515 001c 9B00     		lsls	r3, r3, #2
 1516 001e FA68     		ldr	r2, [r7, #12]
 1517 0020 1344     		add	r3, r3, r2
 1518 0022 1A68     		ldr	r2, [r3]	@ float
 1519              		.loc 1 310 32
 1520 0024 1F49     		ldr	r1, .L68
 1521 0026 7B69     		ldr	r3, [r7, #20]
 1522 0028 9B00     		lsls	r3, r3, #2
 1523 002a 0B44     		add	r3, r3, r1
 1524 002c 1A60     		str	r2, [r3]	@ float
 311:User/Hardware/DrEmpower_can.c ****         data_list.type_data[i] = type_data[i];
 1525              		.loc 1 311 43
 1526 002e 7B69     		ldr	r3, [r7, #20]
 1527 0030 9B00     		lsls	r3, r3, #2
 1528 0032 BA68     		ldr	r2, [r7, #8]
 1529 0034 1344     		add	r3, r3, r2
 1530 0036 1A68     		ldr	r2, [r3]
 1531              		.loc 1 311 32
 1532 0038 1A49     		ldr	r1, .L68
 1533 003a 7B69     		ldr	r3, [r7, #20]
 1534 003c 0433     		adds	r3, r3, #4
 1535 003e 9B00     		lsls	r3, r3, #2
 1536 0040 0B44     		add	r3, r3, r1
 1537 0042 5A60     		str	r2, [r3, #4]
 308:User/Hardware/DrEmpower_can.c ****     for (int i = 0; i < length; i++)
 1538              		.loc 1 308 34 discriminator 3
 1539 0044 7B69     		ldr	r3, [r7, #20]
 1540 0046 0133     		adds	r3, r3, #1
 1541 0048 7B61     		str	r3, [r7, #20]
 1542              	.L61:
 308:User/Hardware/DrEmpower_can.c ****     for (int i = 0; i < length; i++)
 1543              		.loc 1 308 23 discriminator 1
 1544 004a 7A69     		ldr	r2, [r7, #20]
 1545 004c 7B68     		ldr	r3, [r7, #4]
 1546 004e 9A42     		cmp	r2, r3
 1547 0050 E3DB     		blt	.L62
 1548              	.LBE3:
ARM GAS  C:\Users\Godwin\AppData\Local\Temp\ccnuUyDc.s 			page 33


 312:User/Hardware/DrEmpower_can.c ****     }
 313:User/Hardware/DrEmpower_can.c ****     if (strcmp(str,"encode")==0)
 1549              		.loc 1 313 9
 1550 0052 1549     		ldr	r1, .L68+4
 1551 0054 3868     		ldr	r0, [r7]
 1552 0056 FFF7FEFF 		bl	strcmp
 1553 005a 0346     		mov	r3, r0
 1554              		.loc 1 313 8 discriminator 1
 1555 005c 002B     		cmp	r3, #0
 1556 005e 01D1     		bne	.L63
 314:User/Hardware/DrEmpower_can.c ****     {
 315:User/Hardware/DrEmpower_can.c ****         value2byte();
 1557              		.loc 1 315 9
 1558 0060 FFF7FEFF 		bl	value2byte
 1559              	.L63:
 316:User/Hardware/DrEmpower_can.c ****     }
 317:User/Hardware/DrEmpower_can.c ****     if (strcmp(str,"decode")==0)
 1560              		.loc 1 317 9
 1561 0064 1149     		ldr	r1, .L68+8
 1562 0066 3868     		ldr	r0, [r7]
 1563 0068 FFF7FEFF 		bl	strcmp
 1564 006c 0346     		mov	r3, r0
 1565              		.loc 1 317 8 discriminator 1
 1566 006e 002B     		cmp	r3, #0
 1567 0070 14D1     		bne	.L67
 1568              	.LBB4:
 318:User/Hardware/DrEmpower_can.c ****     {
 319:User/Hardware/DrEmpower_can.c ****         for (int i = 0; i < 8; i++)
 1569              		.loc 1 319 18
 1570 0072 0023     		movs	r3, #0
 1571 0074 3B61     		str	r3, [r7, #16]
 1572              		.loc 1 319 9
 1573 0076 0CE0     		b	.L65
 1574              	.L66:
 320:User/Hardware/DrEmpower_can.c ****         {
 321:User/Hardware/DrEmpower_can.c ****             data_list.byte_data[i]=rx_buffer[i];
 1575              		.loc 1 321 45
 1576 0078 0D4A     		ldr	r2, .L68+12
 1577 007a 3B69     		ldr	r3, [r7, #16]
 1578 007c 1344     		add	r3, r3, r2
 1579 007e 1978     		ldrb	r1, [r3]	@ zero_extendqisi2
 1580              		.loc 1 321 35
 1581 0080 084A     		ldr	r2, .L68
 1582 0082 3B69     		ldr	r3, [r7, #16]
 1583 0084 1344     		add	r3, r3, r2
 1584 0086 0C33     		adds	r3, r3, #12
 1585 0088 0A46     		mov	r2, r1
 1586 008a 1A70     		strb	r2, [r3]
 319:User/Hardware/DrEmpower_can.c ****         {
 1587              		.loc 1 319 33 discriminator 3
 1588 008c 3B69     		ldr	r3, [r7, #16]
 1589 008e 0133     		adds	r3, r3, #1
 1590 0090 3B61     		str	r3, [r7, #16]
 1591              	.L65:
 319:User/Hardware/DrEmpower_can.c ****         {
 1592              		.loc 1 319 27 discriminator 1
 1593 0092 3B69     		ldr	r3, [r7, #16]
ARM GAS  C:\Users\Godwin\AppData\Local\Temp\ccnuUyDc.s 			page 34


 1594 0094 072B     		cmp	r3, #7
 1595 0096 EFDD     		ble	.L66
 1596              	.LBE4:
 322:User/Hardware/DrEmpower_can.c ****         }
 323:User/Hardware/DrEmpower_can.c ****         byte2value();
 1597              		.loc 1 323 9
 1598 0098 FFF7FEFF 		bl	byte2value
 1599              	.L67:
 324:User/Hardware/DrEmpower_can.c ****     }
 325:User/Hardware/DrEmpower_can.c **** }
 1600              		.loc 1 325 1
 1601 009c 00BF     		nop
 1602 009e 1837     		adds	r7, r7, #24
 1603              	.LCFI89:
 1604              		.cfi_def_cfa_offset 8
 1605 00a0 BD46     		mov	sp, r7
 1606              	.LCFI90:
 1607              		.cfi_def_cfa_register 13
 1608              		@ sp needed
 1609 00a2 80BD     		pop	{r7, pc}
 1610              	.L69:
 1611              		.align	2
 1612              	.L68:
 1613 00a4 00000000 		.word	data_list
 1614 00a8 00000000 		.word	.LC5
 1615 00ac 08000000 		.word	.LC6
 1616 00b0 00000000 		.word	rx_buffer
 1617              		.cfi_endproc
 1618              	.LFE162:
 1620              		.section	.rodata
 1621 000f 00       		.align	2
 1622              	.LC0:
 1623 0010 00000000 		.word	0
 1624 0014 02000000 		.word	2
 1625 0018 02000000 		.word	2
 1626              		.section	.text.reply_state,"ax",%progbits
 1627              		.align	1
 1628              		.global	reply_state
 1629              		.syntax unified
 1630              		.thumb
 1631              		.thumb_func
 1633              	reply_state:
 1634              	.LFB163:
 326:User/Hardware/DrEmpower_can.c **** 
 327:User/Hardware/DrEmpower_can.c **** /**
 328:User/Hardware/DrEmpower_can.c ****  * @brief µç»úÔË¶ŻżŘÖĆÖ¸Áî×´Ě¬ĘµĘ±·µ»Ř˛ÎĘý
 329:User/Hardware/DrEmpower_can.c ****  * Í¨ąý¸ĂşŻĘý¶ÁČˇµç»úÔË¶ŻżŘÖĆÖ¸ÁîĘµĘ±·µ»ŘµÄµç»ú×´Ě¬˛ÎĘý[angle,speed,torque]Ł¬µĄÎ»·Ö±đÎŞdegreeŁ¬r/mi
 330:User/Hardware/DrEmpower_can.c ****  * ĆäÖĐmotor_state[id_num-1][0]±íĘľid_numşĹµç»úµÄ˝Ç¶ČŁ¬motor_state[id_num-1][1]±íĘľid_numşĹµç»úµÄËŮ
 331:User/Hardware/DrEmpower_can.c ****  * @param id_num ĐčŇŞ¶ÁČˇµÄµç»ú±ŕşĹ  ×˘Ňâ¸ĂÖ¸Áîid_num˛»ÄÜÎŞ0
 332:User/Hardware/DrEmpower_can.c **** 
 333:User/Hardware/DrEmpower_can.c ****  */
 334:User/Hardware/DrEmpower_can.c **** void reply_state(uint8_t id_num)
 335:User/Hardware/DrEmpower_can.c **** {
 1635              		.loc 1 335 1
 1636              		.cfi_startproc
 1637              		@ args = 0, pretend = 0, frame = 40
 1638              		@ frame_needed = 1, uses_anonymous_args = 0
ARM GAS  C:\Users\Godwin\AppData\Local\Temp\ccnuUyDc.s 			page 35


 1639 0000 80B5     		push	{r7, lr}
 1640              	.LCFI91:
 1641              		.cfi_def_cfa_offset 8
 1642              		.cfi_offset 7, -8
 1643              		.cfi_offset 14, -4
 1644 0002 8AB0     		sub	sp, sp, #40
 1645              	.LCFI92:
 1646              		.cfi_def_cfa_offset 48
 1647 0004 00AF     		add	r7, sp, #0
 1648              	.LCFI93:
 1649              		.cfi_def_cfa_register 7
 1650 0006 0346     		mov	r3, r0
 1651 0008 FB71     		strb	r3, [r7, #7]
 336:User/Hardware/DrEmpower_can.c ****     if(enable_replay_state&&id_num<=MOTOR_NUM)   //id_num˛»ÄÜÎŞ0
 1652              		.loc 1 336 8
 1653 000a 4D4B     		ldr	r3, .L75
 1654 000c 93F90030 		ldrsb	r3, [r3]
 1655              		.loc 1 336 7
 1656 0010 002B     		cmp	r3, #0
 1657 0012 00F09180 		beq	.L74
 1658              		.loc 1 336 27 discriminator 1
 1659 0016 FB79     		ldrb	r3, [r7, #7]	@ zero_extendqisi2
 1660 0018 102B     		cmp	r3, #16
 1661 001a 00F28D80 		bhi	.L74
 337:User/Hardware/DrEmpower_can.c ****     {
 338:User/Hardware/DrEmpower_can.c ****         READ_FLAG=0;
 1662              		.loc 1 338 18
 1663 001e 494B     		ldr	r3, .L75+4
 1664 0020 0022     		movs	r2, #0
 1665 0022 1A70     		strb	r2, [r3]
 339:User/Hardware/DrEmpower_can.c ****         receive_data();
 1666              		.loc 1 339 9
 1667 0024 FFF7FEFF 		bl	receive_data
 340:User/Hardware/DrEmpower_can.c ****         if (READ_FLAG == 1)
 1668              		.loc 1 340 23
 1669 0028 464B     		ldr	r3, .L75+4
 1670 002a 93F90030 		ldrsb	r3, [r3]
 1671              		.loc 1 340 12
 1672 002e 012B     		cmp	r3, #1
 1673 0030 7AD1     		bne	.L72
 1674              	.LBB5:
 341:User/Hardware/DrEmpower_can.c ****         {
 342:User/Hardware/DrEmpower_can.c **** 						if(id_num==0)  //ČçąűIDşĹÎŞ0Ł¬ÔňÍ¨ąý·µ»ŘĘýľÝÖˇµÄIDĐĹĎ˘¸üĐÂIDşĹ
 1675              		.loc 1 342 9
 1676 0032 FB79     		ldrb	r3, [r7, #7]	@ zero_extendqisi2
 1677 0034 002B     		cmp	r3, #0
 1678 0036 06D1     		bne	.L73
 343:User/Hardware/DrEmpower_can.c **** 						{
 344:User/Hardware/DrEmpower_can.c **** 							id_num = (uint8_t)((can_id & 0x07E0) >> 5)&0xFF;
 1679              		.loc 1 344 45
 1680 0038 434B     		ldr	r3, .L75+8
 1681 003a 1B88     		ldrh	r3, [r3]
 1682 003c 5B11     		asrs	r3, r3, #5
 1683              		.loc 1 344 50
 1684 003e DBB2     		uxtb	r3, r3
 1685              		.loc 1 344 15
 1686 0040 03F03F03 		and	r3, r3, #63
ARM GAS  C:\Users\Godwin\AppData\Local\Temp\ccnuUyDc.s 			page 36


 1687 0044 FB71     		strb	r3, [r7, #7]
 1688              	.L73:
 345:User/Hardware/DrEmpower_can.c **** 						}
 346:User/Hardware/DrEmpower_can.c ****             float factor = 0.01f;
 1689              		.loc 1 346 19
 1690 0046 414B     		ldr	r3, .L75+12
 1691 0048 7B62     		str	r3, [r7, #36]	@ float
 347:User/Hardware/DrEmpower_can.c ****             float value_data[3]= {0,0,0};
 1692              		.loc 1 347 19
 1693 004a 4FF00003 		mov	r3, #0
 1694 004e BB61     		str	r3, [r7, #24]	@ float
 1695 0050 4FF00003 		mov	r3, #0
 1696 0054 FB61     		str	r3, [r7, #28]	@ float
 1697 0056 4FF00003 		mov	r3, #0
 1698 005a 3B62     		str	r3, [r7, #32]	@ float
 348:User/Hardware/DrEmpower_can.c ****             int type_data[3]= {0,2,2};
 1699              		.loc 1 348 17
 1700 005c 3C4A     		ldr	r2, .L75+16
 1701 005e 07F10C03 		add	r3, r7, #12
 1702 0062 07CA     		ldm	r2, {r0, r1, r2}
 1703 0064 83E80700 		stm	r3, {r0, r1, r2}
 349:User/Hardware/DrEmpower_can.c ****             format_data(value_data,type_data,3,"decode");
 1704              		.loc 1 349 13
 1705 0068 07F10C01 		add	r1, r7, #12
 1706 006c 07F11800 		add	r0, r7, #24
 1707 0070 384B     		ldr	r3, .L75+20
 1708 0072 0322     		movs	r2, #3
 1709 0074 FFF7FEFF 		bl	format_data
 350:User/Hardware/DrEmpower_can.c ****             motor_state[id_num-1][0]=data_list.value_data[0];
 1710              		.loc 1 350 31
 1711 0078 FB79     		ldrb	r3, [r7, #7]	@ zero_extendqisi2
 1712 007a 5A1E     		subs	r2, r3, #1
 1713              		.loc 1 350 58
 1714 007c 364B     		ldr	r3, .L75+24
 1715 007e 1968     		ldr	r1, [r3]	@ float
 1716              		.loc 1 350 37
 1717 0080 3648     		ldr	r0, .L75+28
 1718 0082 1346     		mov	r3, r2
 1719 0084 9B00     		lsls	r3, r3, #2
 1720 0086 1344     		add	r3, r3, r2
 1721 0088 9B00     		lsls	r3, r3, #2
 1722 008a 0344     		add	r3, r3, r0
 1723 008c 1960     		str	r1, [r3]	@ float
 351:User/Hardware/DrEmpower_can.c ****             motor_state[id_num-1][1]=data_list.value_data[1]*factor;
 1724              		.loc 1 351 58
 1725 008e 324B     		ldr	r3, .L75+24
 1726 0090 93ED017A 		vldr.32	s14, [r3, #4]
 1727              		.loc 1 351 31
 1728 0094 FB79     		ldrb	r3, [r7, #7]	@ zero_extendqisi2
 1729 0096 5A1E     		subs	r2, r3, #1
 1730              		.loc 1 351 61
 1731 0098 D7ED097A 		vldr.32	s15, [r7, #36]
 1732 009c 67EE277A 		vmul.f32	s15, s14, s15
 1733              		.loc 1 351 37
 1734 00a0 2E49     		ldr	r1, .L75+28
 1735 00a2 1346     		mov	r3, r2
 1736 00a4 9B00     		lsls	r3, r3, #2
ARM GAS  C:\Users\Godwin\AppData\Local\Temp\ccnuUyDc.s 			page 37


 1737 00a6 1344     		add	r3, r3, r2
 1738 00a8 9B00     		lsls	r3, r3, #2
 1739 00aa 0B44     		add	r3, r3, r1
 1740 00ac 0433     		adds	r3, r3, #4
 1741 00ae C3ED007A 		vstr.32	s15, [r3]
 352:User/Hardware/DrEmpower_can.c ****             motor_state[id_num-1][2]=data_list.value_data[2]*factor;
 1742              		.loc 1 352 58
 1743 00b2 294B     		ldr	r3, .L75+24
 1744 00b4 93ED027A 		vldr.32	s14, [r3, #8]
 1745              		.loc 1 352 31
 1746 00b8 FB79     		ldrb	r3, [r7, #7]	@ zero_extendqisi2
 1747 00ba 5A1E     		subs	r2, r3, #1
 1748              		.loc 1 352 61
 1749 00bc D7ED097A 		vldr.32	s15, [r7, #36]
 1750 00c0 67EE277A 		vmul.f32	s15, s14, s15
 1751              		.loc 1 352 37
 1752 00c4 2549     		ldr	r1, .L75+28
 1753 00c6 1346     		mov	r3, r2
 1754 00c8 9B00     		lsls	r3, r3, #2
 1755 00ca 1344     		add	r3, r3, r2
 1756 00cc 9B00     		lsls	r3, r3, #2
 1757 00ce 0B44     		add	r3, r3, r1
 1758 00d0 0833     		adds	r3, r3, #8
 1759 00d2 C3ED007A 		vstr.32	s15, [r3]
 353:User/Hardware/DrEmpower_can.c ****             motor_state[id_num -1][3] =(int)((can_id & 0x02) >> 1);
 1760              		.loc 1 353 40
 1761 00d6 1C4B     		ldr	r3, .L75+8
 1762 00d8 1B88     		ldrh	r3, [r3]
 1763 00da 5B10     		asrs	r3, r3, #1
 1764 00dc 03F00101 		and	r1, r3, #1
 1765              		.loc 1 353 32
 1766 00e0 FB79     		ldrb	r3, [r7, #7]	@ zero_extendqisi2
 1767 00e2 5A1E     		subs	r2, r3, #1
 1768              		.loc 1 353 39
 1769 00e4 07EE901A 		vmov	s15, r1	@ int
 1770 00e8 F8EEE77A 		vcvt.f32.s32	s15, s15
 1771 00ec 1B49     		ldr	r1, .L75+28
 1772 00ee 1346     		mov	r3, r2
 1773 00f0 9B00     		lsls	r3, r3, #2
 1774 00f2 1344     		add	r3, r3, r2
 1775 00f4 9B00     		lsls	r3, r3, #2
 1776 00f6 0B44     		add	r3, r3, r1
 1777 00f8 0C33     		adds	r3, r3, #12
 1778 00fa C3ED007A 		vstr.32	s15, [r3]
 354:User/Hardware/DrEmpower_can.c ****             motor_state[id_num -1][4] = (int)((can_id & 0x04) >> 2);
 1779              		.loc 1 354 41
 1780 00fe 124B     		ldr	r3, .L75+8
 1781 0100 1B88     		ldrh	r3, [r3]
 1782 0102 9B10     		asrs	r3, r3, #2
 1783 0104 03F00101 		and	r1, r3, #1
 1784              		.loc 1 354 32
 1785 0108 FB79     		ldrb	r3, [r7, #7]	@ zero_extendqisi2
 1786 010a 5A1E     		subs	r2, r3, #1
 1787              		.loc 1 354 39
 1788 010c 07EE901A 		vmov	s15, r1	@ int
 1789 0110 F8EEE77A 		vcvt.f32.s32	s15, s15
 1790 0114 1149     		ldr	r1, .L75+28
ARM GAS  C:\Users\Godwin\AppData\Local\Temp\ccnuUyDc.s 			page 38


 1791 0116 1346     		mov	r3, r2
 1792 0118 9B00     		lsls	r3, r3, #2
 1793 011a 1344     		add	r3, r3, r2
 1794 011c 9B00     		lsls	r3, r3, #2
 1795 011e 0B44     		add	r3, r3, r1
 1796 0120 1033     		adds	r3, r3, #16
 1797 0122 C3ED007A 		vstr.32	s15, [r3]
 1798              	.LBE5:
 355:User/Hardware/DrEmpower_can.c ****         }
 356:User/Hardware/DrEmpower_can.c ****         else
 357:User/Hardware/DrEmpower_can.c ****         {
 358:User/Hardware/DrEmpower_can.c ****             READ_FLAG=-1;
 359:User/Hardware/DrEmpower_can.c ****             reply_state_error += 1;
 360:User/Hardware/DrEmpower_can.c ****         }
 361:User/Hardware/DrEmpower_can.c ****     }
 362:User/Hardware/DrEmpower_can.c **** }
 1799              		.loc 1 362 1
 1800 0126 07E0     		b	.L74
 1801              	.L72:
 358:User/Hardware/DrEmpower_can.c ****             reply_state_error += 1;
 1802              		.loc 1 358 22
 1803 0128 064B     		ldr	r3, .L75+4
 1804 012a FF22     		movs	r2, #255
 1805 012c 1A70     		strb	r2, [r3]
 359:User/Hardware/DrEmpower_can.c ****         }
 1806              		.loc 1 359 31
 1807 012e 0C4B     		ldr	r3, .L75+32
 1808 0130 1B68     		ldr	r3, [r3]
 1809 0132 0133     		adds	r3, r3, #1
 1810 0134 0A4A     		ldr	r2, .L75+32
 1811 0136 1360     		str	r3, [r2]
 1812              	.L74:
 1813              		.loc 1 362 1
 1814 0138 00BF     		nop
 1815 013a 2837     		adds	r7, r7, #40
 1816              	.LCFI94:
 1817              		.cfi_def_cfa_offset 8
 1818 013c BD46     		mov	sp, r7
 1819              	.LCFI95:
 1820              		.cfi_def_cfa_register 13
 1821              		@ sp needed
 1822 013e 80BD     		pop	{r7, pc}
 1823              	.L76:
 1824              		.align	2
 1825              	.L75:
 1826 0140 00000000 		.word	enable_replay_state
 1827 0144 00000000 		.word	READ_FLAG
 1828 0148 00000000 		.word	can_id
 1829 014c 0AD7233C 		.word	1008981770
 1830 0150 10000000 		.word	.LC0
 1831 0154 08000000 		.word	.LC6
 1832 0158 00000000 		.word	data_list
 1833 015c 00000000 		.word	motor_state
 1834 0160 00000000 		.word	reply_state_error
 1835              		.cfi_endproc
 1836              	.LFE163:
 1838              		.section	.text.preset_angle,"ax",%progbits
ARM GAS  C:\Users\Godwin\AppData\Local\Temp\ccnuUyDc.s 			page 39


 1839              		.align	1
 1840              		.global	preset_angle
 1841              		.syntax unified
 1842              		.thumb
 1843              		.thumb_func
 1845              	preset_angle:
 1846              	.LFB164:
 363:User/Hardware/DrEmpower_can.c **** 
 364:User/Hardware/DrEmpower_can.c **** /**
 365:User/Hardware/DrEmpower_can.c ****  * @brief µĄ¸öµç»ú˝Ç¶ČżŘÖĆşŻĘýˇŁ
 366:User/Hardware/DrEmpower_can.c ****  * żŘÖĆÖ¸¶¨µç»ú±ŕşĹµÄµç»ú°´ŐŐÖ¸¶¨µÄËŮ¶Č×Ş¶Żµ˝Ö¸¶¨µÄ˝Ç¶ČŁ¨ľř¶Ô˝Ç¶ČŁ¬Ďŕ¶ÔÓÚµç»úÁăµăÎ»ÖĂŁ©ˇŁ
 367:User/Hardware/DrEmpower_can.c ****  *
 368:User/Hardware/DrEmpower_can.c ****  * @param hcan CANľä±ú
 369:User/Hardware/DrEmpower_can.c ****  * @param id_num ĐčŇŞÉčÖĂµÄµç»úID±ŕşĹ,Čçąű˛»ÖŞµŔµ±Ç°µç»úIDŁ¬żÉŇÔÓĂ0ąă˛ĄŁ¬Čçąű×ÜĎßÉĎÓĐ¶ŕ¸öµç»úŁ¬Ôň¶ŕ
 370:User/Hardware/DrEmpower_can.c ****  * @param angle µç»ú˝Ç¶ČŁ¨-360~360Ł©*nŁ¬Ö§łÖ´ó˝Ç¶Č×Ş¶Ż
 371:User/Hardware/DrEmpower_can.c ****  * @param t mode=0,ÎŢ×÷ÓĂŁ¬Ö±˝Ó¸ř0Ľ´żÉ; mode=1, ÔË¶ŻĘ±ĽäŁ¨sŁ©; mode =2, Ç°ŔˇËŮ¶ČŁ¨r/min)
 372:User/Hardware/DrEmpower_can.c ****  * @param param mode=0,˝Ç¶ČĘäČëÂË˛¨´řżíŁ¨<300Ł©Ł¬mode=1,Ćô¶ŻşÍÍŁÖą˝×¶ÎĽÓËŮ¶ČŁ¨(r/min)/sŁ©; mode =2,
 373:User/Hardware/DrEmpower_can.c ****  * @param mode ˝Ç¶ČżŘÖĆÄŁĘ˝ŃˇÔńŁ¬µç»úÖ§łÖČýÖÖ˝Ç¶ČżŘÖĆÄŁĘ˝Ł¬
 374:User/Hardware/DrEmpower_can.c ****  *             mode = 0: ¶ŕ¸öµç»úąěĽŁ¸ú×ŮÄŁĘ˝Ł¬ÓĂÓÚŇ»°ăČĆÖáÔË¶ŻŁ¬ĚŘ±đĘĘşĎ¶ŕ¸öąěĽŁµăĘäČëŁ¬˝Ç¶ČĘäČë´ř
 375:User/Hardware/DrEmpower_can.c ****  *             mode = 1: ¶ŕ¸öµç»úĚÝĐÎąěĽŁÄŁĘ˝Ł¬´ËĘ±speedÓĂÔË¶ŻĘ±ĽätŁ¨sŁ©±íĘľŁ¬paramÎŞÄż±ęĽÓËŮ¶ČŁ¨(r
 376:User/Hardware/DrEmpower_can.c ****  *             mode = 2: Ç°ŔˇżŘÖĆÄŁĘ˝Ł¬ŐâÖÖÄŁĘ˝ĎÂµÄtÎŞÇ°ŔˇËŮ¶ČŁ¬paramÎŞÇ°ŔˇĹ¤ľŘˇŁÇ°ŔˇżŘÖĆÔÚÔ­ÓĐPIDż
 377:User/Hardware/DrEmpower_can.c ****  * @note ÔÚmode=1,ĚÝĐÎąěĽŁÄŁĘ˝ÖĐŁ¬speedşÍaccel¶ĽĐčŇŞ´óÓÚ0.Čçąűspeed=0»áµĽÖÂµç»ú±¨motor error ˛˘ÍËłö
 378:User/Hardware/DrEmpower_can.c ****          ÁíÍâČçąűŐâÖÖÄŁĘ˝ĎÂaccel=0Ł¬µç»úŇÔ×îżěËŮ¶ČÔË¶Żµ˝angle,speed˛ÎĘý˛»ÔŮĆä×÷ÓĂˇŁ
 379:User/Hardware/DrEmpower_can.c ****  */
 380:User/Hardware/DrEmpower_can.c **** void preset_angle(hcan_t* hcan, uint8_t id_num, float angle, float t, float param, int mode)
 381:User/Hardware/DrEmpower_can.c **** {
 1847              		.loc 1 381 1
 1848              		.cfi_startproc
 1849              		@ args = 0, pretend = 0, frame = 136
 1850              		@ frame_needed = 1, uses_anonymous_args = 0
 1851 0000 80B5     		push	{r7, lr}
 1852              	.LCFI96:
 1853              		.cfi_def_cfa_offset 8
 1854              		.cfi_offset 7, -8
 1855              		.cfi_offset 14, -4
 1856 0002 A4B0     		sub	sp, sp, #144
 1857              	.LCFI97:
 1858              		.cfi_def_cfa_offset 152
 1859 0004 02AF     		add	r7, sp, #8
 1860              	.LCFI98:
 1861              		.cfi_def_cfa 7, 144
 1862 0006 7861     		str	r0, [r7, #20]
 1863 0008 0B46     		mov	r3, r1
 1864 000a 87ED030A 		vstr.32	s0, [r7, #12]
 1865 000e C7ED020A 		vstr.32	s1, [r7, #8]
 1866 0012 87ED011A 		vstr.32	s2, [r7, #4]
 1867 0016 3A60     		str	r2, [r7]
 1868 0018 FB74     		strb	r3, [r7, #19]
 382:User/Hardware/DrEmpower_can.c ****     float factor = 0.01;
 1869              		.loc 1 382 11
 1870 001a 804B     		ldr	r3, .L84
 1871 001c C7F88430 		str	r3, [r7, #132]	@ float
 383:User/Hardware/DrEmpower_can.c ****     if (mode == 0)
 1872              		.loc 1 383 8
 1873 0020 3B68     		ldr	r3, [r7]
 1874 0022 002B     		cmp	r3, #0
 1875 0024 57D1     		bne	.L78
ARM GAS  C:\Users\Godwin\AppData\Local\Temp\ccnuUyDc.s 			page 40


 1876              	.LBB6:
 384:User/Hardware/DrEmpower_can.c ****     {
 385:User/Hardware/DrEmpower_can.c ****         float f_angle = angle;
 1877              		.loc 1 385 15
 1878 0026 FB68     		ldr	r3, [r7, #12]	@ float
 1879 0028 BB66     		str	r3, [r7, #104]	@ float
 386:User/Hardware/DrEmpower_can.c ****         int s16_time = (int)(abs(t) / factor);
 1880              		.loc 1 386 30
 1881 002a D7ED027A 		vldr.32	s15, [r7, #8]
 1882 002e FDEEE77A 		vcvt.s32.f32	s15, s15
 1883 0032 17EE903A 		vmov	r3, s15	@ int
 1884 0036 002B     		cmp	r3, #0
 1885 0038 B8BF     		it	lt
 1886 003a 5B42     		rsblt	r3, r3, #0
 1887              		.loc 1 386 37
 1888 003c 07EE903A 		vmov	s15, r3	@ int
 1889 0040 F8EEE76A 		vcvt.f32.s32	s13, s15
 1890 0044 97ED217A 		vldr.32	s14, [r7, #132]
 1891 0048 C6EE877A 		vdiv.f32	s15, s13, s14
 1892              		.loc 1 386 13
 1893 004c FDEEE77A 		vcvt.s32.f32	s15, s15
 1894 0050 17EE903A 		vmov	r3, s15	@ int
 1895 0054 7B66     		str	r3, [r7, #100]
 387:User/Hardware/DrEmpower_can.c ****         if (param > 300)
 1896              		.loc 1 387 12
 1897 0056 D7ED017A 		vldr.32	s15, [r7, #4]
 1898 005a 9FED717A 		vldr.32	s14, .L84+4
 1899 005e F4EEC77A 		vcmpe.f32	s15, s14
 1900 0062 F1EE10FA 		vmrs	APSR_nzcv, FPSCR
 1901 0066 01DD     		ble	.L79
 388:User/Hardware/DrEmpower_can.c ****             //print("input_filter_width = " + str(param) + ", which is too big and resized to 300")
 389:User/Hardware/DrEmpower_can.c ****             param = 300;
 1902              		.loc 1 389 19
 1903 0068 6E4B     		ldr	r3, .L84+8
 1904 006a 7B60     		str	r3, [r7, #4]	@ float
 1905              	.L79:
 390:User/Hardware/DrEmpower_can.c ****         int  s16_width = (int)(abs(param / factor));
 1906              		.loc 1 390 42
 1907 006c D7ED016A 		vldr.32	s13, [r7, #4]
 1908 0070 97ED217A 		vldr.32	s14, [r7, #132]
 1909 0074 C6EE877A 		vdiv.f32	s15, s13, s14
 1910              		.loc 1 390 26
 1911 0078 FDEEE77A 		vcvt.s32.f32	s15, s15
 1912 007c 17EE903A 		vmov	r3, s15	@ int
 1913              		.loc 1 390 14
 1914 0080 002B     		cmp	r3, #0
 1915 0082 B8BF     		it	lt
 1916 0084 5B42     		rsblt	r3, r3, #0
 1917 0086 3B66     		str	r3, [r7, #96]
 391:User/Hardware/DrEmpower_can.c **** 
 392:User/Hardware/DrEmpower_can.c ****         float value_data[3]= {f_angle, s16_time, s16_width};
 1918              		.loc 1 392 15
 1919 0088 BB6E     		ldr	r3, [r7, #104]	@ float
 1920 008a 7B65     		str	r3, [r7, #84]	@ float
 1921 008c 7B6E     		ldr	r3, [r7, #100]
 1922 008e 07EE903A 		vmov	s15, r3	@ int
 1923 0092 F8EEE77A 		vcvt.f32.s32	s15, s15
ARM GAS  C:\Users\Godwin\AppData\Local\Temp\ccnuUyDc.s 			page 41


 1924 0096 C7ED167A 		vstr.32	s15, [r7, #88]
 1925 009a 3B6E     		ldr	r3, [r7, #96]
 1926 009c 07EE903A 		vmov	s15, r3	@ int
 1927 00a0 F8EEE77A 		vcvt.f32.s32	s15, s15
 1928 00a4 C7ED177A 		vstr.32	s15, [r7, #92]
 393:User/Hardware/DrEmpower_can.c ****         int type_data[3]= {0,2,2};
 1929              		.loc 1 393 13
 1930 00a8 5F4A     		ldr	r2, .L84+12
 1931 00aa 07F14803 		add	r3, r7, #72
 1932 00ae 07CA     		ldm	r2, {r0, r1, r2}
 1933 00b0 83E80700 		stm	r3, {r0, r1, r2}
 394:User/Hardware/DrEmpower_can.c **** 
 395:User/Hardware/DrEmpower_can.c ****         format_data(value_data,type_data,3,"encode");
 1934              		.loc 1 395 9
 1935 00b4 07F14801 		add	r1, r7, #72
 1936 00b8 07F15400 		add	r0, r7, #84
 1937 00bc 5B4B     		ldr	r3, .L84+16
 1938 00be 0322     		movs	r2, #3
 1939 00c0 FFF7FEFF 		bl	format_data
 396:User/Hardware/DrEmpower_can.c **** 
 397:User/Hardware/DrEmpower_can.c ****         send_command(hcan, id_num,0x0C,data_list.byte_data,0);
 1940              		.loc 1 397 9
 1941 00c4 F97C     		ldrb	r1, [r7, #19]	@ zero_extendqisi2
 1942 00c6 0023     		movs	r3, #0
 1943 00c8 0093     		str	r3, [sp]
 1944 00ca 594B     		ldr	r3, .L84+20
 1945 00cc 0C22     		movs	r2, #12
 1946 00ce 7869     		ldr	r0, [r7, #20]
 1947 00d0 FFF7FEFF 		bl	send_command
 1948              	.LBE6:
 1949 00d4 9AE0     		b	.L81
 1950              	.L78:
 398:User/Hardware/DrEmpower_can.c ****     }
 399:User/Hardware/DrEmpower_can.c ****     else if(mode == 1)
 1951              		.loc 1 399 12
 1952 00d6 3B68     		ldr	r3, [r7]
 1953 00d8 012B     		cmp	r3, #1
 1954 00da 54D1     		bne	.L82
 1955              	.LBB7:
 400:User/Hardware/DrEmpower_can.c ****     {
 401:User/Hardware/DrEmpower_can.c ****         float f_angle = angle;
 1956              		.loc 1 401 15
 1957 00dc FB68     		ldr	r3, [r7, #12]	@ float
 1958 00de 7B67     		str	r3, [r7, #116]	@ float
 402:User/Hardware/DrEmpower_can.c ****         int s16_time = (int)(abs(t) / factor);
 1959              		.loc 1 402 30
 1960 00e0 D7ED027A 		vldr.32	s15, [r7, #8]
 1961 00e4 FDEEE77A 		vcvt.s32.f32	s15, s15
 1962 00e8 17EE903A 		vmov	r3, s15	@ int
 1963 00ec 002B     		cmp	r3, #0
 1964 00ee B8BF     		it	lt
 1965 00f0 5B42     		rsblt	r3, r3, #0
 1966              		.loc 1 402 37
 1967 00f2 07EE903A 		vmov	s15, r3	@ int
 1968 00f6 F8EEE76A 		vcvt.f32.s32	s13, s15
 1969 00fa 97ED217A 		vldr.32	s14, [r7, #132]
 1970 00fe C6EE877A 		vdiv.f32	s15, s13, s14
ARM GAS  C:\Users\Godwin\AppData\Local\Temp\ccnuUyDc.s 			page 42


 1971              		.loc 1 402 13
 1972 0102 FDEEE77A 		vcvt.s32.f32	s15, s15
 1973 0106 17EE903A 		vmov	r3, s15	@ int
 1974 010a 3B67     		str	r3, [r7, #112]
 403:User/Hardware/DrEmpower_can.c ****         int s16_accel = (int)((abs(param)) / factor);
 1975              		.loc 1 403 32
 1976 010c D7ED017A 		vldr.32	s15, [r7, #4]
 1977 0110 FDEEE77A 		vcvt.s32.f32	s15, s15
 1978 0114 17EE903A 		vmov	r3, s15	@ int
 1979 0118 002B     		cmp	r3, #0
 1980 011a B8BF     		it	lt
 1981 011c 5B42     		rsblt	r3, r3, #0
 1982              		.loc 1 403 44
 1983 011e 07EE903A 		vmov	s15, r3	@ int
 1984 0122 F8EEE76A 		vcvt.f32.s32	s13, s15
 1985 0126 97ED217A 		vldr.32	s14, [r7, #132]
 1986 012a C6EE877A 		vdiv.f32	s15, s13, s14
 1987              		.loc 1 403 13
 1988 012e FDEEE77A 		vcvt.s32.f32	s15, s15
 1989 0132 17EE903A 		vmov	r3, s15	@ int
 1990 0136 FB66     		str	r3, [r7, #108]
 404:User/Hardware/DrEmpower_can.c **** 
 405:User/Hardware/DrEmpower_can.c ****         float value_data[3]= {f_angle,s16_time,s16_accel};
 1991              		.loc 1 405 15
 1992 0138 7B6F     		ldr	r3, [r7, #116]	@ float
 1993 013a FB63     		str	r3, [r7, #60]	@ float
 1994 013c 3B6F     		ldr	r3, [r7, #112]
 1995 013e 07EE903A 		vmov	s15, r3	@ int
 1996 0142 F8EEE77A 		vcvt.f32.s32	s15, s15
 1997 0146 C7ED107A 		vstr.32	s15, [r7, #64]
 1998 014a FB6E     		ldr	r3, [r7, #108]
 1999 014c 07EE903A 		vmov	s15, r3	@ int
 2000 0150 F8EEE77A 		vcvt.f32.s32	s15, s15
 2001 0154 C7ED117A 		vstr.32	s15, [r7, #68]
 406:User/Hardware/DrEmpower_can.c ****         int type_data[3]= {0,2,2};
 2002              		.loc 1 406 13
 2003 0158 334A     		ldr	r2, .L84+12
 2004 015a 07F13003 		add	r3, r7, #48
 2005 015e 07CA     		ldm	r2, {r0, r1, r2}
 2006 0160 83E80700 		stm	r3, {r0, r1, r2}
 407:User/Hardware/DrEmpower_can.c **** 
 408:User/Hardware/DrEmpower_can.c ****         format_data(value_data,type_data,3,"encode");
 2007              		.loc 1 408 9
 2008 0164 07F13001 		add	r1, r7, #48
 2009 0168 07F13C00 		add	r0, r7, #60
 2010 016c 2F4B     		ldr	r3, .L84+16
 2011 016e 0322     		movs	r2, #3
 2012 0170 FFF7FEFF 		bl	format_data
 409:User/Hardware/DrEmpower_can.c ****         send_command(hcan, id_num,0x0C,data_list.byte_data,0);
 2013              		.loc 1 409 9
 2014 0174 F97C     		ldrb	r1, [r7, #19]	@ zero_extendqisi2
 2015 0176 0023     		movs	r3, #0
 2016 0178 0093     		str	r3, [sp]
 2017 017a 2D4B     		ldr	r3, .L84+20
 2018 017c 0C22     		movs	r2, #12
 2019 017e 7869     		ldr	r0, [r7, #20]
 2020 0180 FFF7FEFF 		bl	send_command
ARM GAS  C:\Users\Godwin\AppData\Local\Temp\ccnuUyDc.s 			page 43


 2021              	.LBE7:
 2022 0184 42E0     		b	.L81
 2023              	.L82:
 410:User/Hardware/DrEmpower_can.c ****     }
 411:User/Hardware/DrEmpower_can.c ****     else if(mode == 2)
 2024              		.loc 1 411 12
 2025 0186 3B68     		ldr	r3, [r7]
 2026 0188 022B     		cmp	r3, #2
 2027 018a 3FD1     		bne	.L81
 2028              	.LBB8:
 412:User/Hardware/DrEmpower_can.c ****     {
 413:User/Hardware/DrEmpower_can.c ****         float f_angle = angle;
 2029              		.loc 1 413 15
 2030 018c FB68     		ldr	r3, [r7, #12]	@ float
 2031 018e C7F88030 		str	r3, [r7, #128]	@ float
 414:User/Hardware/DrEmpower_can.c ****         int s16_speed_ff = (int)((t) / factor);
 2032              		.loc 1 414 38
 2033 0192 D7ED026A 		vldr.32	s13, [r7, #8]
 2034 0196 97ED217A 		vldr.32	s14, [r7, #132]
 2035 019a C6EE877A 		vdiv.f32	s15, s13, s14
 2036              		.loc 1 414 13
 2037 019e FDEEE77A 		vcvt.s32.f32	s15, s15
 2038 01a2 17EE903A 		vmov	r3, s15	@ int
 2039 01a6 FB67     		str	r3, [r7, #124]
 415:User/Hardware/DrEmpower_can.c ****         int s16_torque_ff = (int)((param) / factor);
 2040              		.loc 1 415 43
 2041 01a8 D7ED016A 		vldr.32	s13, [r7, #4]
 2042 01ac 97ED217A 		vldr.32	s14, [r7, #132]
 2043 01b0 C6EE877A 		vdiv.f32	s15, s13, s14
 2044              		.loc 1 415 13
 2045 01b4 FDEEE77A 		vcvt.s32.f32	s15, s15
 2046 01b8 17EE903A 		vmov	r3, s15	@ int
 2047 01bc BB67     		str	r3, [r7, #120]
 416:User/Hardware/DrEmpower_can.c **** 
 417:User/Hardware/DrEmpower_can.c ****         float value_data[3]= {f_angle,s16_speed_ff,s16_torque_ff};
 2048              		.loc 1 417 15
 2049 01be D7F88030 		ldr	r3, [r7, #128]	@ float
 2050 01c2 7B62     		str	r3, [r7, #36]	@ float
 2051 01c4 FB6F     		ldr	r3, [r7, #124]
 2052 01c6 07EE903A 		vmov	s15, r3	@ int
 2053 01ca F8EEE77A 		vcvt.f32.s32	s15, s15
 2054 01ce C7ED0A7A 		vstr.32	s15, [r7, #40]
 2055 01d2 BB6F     		ldr	r3, [r7, #120]
 2056 01d4 07EE903A 		vmov	s15, r3	@ int
 2057 01d8 F8EEE77A 		vcvt.f32.s32	s15, s15
 2058 01dc C7ED0B7A 		vstr.32	s15, [r7, #44]
 418:User/Hardware/DrEmpower_can.c ****         int type_data[3]= {0,2,2};
 2059              		.loc 1 418 13
 2060 01e0 114A     		ldr	r2, .L84+12
 2061 01e2 07F11803 		add	r3, r7, #24
 2062 01e6 07CA     		ldm	r2, {r0, r1, r2}
 2063 01e8 83E80700 		stm	r3, {r0, r1, r2}
 419:User/Hardware/DrEmpower_can.c **** 
 420:User/Hardware/DrEmpower_can.c ****         format_data(value_data,type_data,3,"encode");
 2064              		.loc 1 420 9
 2065 01ec 07F11801 		add	r1, r7, #24
 2066 01f0 07F12400 		add	r0, r7, #36
ARM GAS  C:\Users\Godwin\AppData\Local\Temp\ccnuUyDc.s 			page 44


 2067 01f4 0D4B     		ldr	r3, .L84+16
 2068 01f6 0322     		movs	r2, #3
 2069 01f8 FFF7FEFF 		bl	format_data
 421:User/Hardware/DrEmpower_can.c ****         send_command(hcan, id_num,0x0C,data_list.byte_data,0);
 2070              		.loc 1 421 9
 2071 01fc F97C     		ldrb	r1, [r7, #19]	@ zero_extendqisi2
 2072 01fe 0023     		movs	r3, #0
 2073 0200 0093     		str	r3, [sp]
 2074 0202 0B4B     		ldr	r3, .L84+20
 2075 0204 0C22     		movs	r2, #12
 2076 0206 7869     		ldr	r0, [r7, #20]
 2077 0208 FFF7FEFF 		bl	send_command
 2078              	.L81:
 2079              	.LBE8:
 422:User/Hardware/DrEmpower_can.c ****     }
 423:User/Hardware/DrEmpower_can.c ****     reply_state(id_num);
 2080              		.loc 1 423 5
 2081 020c FB7C     		ldrb	r3, [r7, #19]	@ zero_extendqisi2
 2082 020e 1846     		mov	r0, r3
 2083 0210 FFF7FEFF 		bl	reply_state
 424:User/Hardware/DrEmpower_can.c **** }
 2084              		.loc 1 424 1
 2085 0214 00BF     		nop
 2086 0216 8837     		adds	r7, r7, #136
 2087              	.LCFI99:
 2088              		.cfi_def_cfa_offset 8
 2089 0218 BD46     		mov	sp, r7
 2090              	.LCFI100:
 2091              		.cfi_def_cfa_register 13
 2092              		@ sp needed
 2093 021a 80BD     		pop	{r7, pc}
 2094              	.L85:
 2095              		.align	2
 2096              	.L84:
 2097 021c 0AD7233C 		.word	1008981770
 2098 0220 00009643 		.word	1133903872
 2099 0224 00009643 		.word	1133903872
 2100 0228 10000000 		.word	.LC0
 2101 022c 00000000 		.word	.LC5
 2102 0230 0C000000 		.word	data_list+12
 2103              		.cfi_endproc
 2104              	.LFE164:
 2106              		.section	.text.preset_speed,"ax",%progbits
 2107              		.align	1
 2108              		.global	preset_speed
 2109              		.syntax unified
 2110              		.thumb
 2111              		.thumb_func
 2113              	preset_speed:
 2114              	.LFB165:
 425:User/Hardware/DrEmpower_can.c **** /**
 426:User/Hardware/DrEmpower_can.c ****  * @brief µĄ¸öµç»úËŮ¶ČÔ¤ÉčşŻĘýˇŁ
 427:User/Hardware/DrEmpower_can.c ****  * Ô¤ÉčÖ¸¶¨µç»ú±ŕşĹµÄµç»úµÄÄż±ęËŮ¶ČŁ¬Ö®şóĐčŇŞÓĂmvÖ¸ÁîĆô¶Ż×Ş¶ŻˇŁ
 428:User/Hardware/DrEmpower_can.c ****  *
 429:User/Hardware/DrEmpower_can.c ****  * @param hcan CANľä±ú
 430:User/Hardware/DrEmpower_can.c ****  * @param id_num ĐčŇŞÉčÖĂµÄµç»úID±ŕşĹ,Čçąű˛»ÖŞµŔµ±Ç°µç»úIDŁ¬żÉŇÔÓĂ0ąă˛ĄŁ¬Čçąű×ÜĎßÉĎÓĐ¶ŕ¸öµç»úŁ¬Ôň¶ŕ
 431:User/Hardware/DrEmpower_can.c ****  * @param speed Äż±ęËŮ¶ČŁ¨r/minŁ©
ARM GAS  C:\Users\Godwin\AppData\Local\Temp\ccnuUyDc.s 			page 45


 432:User/Hardware/DrEmpower_can.c ****  * @param param mode=1, Ç°ŔˇĹ¤ľŘŁ¨Nm); mode!=1,»ňÄż±ęĽÓËŮ¶ČŁ¨(r/min)/sŁ©
 433:User/Hardware/DrEmpower_can.c ****  * @param mode żŘÖĆÄŁĘ˝ŃˇÔń
 434:User/Hardware/DrEmpower_can.c ****  *             mode=1, ËŮ¶ČÇ°ŔˇżŘÖĆÄŁĘ˝Ł¬µç»ú˝«Äż±ęËŮ¶ČÖ±˝ÓÉčÎŞspeed
 435:User/Hardware/DrEmpower_can.c ****  *             mode!=1,ËŮ¶ČĹŔÉýżŘÖĆÄŁĘ˝Ł¬µç»ú˝«°´ŐŐÄż±ęĽÓËŮ¶Čaxis0.controller.config_.vel_ramp_rate
 436:User/Hardware/DrEmpower_can.c ****  */
 437:User/Hardware/DrEmpower_can.c **** void preset_speed(hcan_t* hcan, uint8_t id_num, float speed, float param, int mode)
 438:User/Hardware/DrEmpower_can.c **** {
 2115              		.loc 1 438 1
 2116              		.cfi_startproc
 2117              		@ args = 0, pretend = 0, frame = 96
 2118              		@ frame_needed = 1, uses_anonymous_args = 0
 2119 0000 80B5     		push	{r7, lr}
 2120              	.LCFI101:
 2121              		.cfi_def_cfa_offset 8
 2122              		.cfi_offset 7, -8
 2123              		.cfi_offset 14, -4
 2124 0002 9AB0     		sub	sp, sp, #104
 2125              	.LCFI102:
 2126              		.cfi_def_cfa_offset 112
 2127 0004 02AF     		add	r7, sp, #8
 2128              	.LCFI103:
 2129              		.cfi_def_cfa 7, 104
 2130 0006 7861     		str	r0, [r7, #20]
 2131 0008 0B46     		mov	r3, r1
 2132 000a 87ED030A 		vstr.32	s0, [r7, #12]
 2133 000e C7ED020A 		vstr.32	s1, [r7, #8]
 2134 0012 7A60     		str	r2, [r7, #4]
 2135 0014 FB74     		strb	r3, [r7, #19]
 439:User/Hardware/DrEmpower_can.c ****     float factor = 0.01;
 2136              		.loc 1 439 11
 2137 0016 444B     		ldr	r3, .L90
 2138 0018 BB65     		str	r3, [r7, #88]	@ float
 440:User/Hardware/DrEmpower_can.c ****     float f_speed = speed;
 2139              		.loc 1 440 11
 2140 001a FB68     		ldr	r3, [r7, #12]	@ float
 2141 001c 7B65     		str	r3, [r7, #84]	@ float
 441:User/Hardware/DrEmpower_can.c ****     if (mode == 1)
 2142              		.loc 1 441 8
 2143 001e 7B68     		ldr	r3, [r7, #4]
 2144 0020 012B     		cmp	r3, #1
 2145 0022 3DD1     		bne	.L87
 2146              	.LBB9:
 442:User/Hardware/DrEmpower_can.c ****     {
 443:User/Hardware/DrEmpower_can.c ****         int  s16_torque = (int)((param) / factor);
 2147              		.loc 1 443 41
 2148 0024 D7ED026A 		vldr.32	s13, [r7, #8]
 2149 0028 97ED167A 		vldr.32	s14, [r7, #88]
 2150 002c C6EE877A 		vdiv.f32	s15, s13, s14
 2151              		.loc 1 443 14
 2152 0030 FDEEE77A 		vcvt.s32.f32	s15, s15
 2153 0034 17EE903A 		vmov	r3, s15	@ int
 2154 0038 FB65     		str	r3, [r7, #92]
 444:User/Hardware/DrEmpower_can.c ****         if (f_speed == 0)
 2155              		.loc 1 444 12
 2156 003a D7ED157A 		vldr.32	s15, [r7, #84]
 2157 003e F5EE407A 		vcmp.f32	s15, #0
 2158 0042 F1EE10FA 		vmrs	APSR_nzcv, FPSCR
ARM GAS  C:\Users\Godwin\AppData\Local\Temp\ccnuUyDc.s 			page 46


 2159 0046 01D1     		bne	.L88
 445:User/Hardware/DrEmpower_can.c ****             s16_torque = 0;
 2160              		.loc 1 445 24
 2161 0048 0023     		movs	r3, #0
 2162 004a FB65     		str	r3, [r7, #92]
 2163              	.L88:
 446:User/Hardware/DrEmpower_can.c ****         int s16_input_mode = (int)(INPUT_MODE_PASSTHROUGH / factor);
 2164              		.loc 1 446 59
 2165 004c F7EE006A 		vmov.f32	s13, #1.0e+0
 2166 0050 97ED167A 		vldr.32	s14, [r7, #88]
 2167 0054 C6EE877A 		vdiv.f32	s15, s13, s14
 2168              		.loc 1 446 13
 2169 0058 FDEEE77A 		vcvt.s32.f32	s15, s15
 2170 005c 17EE903A 		vmov	r3, s15	@ int
 2171 0060 BB64     		str	r3, [r7, #72]
 447:User/Hardware/DrEmpower_can.c **** 
 448:User/Hardware/DrEmpower_can.c ****         float value_data[3]= {f_speed, s16_torque, s16_input_mode};
 2172              		.loc 1 448 15
 2173 0062 7B6D     		ldr	r3, [r7, #84]	@ float
 2174 0064 FB63     		str	r3, [r7, #60]	@ float
 2175 0066 FB6D     		ldr	r3, [r7, #92]
 2176 0068 07EE903A 		vmov	s15, r3	@ int
 2177 006c F8EEE77A 		vcvt.f32.s32	s15, s15
 2178 0070 C7ED107A 		vstr.32	s15, [r7, #64]
 2179 0074 BB6C     		ldr	r3, [r7, #72]
 2180 0076 07EE903A 		vmov	s15, r3	@ int
 2181 007a F8EEE77A 		vcvt.f32.s32	s15, s15
 2182 007e C7ED117A 		vstr.32	s15, [r7, #68]
 449:User/Hardware/DrEmpower_can.c ****         int type_data[3]= {0,2,2};
 2183              		.loc 1 449 13
 2184 0082 2A4A     		ldr	r2, .L90+4
 2185 0084 07F13003 		add	r3, r7, #48
 2186 0088 07CA     		ldm	r2, {r0, r1, r2}
 2187 008a 83E80700 		stm	r3, {r0, r1, r2}
 450:User/Hardware/DrEmpower_can.c **** 
 451:User/Hardware/DrEmpower_can.c ****         format_data(value_data,type_data,3,"encode");
 2188              		.loc 1 451 9
 2189 008e 07F13001 		add	r1, r7, #48
 2190 0092 07F13C00 		add	r0, r7, #60
 2191 0096 264B     		ldr	r3, .L90+8
 2192 0098 0322     		movs	r2, #3
 2193 009a FFF7FEFF 		bl	format_data
 2194              	.LBE9:
 2195 009e 33E0     		b	.L89
 2196              	.L87:
 2197              	.LBB10:
 452:User/Hardware/DrEmpower_can.c ****     }
 453:User/Hardware/DrEmpower_can.c ****     else
 454:User/Hardware/DrEmpower_can.c ****     {
 455:User/Hardware/DrEmpower_can.c ****         int s16_ramp_rate = (int)((param) / factor);
 2198              		.loc 1 455 43
 2199 00a0 D7ED026A 		vldr.32	s13, [r7, #8]
 2200 00a4 97ED167A 		vldr.32	s14, [r7, #88]
 2201 00a8 C6EE877A 		vdiv.f32	s15, s13, s14
 2202              		.loc 1 455 13
 2203 00ac FDEEE77A 		vcvt.s32.f32	s15, s15
 2204 00b0 17EE903A 		vmov	r3, s15	@ int
ARM GAS  C:\Users\Godwin\AppData\Local\Temp\ccnuUyDc.s 			page 47


 2205 00b4 3B65     		str	r3, [r7, #80]
 456:User/Hardware/DrEmpower_can.c ****         int s16_input_mode = (int)(INPUT_MODE_VEL_RAMP / factor);
 2206              		.loc 1 456 56
 2207 00b6 F0EE006A 		vmov.f32	s13, #2.0e+0
 2208 00ba 97ED167A 		vldr.32	s14, [r7, #88]
 2209 00be C6EE877A 		vdiv.f32	s15, s13, s14
 2210              		.loc 1 456 13
 2211 00c2 FDEEE77A 		vcvt.s32.f32	s15, s15
 2212 00c6 17EE903A 		vmov	r3, s15	@ int
 2213 00ca FB64     		str	r3, [r7, #76]
 457:User/Hardware/DrEmpower_can.c **** 
 458:User/Hardware/DrEmpower_can.c ****         float value_data[3]= {f_speed, s16_ramp_rate, s16_input_mode};
 2214              		.loc 1 458 15
 2215 00cc 7B6D     		ldr	r3, [r7, #84]	@ float
 2216 00ce 7B62     		str	r3, [r7, #36]	@ float
 2217 00d0 3B6D     		ldr	r3, [r7, #80]
 2218 00d2 07EE903A 		vmov	s15, r3	@ int
 2219 00d6 F8EEE77A 		vcvt.f32.s32	s15, s15
 2220 00da C7ED0A7A 		vstr.32	s15, [r7, #40]
 2221 00de FB6C     		ldr	r3, [r7, #76]
 2222 00e0 07EE903A 		vmov	s15, r3	@ int
 2223 00e4 F8EEE77A 		vcvt.f32.s32	s15, s15
 2224 00e8 C7ED0B7A 		vstr.32	s15, [r7, #44]
 459:User/Hardware/DrEmpower_can.c ****         int type_data[3]= {0,2,2};
 2225              		.loc 1 459 13
 2226 00ec 0F4A     		ldr	r2, .L90+4
 2227 00ee 07F11803 		add	r3, r7, #24
 2228 00f2 07CA     		ldm	r2, {r0, r1, r2}
 2229 00f4 83E80700 		stm	r3, {r0, r1, r2}
 460:User/Hardware/DrEmpower_can.c **** 
 461:User/Hardware/DrEmpower_can.c ****         format_data(value_data,type_data,3,"encode");
 2230              		.loc 1 461 9
 2231 00f8 07F11801 		add	r1, r7, #24
 2232 00fc 07F12400 		add	r0, r7, #36
 2233 0100 0B4B     		ldr	r3, .L90+8
 2234 0102 0322     		movs	r2, #3
 2235 0104 FFF7FEFF 		bl	format_data
 2236              	.L89:
 2237              	.LBE10:
 462:User/Hardware/DrEmpower_can.c ****     }
 463:User/Hardware/DrEmpower_can.c ****     send_command(hcan, id_num, 0x0C,data_list.byte_data, 0);
 2238              		.loc 1 463 5
 2239 0108 F97C     		ldrb	r1, [r7, #19]	@ zero_extendqisi2
 2240 010a 0023     		movs	r3, #0
 2241 010c 0093     		str	r3, [sp]
 2242 010e 094B     		ldr	r3, .L90+12
 2243 0110 0C22     		movs	r2, #12
 2244 0112 7869     		ldr	r0, [r7, #20]
 2245 0114 FFF7FEFF 		bl	send_command
 464:User/Hardware/DrEmpower_can.c ****     reply_state(id_num);
 2246              		.loc 1 464 5
 2247 0118 FB7C     		ldrb	r3, [r7, #19]	@ zero_extendqisi2
 2248 011a 1846     		mov	r0, r3
 2249 011c FFF7FEFF 		bl	reply_state
 465:User/Hardware/DrEmpower_can.c **** }
 2250              		.loc 1 465 1
 2251 0120 00BF     		nop
ARM GAS  C:\Users\Godwin\AppData\Local\Temp\ccnuUyDc.s 			page 48


 2252 0122 6037     		adds	r7, r7, #96
 2253              	.LCFI104:
 2254              		.cfi_def_cfa_offset 8
 2255 0124 BD46     		mov	sp, r7
 2256              	.LCFI105:
 2257              		.cfi_def_cfa_register 13
 2258              		@ sp needed
 2259 0126 80BD     		pop	{r7, pc}
 2260              	.L91:
 2261              		.align	2
 2262              	.L90:
 2263 0128 0AD7233C 		.word	1008981770
 2264 012c 10000000 		.word	.LC0
 2265 0130 00000000 		.word	.LC5
 2266 0134 0C000000 		.word	data_list+12
 2267              		.cfi_endproc
 2268              	.LFE165:
 2270              		.section	.text.preset_torque,"ax",%progbits
 2271              		.align	1
 2272              		.global	preset_torque
 2273              		.syntax unified
 2274              		.thumb
 2275              		.thumb_func
 2277              	preset_torque:
 2278              	.LFB166:
 466:User/Hardware/DrEmpower_can.c **** 
 467:User/Hardware/DrEmpower_can.c **** /**
 468:User/Hardware/DrEmpower_can.c ****  * @brief µĄ¸öµç»úÁ¦ľŘÔ¤ÉčşŻĘýˇŁ
 469:User/Hardware/DrEmpower_can.c ****  * Ô¤ÉčÖ¸¶¨µç»ú±ŕşĹµÄµç»úÄż±ęĹ¤ľŘŁ¨NmŁ©
 470:User/Hardware/DrEmpower_can.c ****  *
 471:User/Hardware/DrEmpower_can.c ****  * @param hcan CANľä±ú
 472:User/Hardware/DrEmpower_can.c ****  * @param id_num ĐčŇŞÉčÖĂµÄµç»úID±ŕşĹ,Čçąű˛»ÖŞµŔµ±Ç°µç»úIDŁ¬żÉŇÔÓĂ0ąă˛ĄŁ¬Čçąű×ÜĎßÉĎÓĐ¶ŕ¸öµç»úŁ¬Ôň¶ŕ
 473:User/Hardware/DrEmpower_can.c ****  * @param torque µç»úĘäłöŁ¨Nm)
 474:User/Hardware/DrEmpower_can.c ****  * @param param mode=1,¸Ä˛ÎĘýÎŢŇâŇĺŁ»mode!=1,Ĺ¤ľŘÉĎÉýËŮ¶Čaxis0.controller.config.torque_ramp_rateŁ¨
 475:User/Hardware/DrEmpower_can.c ****  * @param mode żŘÖĆÄŁĘ˝ŃˇÔń
 476:User/Hardware/DrEmpower_can.c ****  *             mode=1, Ĺ¤ľŘÖ±˝ÓżŘÖĆÄŁĘ˝Ł¬µç»ú˝«Äż±ęĹ¤ľŘÖ±˝ÓÉčÎŞtorque
 477:User/Hardware/DrEmpower_can.c ****  *             mode!=1,Ĺ¤ľŘĹŔÉýżŘÖĆÄŁĘ˝Ł¬µç»ú˝«°´ŐŐĹ¤ľŘÉĎÉýËŮÂĘaxis0.controller.config.torque_ramp_
 478:User/Hardware/DrEmpower_can.c ****  */
 479:User/Hardware/DrEmpower_can.c **** void preset_torque(hcan_t* hcan, uint8_t id_num, float torque, float param, int mode)
 480:User/Hardware/DrEmpower_can.c **** {
 2279              		.loc 1 480 1
 2280              		.cfi_startproc
 2281              		@ args = 0, pretend = 0, frame = 64
 2282              		@ frame_needed = 1, uses_anonymous_args = 0
 2283 0000 80B5     		push	{r7, lr}
 2284              	.LCFI106:
 2285              		.cfi_def_cfa_offset 8
 2286              		.cfi_offset 7, -8
 2287              		.cfi_offset 14, -4
 2288 0002 92B0     		sub	sp, sp, #72
 2289              	.LCFI107:
 2290              		.cfi_def_cfa_offset 80
 2291 0004 02AF     		add	r7, sp, #8
 2292              	.LCFI108:
 2293              		.cfi_def_cfa 7, 72
 2294 0006 7861     		str	r0, [r7, #20]
 2295 0008 0B46     		mov	r3, r1
ARM GAS  C:\Users\Godwin\AppData\Local\Temp\ccnuUyDc.s 			page 49


 2296 000a 87ED030A 		vstr.32	s0, [r7, #12]
 2297 000e C7ED020A 		vstr.32	s1, [r7, #8]
 2298 0012 7A60     		str	r2, [r7, #4]
 2299 0014 FB74     		strb	r3, [r7, #19]
 481:User/Hardware/DrEmpower_can.c **** 
 482:User/Hardware/DrEmpower_can.c ****     float factor = 0.01;
 2300              		.loc 1 482 11
 2301 0016 2C4B     		ldr	r3, .L95
 2302 0018 7B63     		str	r3, [r7, #52]	@ float
 483:User/Hardware/DrEmpower_can.c ****     float f_torque = torque;
 2303              		.loc 1 483 11
 2304 001a FB68     		ldr	r3, [r7, #12]	@ float
 2305 001c 3B63     		str	r3, [r7, #48]	@ float
 484:User/Hardware/DrEmpower_can.c ****     int s16_ramp_rate, s16_input_mode;
 485:User/Hardware/DrEmpower_can.c ****     if (mode == 1)
 2306              		.loc 1 485 8
 2307 001e 7B68     		ldr	r3, [r7, #4]
 2308 0020 012B     		cmp	r3, #1
 2309 0022 0DD1     		bne	.L93
 486:User/Hardware/DrEmpower_can.c ****     {
 487:User/Hardware/DrEmpower_can.c ****         s16_input_mode = (int)(INPUT_MODE_PASSTHROUGH / factor);
 2310              		.loc 1 487 55
 2311 0024 F7EE006A 		vmov.f32	s13, #1.0e+0
 2312 0028 97ED0D7A 		vldr.32	s14, [r7, #52]
 2313 002c C6EE877A 		vdiv.f32	s15, s13, s14
 2314              		.loc 1 487 24
 2315 0030 FDEEE77A 		vcvt.s32.f32	s15, s15
 2316 0034 17EE903A 		vmov	r3, s15	@ int
 2317 0038 BB63     		str	r3, [r7, #56]
 488:User/Hardware/DrEmpower_can.c ****         s16_ramp_rate = 0;
 2318              		.loc 1 488 23
 2319 003a 0023     		movs	r3, #0
 2320 003c FB63     		str	r3, [r7, #60]
 2321 003e 15E0     		b	.L94
 2322              	.L93:
 489:User/Hardware/DrEmpower_can.c ****     }
 490:User/Hardware/DrEmpower_can.c ****     else
 491:User/Hardware/DrEmpower_can.c ****     {
 492:User/Hardware/DrEmpower_can.c ****         s16_input_mode = (int)(INPUT_MODE_TORQUE_RAMP / factor);
 2323              		.loc 1 492 55
 2324 0040 F1EE086A 		vmov.f32	s13, #6.0e+0
 2325 0044 97ED0D7A 		vldr.32	s14, [r7, #52]
 2326 0048 C6EE877A 		vdiv.f32	s15, s13, s14
 2327              		.loc 1 492 24
 2328 004c FDEEE77A 		vcvt.s32.f32	s15, s15
 2329 0050 17EE903A 		vmov	r3, s15	@ int
 2330 0054 BB63     		str	r3, [r7, #56]
 493:User/Hardware/DrEmpower_can.c ****         s16_ramp_rate =  (int)((param) / factor);
 2331              		.loc 1 493 40
 2332 0056 D7ED026A 		vldr.32	s13, [r7, #8]
 2333 005a 97ED0D7A 		vldr.32	s14, [r7, #52]
 2334 005e C6EE877A 		vdiv.f32	s15, s13, s14
 2335              		.loc 1 493 23
 2336 0062 FDEEE77A 		vcvt.s32.f32	s15, s15
 2337 0066 17EE903A 		vmov	r3, s15	@ int
 2338 006a FB63     		str	r3, [r7, #60]
 2339              	.L94:
ARM GAS  C:\Users\Godwin\AppData\Local\Temp\ccnuUyDc.s 			page 50


 494:User/Hardware/DrEmpower_can.c ****     }
 495:User/Hardware/DrEmpower_can.c **** 
 496:User/Hardware/DrEmpower_can.c ****     float value_data[3]= {f_torque, s16_ramp_rate, s16_input_mode};
 2340              		.loc 1 496 11
 2341 006c 3B6B     		ldr	r3, [r7, #48]	@ float
 2342 006e 7B62     		str	r3, [r7, #36]	@ float
 2343 0070 FB6B     		ldr	r3, [r7, #60]
 2344 0072 07EE903A 		vmov	s15, r3	@ int
 2345 0076 F8EEE77A 		vcvt.f32.s32	s15, s15
 2346 007a C7ED0A7A 		vstr.32	s15, [r7, #40]
 2347 007e BB6B     		ldr	r3, [r7, #56]
 2348 0080 07EE903A 		vmov	s15, r3	@ int
 2349 0084 F8EEE77A 		vcvt.f32.s32	s15, s15
 2350 0088 C7ED0B7A 		vstr.32	s15, [r7, #44]
 497:User/Hardware/DrEmpower_can.c ****     int type_data[3]= {0,2,2};
 2351              		.loc 1 497 9
 2352 008c 0F4A     		ldr	r2, .L95+4
 2353 008e 07F11803 		add	r3, r7, #24
 2354 0092 07CA     		ldm	r2, {r0, r1, r2}
 2355 0094 83E80700 		stm	r3, {r0, r1, r2}
 498:User/Hardware/DrEmpower_can.c **** 
 499:User/Hardware/DrEmpower_can.c ****     format_data(value_data,type_data,3,"encode");
 2356              		.loc 1 499 5
 2357 0098 07F11801 		add	r1, r7, #24
 2358 009c 07F12400 		add	r0, r7, #36
 2359 00a0 0B4B     		ldr	r3, .L95+8
 2360 00a2 0322     		movs	r2, #3
 2361 00a4 FFF7FEFF 		bl	format_data
 500:User/Hardware/DrEmpower_can.c **** 
 501:User/Hardware/DrEmpower_can.c ****     send_command(hcan, id_num,0x0C,data_list.byte_data,0);
 2362              		.loc 1 501 5
 2363 00a8 F97C     		ldrb	r1, [r7, #19]	@ zero_extendqisi2
 2364 00aa 0023     		movs	r3, #0
 2365 00ac 0093     		str	r3, [sp]
 2366 00ae 094B     		ldr	r3, .L95+12
 2367 00b0 0C22     		movs	r2, #12
 2368 00b2 7869     		ldr	r0, [r7, #20]
 2369 00b4 FFF7FEFF 		bl	send_command
 502:User/Hardware/DrEmpower_can.c ****     reply_state(id_num);
 2370              		.loc 1 502 5
 2371 00b8 FB7C     		ldrb	r3, [r7, #19]	@ zero_extendqisi2
 2372 00ba 1846     		mov	r0, r3
 2373 00bc FFF7FEFF 		bl	reply_state
 503:User/Hardware/DrEmpower_can.c **** }
 2374              		.loc 1 503 1
 2375 00c0 00BF     		nop
 2376 00c2 4037     		adds	r7, r7, #64
 2377              	.LCFI109:
 2378              		.cfi_def_cfa_offset 8
 2379 00c4 BD46     		mov	sp, r7
 2380              	.LCFI110:
 2381              		.cfi_def_cfa_register 13
 2382              		@ sp needed
 2383 00c6 80BD     		pop	{r7, pc}
 2384              	.L96:
 2385              		.align	2
 2386              	.L95:
ARM GAS  C:\Users\Godwin\AppData\Local\Temp\ccnuUyDc.s 			page 51


 2387 00c8 0AD7233C 		.word	1008981770
 2388 00cc 10000000 		.word	.LC0
 2389 00d0 00000000 		.word	.LC5
 2390 00d4 0C000000 		.word	data_list+12
 2391              		.cfi_endproc
 2392              	.LFE166:
 2394              		.section	.text.set_angle,"ax",%progbits
 2395              		.align	1
 2396              		.global	set_angle
 2397              		.syntax unified
 2398              		.thumb
 2399              		.thumb_func
 2401              	set_angle:
 2402              	.LFB167:
 504:User/Hardware/DrEmpower_can.c **** // ą¦ÄÜşŻĘýŁ¬ÓĂ»§ĘąÓĂ
 505:User/Hardware/DrEmpower_can.c **** 
 506:User/Hardware/DrEmpower_can.c **** // ÔË¶ŻżŘÖĆą¦ÄÜ
 507:User/Hardware/DrEmpower_can.c **** 
 508:User/Hardware/DrEmpower_can.c **** /**
 509:User/Hardware/DrEmpower_can.c ****  * @brief µĄ¸öµç»ú˝Ç¶ČżŘÖĆşŻĘýˇŁ
 510:User/Hardware/DrEmpower_can.c ****  * żŘÖĆÖ¸¶¨µç»ú±ŕşĹµÄµç»ú°´ŐŐÖ¸¶¨µÄËŮ¶Č×Ş¶Żµ˝Ö¸¶¨µÄ˝Ç¶ČŁ¨ľř¶Ô˝Ç¶ČŁ¬Ďŕ¶ÔÓÚµç»úÁăµăÎ»ÖĂŁ©ˇŁ
 511:User/Hardware/DrEmpower_can.c ****  *
 512:User/Hardware/DrEmpower_can.c ****  * @param hcan CANľä±ú
 513:User/Hardware/DrEmpower_can.c ****  * @param id_num ĐčŇŞÉčÖĂµÄµç»úID±ŕşĹ,Čçąű˛»ÖŞµŔµ±Ç°µç»úIDŁ¬żÉŇÔÓĂ0ąă˛ĄŁ¬Čçąű×ÜĎßÉĎÓĐ¶ŕ¸öµç»úŁ¬Ôň¶ŕ
 514:User/Hardware/DrEmpower_can.c ****  * @param angle µç»ú˝Ç¶ČŁ¨-360~360Ł©*nŁ¬Ö§łÖ´ó˝Ç¶Č×Ş¶Ż
 515:User/Hardware/DrEmpower_can.c ****  * @param speed ×î´óËŮ¶ČĎŢÖĆ»ňÇ°ŔˇËŮ¶ČŁ¨r/minŁ©
 516:User/Hardware/DrEmpower_can.c ****  * @param param mode=0,˝Ç¶ČĘäČëÂË˛¨´řżíŁ¨<300Ł©Ł¬mode=1,Ćô¶ŻşÍÍŁÖą˝×¶ÎĽÓËŮ¶ČŁ¨(r/min)/sŁ©; mode =2,
 517:User/Hardware/DrEmpower_can.c ****  * @param mode ˝Ç¶ČżŘÖĆÄŁĘ˝ŃˇÔńŁ¬µç»úÖ§łÖČýÖÖ˝Ç¶ČżŘÖĆÄŁĘ˝Ł¬
 518:User/Hardware/DrEmpower_can.c ****  *             mode = 0: ąěĽŁ¸ú×ŮÄŁĘ˝Ł¬ÓĂÓÚŇ»°ăČĆÖáÔË¶ŻŁ¬ĚŘ±đĘĘşĎ¶ŕ¸öąěĽŁµăĘäČëŁ¬˝Ç¶ČĘäČë´řżí˛ÎĘýĐč
 519:User/Hardware/DrEmpower_can.c ****  *             mode = 1: ĚÝĐÎąěĽŁÄŁĘ˝Ł¬ŐâÖÖÄŁĘ˝ĎÂżÉŇÔÖ¸¶¨ÔË¶ŻąýłĚÖĐµÄËŮ¶ČŁ¨speedŁ©şÍĆôÍŁĽÓËŮ¶ČŁ¨acc
 520:User/Hardware/DrEmpower_can.c ****  *             mode = 2: Ç°ŔˇżŘÖĆÄŁĘ˝Ł¬ŐâÖÖÄŁĘ˝ĎÂµÄspeedşÍtorque·Ö±đÎŞÇ°ŔˇżŘÖĆÁż.Ç°ŔˇżŘÖĆÔÚÔ­ÓĐPIDż
 521:User/Hardware/DrEmpower_can.c ****  * @note ÔÚmode=1,ĚÝĐÎąěĽŁÄŁĘ˝ÖĐŁ¬speedşÍaccel¶ĽĐčŇŞ´óÓÚ0.Čçąűspeed=0»áµĽÖÂµç»ú±¨motor error ˛˘ÍËłö
 522:User/Hardware/DrEmpower_can.c ****  *       ÁíÍâČçąűŐâÖÖÄŁĘ˝ĎÂaccel=0Ł¬µç»úŇÔ×îżěËŮ¶ČÔË¶Żµ˝angle,speed˛ÎĘý˛»ÔŮĆä×÷ÓĂˇŁ
 523:User/Hardware/DrEmpower_can.c ****  */
 524:User/Hardware/DrEmpower_can.c **** void set_angle(hcan_t* hcan, uint8_t id_num, float angle, float speed, float param, int mode)
 525:User/Hardware/DrEmpower_can.c **** {
 2403              		.loc 1 525 1
 2404              		.cfi_startproc
 2405              		@ args = 0, pretend = 0, frame = 136
 2406              		@ frame_needed = 1, uses_anonymous_args = 0
 2407 0000 80B5     		push	{r7, lr}
 2408              	.LCFI111:
 2409              		.cfi_def_cfa_offset 8
 2410              		.cfi_offset 7, -8
 2411              		.cfi_offset 14, -4
 2412 0002 A4B0     		sub	sp, sp, #144
 2413              	.LCFI112:
 2414              		.cfi_def_cfa_offset 152
 2415 0004 02AF     		add	r7, sp, #8
 2416              	.LCFI113:
 2417              		.cfi_def_cfa 7, 144
 2418 0006 7861     		str	r0, [r7, #20]
 2419 0008 0B46     		mov	r3, r1
 2420 000a 87ED030A 		vstr.32	s0, [r7, #12]
 2421 000e C7ED020A 		vstr.32	s1, [r7, #8]
 2422 0012 87ED011A 		vstr.32	s2, [r7, #4]
 2423 0016 3A60     		str	r2, [r7]
ARM GAS  C:\Users\Godwin\AppData\Local\Temp\ccnuUyDc.s 			page 52


 2424 0018 FB74     		strb	r3, [r7, #19]
 526:User/Hardware/DrEmpower_can.c ****     float factor = 0.01;
 2425              		.loc 1 526 11
 2426 001a 884B     		ldr	r3, .L108
 2427 001c C7F88430 		str	r3, [r7, #132]	@ float
 527:User/Hardware/DrEmpower_can.c ****     if (mode == 0)
 2428              		.loc 1 527 8
 2429 0020 3B68     		ldr	r3, [r7]
 2430 0022 002B     		cmp	r3, #0
 2431 0024 57D1     		bne	.L98
 2432              	.LBB11:
 528:User/Hardware/DrEmpower_can.c ****     {
 529:User/Hardware/DrEmpower_can.c ****         float f_angle = angle;
 2433              		.loc 1 529 15
 2434 0026 FB68     		ldr	r3, [r7, #12]	@ float
 2435 0028 BB66     		str	r3, [r7, #104]	@ float
 530:User/Hardware/DrEmpower_can.c ****         int s16_speed = (int)((abs(speed)) / factor);
 2436              		.loc 1 530 32
 2437 002a D7ED027A 		vldr.32	s15, [r7, #8]
 2438 002e FDEEE77A 		vcvt.s32.f32	s15, s15
 2439 0032 17EE903A 		vmov	r3, s15	@ int
 2440 0036 002B     		cmp	r3, #0
 2441 0038 B8BF     		it	lt
 2442 003a 5B42     		rsblt	r3, r3, #0
 2443              		.loc 1 530 44
 2444 003c 07EE903A 		vmov	s15, r3	@ int
 2445 0040 F8EEE76A 		vcvt.f32.s32	s13, s15
 2446 0044 97ED217A 		vldr.32	s14, [r7, #132]
 2447 0048 C6EE877A 		vdiv.f32	s15, s13, s14
 2448              		.loc 1 530 13
 2449 004c FDEEE77A 		vcvt.s32.f32	s15, s15
 2450 0050 17EE903A 		vmov	r3, s15	@ int
 2451 0054 7B66     		str	r3, [r7, #100]
 531:User/Hardware/DrEmpower_can.c ****         if (param > 300)
 2452              		.loc 1 531 12
 2453 0056 D7ED017A 		vldr.32	s15, [r7, #4]
 2454 005a 9FED797A 		vldr.32	s14, .L108+4
 2455 005e F4EEC77A 		vcmpe.f32	s15, s14
 2456 0062 F1EE10FA 		vmrs	APSR_nzcv, FPSCR
 2457 0066 01DD     		ble	.L99
 532:User/Hardware/DrEmpower_can.c ****             param = 300;
 2458              		.loc 1 532 19
 2459 0068 764B     		ldr	r3, .L108+8
 2460 006a 7B60     		str	r3, [r7, #4]	@ float
 2461              	.L99:
 533:User/Hardware/DrEmpower_can.c ****         int s16_width = (int)(abs(param / factor));
 2462              		.loc 1 533 41
 2463 006c D7ED016A 		vldr.32	s13, [r7, #4]
 2464 0070 97ED217A 		vldr.32	s14, [r7, #132]
 2465 0074 C6EE877A 		vdiv.f32	s15, s13, s14
 2466              		.loc 1 533 25
 2467 0078 FDEEE77A 		vcvt.s32.f32	s15, s15
 2468 007c 17EE903A 		vmov	r3, s15	@ int
 2469              		.loc 1 533 13
 2470 0080 002B     		cmp	r3, #0
 2471 0082 B8BF     		it	lt
 2472 0084 5B42     		rsblt	r3, r3, #0
ARM GAS  C:\Users\Godwin\AppData\Local\Temp\ccnuUyDc.s 			page 53


 2473 0086 3B66     		str	r3, [r7, #96]
 534:User/Hardware/DrEmpower_can.c **** 
 535:User/Hardware/DrEmpower_can.c ****         float value_data[3]= {f_angle,s16_speed,s16_width};
 2474              		.loc 1 535 15
 2475 0088 BB6E     		ldr	r3, [r7, #104]	@ float
 2476 008a 7B65     		str	r3, [r7, #84]	@ float
 2477 008c 7B6E     		ldr	r3, [r7, #100]
 2478 008e 07EE903A 		vmov	s15, r3	@ int
 2479 0092 F8EEE77A 		vcvt.f32.s32	s15, s15
 2480 0096 C7ED167A 		vstr.32	s15, [r7, #88]
 2481 009a 3B6E     		ldr	r3, [r7, #96]
 2482 009c 07EE903A 		vmov	s15, r3	@ int
 2483 00a0 F8EEE77A 		vcvt.f32.s32	s15, s15
 2484 00a4 C7ED177A 		vstr.32	s15, [r7, #92]
 536:User/Hardware/DrEmpower_can.c ****         int type_data[3]= {0,2,2};
 2485              		.loc 1 536 13
 2486 00a8 674A     		ldr	r2, .L108+12
 2487 00aa 07F14803 		add	r3, r7, #72
 2488 00ae 07CA     		ldm	r2, {r0, r1, r2}
 2489 00b0 83E80700 		stm	r3, {r0, r1, r2}
 537:User/Hardware/DrEmpower_can.c **** 
 538:User/Hardware/DrEmpower_can.c ****         format_data(value_data,type_data,3,"encode");
 2490              		.loc 1 538 9
 2491 00b4 07F14801 		add	r1, r7, #72
 2492 00b8 07F15400 		add	r0, r7, #84
 2493 00bc 634B     		ldr	r3, .L108+16
 2494 00be 0322     		movs	r2, #3
 2495 00c0 FFF7FEFF 		bl	format_data
 539:User/Hardware/DrEmpower_can.c **** 
 540:User/Hardware/DrEmpower_can.c ****         send_command(hcan, id_num,0x19,data_list.byte_data,0);
 2496              		.loc 1 540 9
 2497 00c4 F97C     		ldrb	r1, [r7, #19]	@ zero_extendqisi2
 2498 00c6 0023     		movs	r3, #0
 2499 00c8 0093     		str	r3, [sp]
 2500 00ca 614B     		ldr	r3, .L108+20
 2501 00cc 1922     		movs	r2, #25
 2502 00ce 7869     		ldr	r0, [r7, #20]
 2503 00d0 FFF7FEFF 		bl	send_command
 2504              	.LBE11:
 2505 00d4 AAE0     		b	.L101
 2506              	.L98:
 541:User/Hardware/DrEmpower_can.c ****     }
 542:User/Hardware/DrEmpower_can.c ****     else if (mode == 1)
 2507              		.loc 1 542 13
 2508 00d6 3B68     		ldr	r3, [r7]
 2509 00d8 012B     		cmp	r3, #1
 2510 00da 64D1     		bne	.L102
 543:User/Hardware/DrEmpower_can.c ****     {
 544:User/Hardware/DrEmpower_can.c ****         if ((speed > 0)&&(param > 0))
 2511              		.loc 1 544 12
 2512 00dc D7ED027A 		vldr.32	s15, [r7, #8]
 2513 00e0 F5EEC07A 		vcmpe.f32	s15, #0
 2514 00e4 F1EE10FA 		vmrs	APSR_nzcv, FPSCR
 2515 00e8 40F3A080 		ble	.L101
 2516              		.loc 1 544 24 discriminator 1
 2517 00ec D7ED017A 		vldr.32	s15, [r7, #4]
 2518 00f0 F5EEC07A 		vcmpe.f32	s15, #0
ARM GAS  C:\Users\Godwin\AppData\Local\Temp\ccnuUyDc.s 			page 54


 2519 00f4 F1EE10FA 		vmrs	APSR_nzcv, FPSCR
 2520 00f8 40F39880 		ble	.L101
 2521              	.LBB12:
 545:User/Hardware/DrEmpower_can.c ****         {
 546:User/Hardware/DrEmpower_can.c ****             float f_angle = angle;
 2522              		.loc 1 546 19
 2523 00fc FB68     		ldr	r3, [r7, #12]	@ float
 2524 00fe 7B67     		str	r3, [r7, #116]	@ float
 547:User/Hardware/DrEmpower_can.c ****             int s16_speed = (int)((abs(speed)) / factor);
 2525              		.loc 1 547 36
 2526 0100 D7ED027A 		vldr.32	s15, [r7, #8]
 2527 0104 FDEEE77A 		vcvt.s32.f32	s15, s15
 2528 0108 17EE903A 		vmov	r3, s15	@ int
 2529 010c 002B     		cmp	r3, #0
 2530 010e B8BF     		it	lt
 2531 0110 5B42     		rsblt	r3, r3, #0
 2532              		.loc 1 547 48
 2533 0112 07EE903A 		vmov	s15, r3	@ int
 2534 0116 F8EEE76A 		vcvt.f32.s32	s13, s15
 2535 011a 97ED217A 		vldr.32	s14, [r7, #132]
 2536 011e C6EE877A 		vdiv.f32	s15, s13, s14
 2537              		.loc 1 547 17
 2538 0122 FDEEE77A 		vcvt.s32.f32	s15, s15
 2539 0126 17EE903A 		vmov	r3, s15	@ int
 2540 012a 3B67     		str	r3, [r7, #112]
 548:User/Hardware/DrEmpower_can.c ****             int s16_accel = (int)((abs(param)) / factor);
 2541              		.loc 1 548 36
 2542 012c D7ED017A 		vldr.32	s15, [r7, #4]
 2543 0130 FDEEE77A 		vcvt.s32.f32	s15, s15
 2544 0134 17EE903A 		vmov	r3, s15	@ int
 2545 0138 002B     		cmp	r3, #0
 2546 013a B8BF     		it	lt
 2547 013c 5B42     		rsblt	r3, r3, #0
 2548              		.loc 1 548 48
 2549 013e 07EE903A 		vmov	s15, r3	@ int
 2550 0142 F8EEE76A 		vcvt.f32.s32	s13, s15
 2551 0146 97ED217A 		vldr.32	s14, [r7, #132]
 2552 014a C6EE877A 		vdiv.f32	s15, s13, s14
 2553              		.loc 1 548 17
 2554 014e FDEEE77A 		vcvt.s32.f32	s15, s15
 2555 0152 17EE903A 		vmov	r3, s15	@ int
 2556 0156 FB66     		str	r3, [r7, #108]
 549:User/Hardware/DrEmpower_can.c **** 
 550:User/Hardware/DrEmpower_can.c ****             float value_data[3]= {f_angle,s16_speed,s16_accel};
 2557              		.loc 1 550 19
 2558 0158 7B6F     		ldr	r3, [r7, #116]	@ float
 2559 015a FB63     		str	r3, [r7, #60]	@ float
 2560 015c 3B6F     		ldr	r3, [r7, #112]
 2561 015e 07EE903A 		vmov	s15, r3	@ int
 2562 0162 F8EEE77A 		vcvt.f32.s32	s15, s15
 2563 0166 C7ED107A 		vstr.32	s15, [r7, #64]
 2564 016a FB6E     		ldr	r3, [r7, #108]
 2565 016c 07EE903A 		vmov	s15, r3	@ int
 2566 0170 F8EEE77A 		vcvt.f32.s32	s15, s15
 2567 0174 C7ED117A 		vstr.32	s15, [r7, #68]
 551:User/Hardware/DrEmpower_can.c ****             int type_data[3]= {0,2,2};
 2568              		.loc 1 551 17
ARM GAS  C:\Users\Godwin\AppData\Local\Temp\ccnuUyDc.s 			page 55


 2569 0178 334A     		ldr	r2, .L108+12
 2570 017a 07F13003 		add	r3, r7, #48
 2571 017e 07CA     		ldm	r2, {r0, r1, r2}
 2572 0180 83E80700 		stm	r3, {r0, r1, r2}
 552:User/Hardware/DrEmpower_can.c **** 
 553:User/Hardware/DrEmpower_can.c ****             format_data(value_data,type_data,3,"encode");
 2573              		.loc 1 553 13
 2574 0184 07F13001 		add	r1, r7, #48
 2575 0188 07F13C00 		add	r0, r7, #60
 2576 018c 2F4B     		ldr	r3, .L108+16
 2577 018e 0322     		movs	r2, #3
 2578 0190 FFF7FEFF 		bl	format_data
 554:User/Hardware/DrEmpower_can.c **** 
 555:User/Hardware/DrEmpower_can.c ****             send_command(hcan, id_num,0x1A,data_list.byte_data,0);
 2579              		.loc 1 555 13
 2580 0194 F97C     		ldrb	r1, [r7, #19]	@ zero_extendqisi2
 2581 0196 0023     		movs	r3, #0
 2582 0198 0093     		str	r3, [sp]
 2583 019a 2D4B     		ldr	r3, .L108+20
 2584 019c 1A22     		movs	r2, #26
 2585 019e 7869     		ldr	r0, [r7, #20]
 2586 01a0 FFF7FEFF 		bl	send_command
 2587 01a4 42E0     		b	.L101
 2588              	.L102:
 2589              	.LBE12:
 556:User/Hardware/DrEmpower_can.c ****         }
 557:User/Hardware/DrEmpower_can.c ****     }
 558:User/Hardware/DrEmpower_can.c ****     else if (mode == 2)
 2590              		.loc 1 558 13
 2591 01a6 3B68     		ldr	r3, [r7]
 2592 01a8 022B     		cmp	r3, #2
 2593 01aa 3FD1     		bne	.L101
 2594              	.LBB13:
 559:User/Hardware/DrEmpower_can.c ****     {
 560:User/Hardware/DrEmpower_can.c ****         float f_angle = angle;
 2595              		.loc 1 560 15
 2596 01ac FB68     		ldr	r3, [r7, #12]	@ float
 2597 01ae C7F88030 		str	r3, [r7, #128]	@ float
 561:User/Hardware/DrEmpower_can.c ****         int s16_speed_ff = (int)((speed) / factor);
 2598              		.loc 1 561 42
 2599 01b2 D7ED026A 		vldr.32	s13, [r7, #8]
 2600 01b6 97ED217A 		vldr.32	s14, [r7, #132]
 2601 01ba C6EE877A 		vdiv.f32	s15, s13, s14
 2602              		.loc 1 561 13
 2603 01be FDEEE77A 		vcvt.s32.f32	s15, s15
 2604 01c2 17EE903A 		vmov	r3, s15	@ int
 2605 01c6 FB67     		str	r3, [r7, #124]
 562:User/Hardware/DrEmpower_can.c ****         int s16_torque_ff = (int)((param) / factor);
 2606              		.loc 1 562 43
 2607 01c8 D7ED016A 		vldr.32	s13, [r7, #4]
 2608 01cc 97ED217A 		vldr.32	s14, [r7, #132]
 2609 01d0 C6EE877A 		vdiv.f32	s15, s13, s14
 2610              		.loc 1 562 13
 2611 01d4 FDEEE77A 		vcvt.s32.f32	s15, s15
 2612 01d8 17EE903A 		vmov	r3, s15	@ int
 2613 01dc BB67     		str	r3, [r7, #120]
 563:User/Hardware/DrEmpower_can.c **** 
ARM GAS  C:\Users\Godwin\AppData\Local\Temp\ccnuUyDc.s 			page 56


 564:User/Hardware/DrEmpower_can.c ****         float value_data[3]= {f_angle,s16_speed_ff,s16_torque_ff};
 2614              		.loc 1 564 15
 2615 01de D7F88030 		ldr	r3, [r7, #128]	@ float
 2616 01e2 7B62     		str	r3, [r7, #36]	@ float
 2617 01e4 FB6F     		ldr	r3, [r7, #124]
 2618 01e6 07EE903A 		vmov	s15, r3	@ int
 2619 01ea F8EEE77A 		vcvt.f32.s32	s15, s15
 2620 01ee C7ED0A7A 		vstr.32	s15, [r7, #40]
 2621 01f2 BB6F     		ldr	r3, [r7, #120]
 2622 01f4 07EE903A 		vmov	s15, r3	@ int
 2623 01f8 F8EEE77A 		vcvt.f32.s32	s15, s15
 2624 01fc C7ED0B7A 		vstr.32	s15, [r7, #44]
 565:User/Hardware/DrEmpower_can.c ****         int type_data[3]= {0,2,2};
 2625              		.loc 1 565 13
 2626 0200 114A     		ldr	r2, .L108+12
 2627 0202 07F11803 		add	r3, r7, #24
 2628 0206 07CA     		ldm	r2, {r0, r1, r2}
 2629 0208 83E80700 		stm	r3, {r0, r1, r2}
 566:User/Hardware/DrEmpower_can.c **** 
 567:User/Hardware/DrEmpower_can.c ****         format_data(value_data,type_data,3,"encode");
 2630              		.loc 1 567 9
 2631 020c 07F11801 		add	r1, r7, #24
 2632 0210 07F12400 		add	r0, r7, #36
 2633 0214 0D4B     		ldr	r3, .L108+16
 2634 0216 0322     		movs	r2, #3
 2635 0218 FFF7FEFF 		bl	format_data
 568:User/Hardware/DrEmpower_can.c **** 
 569:User/Hardware/DrEmpower_can.c ****         send_command(hcan, id_num, 0x1B, data_list.byte_data, 0);
 2636              		.loc 1 569 9
 2637 021c F97C     		ldrb	r1, [r7, #19]	@ zero_extendqisi2
 2638 021e 0023     		movs	r3, #0
 2639 0220 0093     		str	r3, [sp]
 2640 0222 0B4B     		ldr	r3, .L108+20
 2641 0224 1B22     		movs	r2, #27
 2642 0226 7869     		ldr	r0, [r7, #20]
 2643 0228 FFF7FEFF 		bl	send_command
 2644              	.L101:
 2645              	.LBE13:
 570:User/Hardware/DrEmpower_can.c ****     }
 571:User/Hardware/DrEmpower_can.c ****     reply_state(id_num);
 2646              		.loc 1 571 5
 2647 022c FB7C     		ldrb	r3, [r7, #19]	@ zero_extendqisi2
 2648 022e 1846     		mov	r0, r3
 2649 0230 FFF7FEFF 		bl	reply_state
 572:User/Hardware/DrEmpower_can.c **** }
 2650              		.loc 1 572 1
 2651 0234 00BF     		nop
 2652 0236 8837     		adds	r7, r7, #136
 2653              	.LCFI114:
 2654              		.cfi_def_cfa_offset 8
 2655 0238 BD46     		mov	sp, r7
 2656              	.LCFI115:
 2657              		.cfi_def_cfa_register 13
 2658              		@ sp needed
 2659 023a 80BD     		pop	{r7, pc}
 2660              	.L109:
 2661              		.align	2
ARM GAS  C:\Users\Godwin\AppData\Local\Temp\ccnuUyDc.s 			page 57


 2662              	.L108:
 2663 023c 0AD7233C 		.word	1008981770
 2664 0240 00009643 		.word	1133903872
 2665 0244 00009643 		.word	1133903872
 2666 0248 10000000 		.word	.LC0
 2667 024c 00000000 		.word	.LC5
 2668 0250 0C000000 		.word	data_list+12
 2669              		.cfi_endproc
 2670              	.LFE167:
 2672              		.section	.rodata
 2673              		.align	2
 2674              	.LC1:
 2675 001c 03000000 		.word	3
 2676 0020 01000000 		.word	1
 2677 0024 01000000 		.word	1
 2678              		.section	.text.set_angles,"ax",%progbits
 2679              		.align	1
 2680              		.global	set_angles
 2681              		.syntax unified
 2682              		.thumb
 2683              		.thumb_func
 2685              	set_angles:
 2686              	.LFB168:
 573:User/Hardware/DrEmpower_can.c **** 
 574:User/Hardware/DrEmpower_can.c **** /**
 575:User/Hardware/DrEmpower_can.c ****  * @brief ¶ŕ¸öµç»úżŘÖĆşŻĘýˇŁ
 576:User/Hardware/DrEmpower_can.c ****  * żŘÖĆÖ¸¶¨µç»ú±ŕşĹµÄµç»ú°´ŐŐÖ¸¶¨µÄËŮ¶Č×Ş¶Żµ˝Ö¸¶¨µÄ˝Ç¶ČŁ¬±ŁÖ¤¶ŕ¸öµç»úÍ¬Ę±µ˝´ďÄż±ę˝Ç¶ČˇŁ
 577:User/Hardware/DrEmpower_can.c ****  *
 578:User/Hardware/DrEmpower_can.c ****  * @param hcan CANľä±ú
 579:User/Hardware/DrEmpower_can.c ****  * @param id_list µç»ú±ŕşĹ×éłÉµÄĘý×é
 580:User/Hardware/DrEmpower_can.c ****  * @param angle_list µç»ú˝Ç¶Č×éłÉµÄĘý×é
 581:User/Hardware/DrEmpower_can.c ****  * @param speed ×î´óµÄµç»ú×Ş¶ŻµÄËŮ¶ČŁ¨r/minŁ©»ňÇ°ŔˇËŮ¶Č
 582:User/Hardware/DrEmpower_can.c ****  * @param param mode=0,˝Ç¶ČĘäČëÂË˛¨´řżíŁ¨<300Ł©Ł¬mode=1,Ćô¶ŻşÍÍŁÖą˝×¶ÎĽÓËŮ¶ČŁ¨(r/min)/sŁ©; mode =2,
 583:User/Hardware/DrEmpower_can.c ****  * @param mode ˝Ç¶ČżŘÖĆÄŁĘ˝ŃˇÔńŁ¬µç»úÖ§łÖČýÖÖ˝Ç¶ČżŘÖĆÄŁĘ˝Ł¬
 584:User/Hardware/DrEmpower_can.c ****  *             mode = 0: ¶ŕ¸öµç»úąěĽŁ¸ú×ŮÄŁĘ˝Ł¬ÓĂÓÚŇ»°ăČĆÖáÔË¶ŻŁ¬ĚŘ±đĘĘşĎ¶ŕ¸öąěĽŁµăĘäČëŁ¬˝Ç¶ČĘäČë´ř
 585:User/Hardware/DrEmpower_can.c ****  *             mode = 1: ¶ŕ¸öµç»úĚÝĐÎąěĽŁÄŁĘ˝Ł¬´ËĘ±speedÎŞ¶ŕ¸öµç»úÖĐµÄ×îżěËŮ¶ČŁ¨r/minŁ©Ł¬paramÎŞÄż±
 586:User/Hardware/DrEmpower_can.c ****  *             mode = 2: Ç°ŔˇżŘÖĆÄŁĘ˝Ł¬ŐâÖÖÄŁĘ˝ĎÂµÄspeedşÍtorque·Ö±đÎŞÇ°ŔˇżŘÖĆÁż.Ç°ŔˇżŘÖĆÔÚÔ­ÓĐPIDż
 587:User/Hardware/DrEmpower_can.c ****  * @param n Ęý×éł¤¶Č
 588:User/Hardware/DrEmpower_can.c ****  */
 589:User/Hardware/DrEmpower_can.c **** void set_angles(hcan_t* hcan, uint8_t *id_list, float *angle_list, float speed, float param, int mo
 590:User/Hardware/DrEmpower_can.c **** {
 2687              		.loc 1 590 1
 2688              		.cfi_startproc
 2689              		@ args = 4, pretend = 0, frame = 152
 2690              		@ frame_needed = 1, uses_anonymous_args = 0
 2691 0000 80B5     		push	{r7, lr}
 2692              	.LCFI116:
 2693              		.cfi_def_cfa_offset 8
 2694              		.cfi_offset 7, -8
 2695              		.cfi_offset 14, -4
 2696 0002 A8B0     		sub	sp, sp, #160
 2697              	.LCFI117:
 2698              		.cfi_def_cfa_offset 168
 2699 0004 02AF     		add	r7, sp, #8
 2700              	.LCFI118:
 2701              		.cfi_def_cfa 7, 160
 2702 0006 7861     		str	r0, [r7, #20]
ARM GAS  C:\Users\Godwin\AppData\Local\Temp\ccnuUyDc.s 			page 58


 2703 0008 3961     		str	r1, [r7, #16]
 2704 000a FA60     		str	r2, [r7, #12]
 2705 000c 87ED020A 		vstr.32	s0, [r7, #8]
 2706 0010 C7ED010A 		vstr.32	s1, [r7, #4]
 2707 0014 3B60     		str	r3, [r7]
 591:User/Hardware/DrEmpower_can.c **** 
 592:User/Hardware/DrEmpower_can.c **** #if ENABLE_INPUT_VALIDITY_CHECK
 593:User/Hardware/DrEmpower_can.c ****     if (id_list == NULL || angle_list == NULL) return;
 2708              		.loc 1 593 8
 2709 0016 3B69     		ldr	r3, [r7, #16]
 2710 0018 002B     		cmp	r3, #0
 2711 001a 00F08582 		beq	.L150
 2712              		.loc 1 593 25 discriminator 2
 2713 001e FB68     		ldr	r3, [r7, #12]
 2714 0020 002B     		cmp	r3, #0
 2715 0022 00F08182 		beq	.L150
 594:User/Hardware/DrEmpower_can.c **** #endif
 595:User/Hardware/DrEmpower_can.c ****     static int last_count = 0;
 596:User/Hardware/DrEmpower_can.c ****     static uint8_t *last_id_list = NULL;
 597:User/Hardware/DrEmpower_can.c ****     static float *current_angle_list = NULL;
 598:User/Hardware/DrEmpower_can.c **** 
 599:User/Hardware/DrEmpower_can.c ****     uint8_t state = 0;
 2716              		.loc 1 599 13
 2717 0026 0023     		movs	r3, #0
 2718 0028 87F89730 		strb	r3, [r7, #151]
 2719              	.LBB14:
 600:User/Hardware/DrEmpower_can.c ****     for (size_t i = 0; i < n; i++)
 2720              		.loc 1 600 17
 2721 002c 0023     		movs	r3, #0
 2722 002e C7F89030 		str	r3, [r7, #144]
 2723              		.loc 1 600 5
 2724 0032 15E0     		b	.L114
 2725              	.L117:
 601:User/Hardware/DrEmpower_can.c ****     {
 602:User/Hardware/DrEmpower_can.c ****         if (last_id_list[i] != id_list[i])
 2726              		.loc 1 602 25
 2727 0034 BC4B     		ldr	r3, .L152
 2728 0036 1A68     		ldr	r2, [r3]
 2729 0038 D7F89030 		ldr	r3, [r7, #144]
 2730 003c 1344     		add	r3, r3, r2
 2731 003e 1A78     		ldrb	r2, [r3]	@ zero_extendqisi2
 2732              		.loc 1 602 39
 2733 0040 3969     		ldr	r1, [r7, #16]
 2734 0042 D7F89030 		ldr	r3, [r7, #144]
 2735 0046 0B44     		add	r3, r3, r1
 2736 0048 1B78     		ldrb	r3, [r3]	@ zero_extendqisi2
 2737              		.loc 1 602 12
 2738 004a 9A42     		cmp	r2, r3
 2739 004c 03D0     		beq	.L115
 603:User/Hardware/DrEmpower_can.c ****         {
 604:User/Hardware/DrEmpower_can.c ****             state = 1;
 2740              		.loc 1 604 19
 2741 004e 0123     		movs	r3, #1
 2742 0050 87F89730 		strb	r3, [r7, #151]
 605:User/Hardware/DrEmpower_can.c ****             break;
 2743              		.loc 1 605 13
 2744 0054 0AE0     		b	.L116
ARM GAS  C:\Users\Godwin\AppData\Local\Temp\ccnuUyDc.s 			page 59


 2745              	.L115:
 600:User/Hardware/DrEmpower_can.c ****     {
 2746              		.loc 1 600 32 discriminator 2
 2747 0056 D7F89030 		ldr	r3, [r7, #144]
 2748 005a 0133     		adds	r3, r3, #1
 2749 005c C7F89030 		str	r3, [r7, #144]
 2750              	.L114:
 600:User/Hardware/DrEmpower_can.c ****     {
 2751              		.loc 1 600 26 discriminator 1
 2752 0060 D7F89020 		ldr	r2, [r7, #144]
 2753 0064 D7F8A030 		ldr	r3, [r7, #160]
 2754 0068 9A42     		cmp	r2, r3
 2755 006a E3D3     		bcc	.L117
 2756              	.L116:
 2757              	.LBE14:
 606:User/Hardware/DrEmpower_can.c ****         }
 607:User/Hardware/DrEmpower_can.c ****     }
 608:User/Hardware/DrEmpower_can.c **** 
 609:User/Hardware/DrEmpower_can.c ****     if (last_count != n || state)
 2758              		.loc 1 609 20
 2759 006c AF4B     		ldr	r3, .L152+4
 2760 006e 1B68     		ldr	r3, [r3]
 2761 0070 1A46     		mov	r2, r3
 2762              		.loc 1 609 8
 2763 0072 D7F8A030 		ldr	r3, [r7, #160]
 2764 0076 9342     		cmp	r3, r2
 2765 0078 03D1     		bne	.L118
 2766              		.loc 1 609 25 discriminator 1
 2767 007a 97F89730 		ldrb	r3, [r7, #151]	@ zero_extendqisi2
 2768 007e 002B     		cmp	r3, #0
 2769 0080 4FD0     		beq	.L119
 2770              	.L118:
 610:User/Hardware/DrEmpower_can.c ****     {
 611:User/Hardware/DrEmpower_can.c ****         last_count = n;
 2771              		.loc 1 611 20
 2772 0082 D7F8A030 		ldr	r3, [r7, #160]
 2773 0086 A94A     		ldr	r2, .L152+4
 2774 0088 1360     		str	r3, [r2]
 612:User/Hardware/DrEmpower_can.c ****         SERVO_FREE(last_id_list);
 2775              		.loc 1 612 9
 2776 008a A74B     		ldr	r3, .L152
 2777 008c 1B68     		ldr	r3, [r3]
 2778 008e 1846     		mov	r0, r3
 2779 0090 FFF7FEFF 		bl	free
 613:User/Hardware/DrEmpower_can.c ****         SERVO_FREE(current_angle_list);
 2780              		.loc 1 613 9
 2781 0094 A64B     		ldr	r3, .L152+8
 2782 0096 1B68     		ldr	r3, [r3]
 2783 0098 1846     		mov	r0, r3
 2784 009a FFF7FEFF 		bl	free
 614:User/Hardware/DrEmpower_can.c ****         last_id_list = SERVO_MALLOC(n * sizeof(uint8_t));
 2785              		.loc 1 614 24
 2786 009e D7F8A000 		ldr	r0, [r7, #160]
 2787 00a2 FFF7FEFF 		bl	malloc
 2788 00a6 0346     		mov	r3, r0
 2789 00a8 1A46     		mov	r2, r3
 2790              		.loc 1 614 22 discriminator 1
ARM GAS  C:\Users\Godwin\AppData\Local\Temp\ccnuUyDc.s 			page 60


 2791 00aa 9F4B     		ldr	r3, .L152
 2792 00ac 1A60     		str	r2, [r3]
 615:User/Hardware/DrEmpower_can.c ****         current_angle_list = SERVO_MALLOC(n * sizeof(float));
 2793              		.loc 1 615 30
 2794 00ae D7F8A030 		ldr	r3, [r7, #160]
 2795 00b2 9B00     		lsls	r3, r3, #2
 2796 00b4 1846     		mov	r0, r3
 2797 00b6 FFF7FEFF 		bl	malloc
 2798 00ba 0346     		mov	r3, r0
 2799 00bc 1A46     		mov	r2, r3
 2800              		.loc 1 615 28 discriminator 1
 2801 00be 9C4B     		ldr	r3, .L152+8
 2802 00c0 1A60     		str	r2, [r3]
 616:User/Hardware/DrEmpower_can.c ****         memcpy(last_id_list, id_list, n * sizeof(uint8_t));
 2803              		.loc 1 616 9
 2804 00c2 994B     		ldr	r3, .L152
 2805 00c4 1B68     		ldr	r3, [r3]
 2806 00c6 D7F8A020 		ldr	r2, [r7, #160]
 2807 00ca 3969     		ldr	r1, [r7, #16]
 2808 00cc 1846     		mov	r0, r3
 2809 00ce FFF7FEFF 		bl	memcpy
 2810              	.LBB15:
 617:User/Hardware/DrEmpower_can.c ****         for (size_t i = 0; i < n; i++)
 2811              		.loc 1 617 21
 2812 00d2 0023     		movs	r3, #0
 2813 00d4 C7F88C30 		str	r3, [r7, #140]
 2814              		.loc 1 617 9
 2815 00d8 1DE0     		b	.L120
 2816              	.L121:
 618:User/Hardware/DrEmpower_can.c ****             current_angle_list[i] = get_state(hcan, id_list[i]).angle;
 2817              		.loc 1 618 60
 2818 00da 3A69     		ldr	r2, [r7, #16]
 2819 00dc D7F88C30 		ldr	r3, [r7, #140]
 2820 00e0 1344     		add	r3, r3, r2
 2821              		.loc 1 618 37
 2822 00e2 1B78     		ldrb	r3, [r3]	@ zero_extendqisi2
 2823 00e4 1946     		mov	r1, r3
 2824 00e6 7869     		ldr	r0, [r7, #20]
 2825 00e8 FFF7FEFF 		bl	get_state
 2826 00ec B0EE407A 		vmov.f32	s14, s0
 2827 00f0 F0EE607A 		vmov.f32	s15, s1
 2828 00f4 87ED187A 		vstr.32	s14, [r7, #96]
 2829 00f8 C7ED197A 		vstr.32	s15, [r7, #100]
 2830              		.loc 1 618 31 discriminator 1
 2831 00fc 8C4B     		ldr	r3, .L152+8
 2832 00fe 1A68     		ldr	r2, [r3]
 2833 0100 D7F88C30 		ldr	r3, [r7, #140]
 2834 0104 9B00     		lsls	r3, r3, #2
 2835 0106 1344     		add	r3, r3, r2
 2836              		.loc 1 618 64 discriminator 1
 2837 0108 3A6E     		ldr	r2, [r7, #96]	@ float
 2838              		.loc 1 618 35 discriminator 1
 2839 010a 1A60     		str	r2, [r3]	@ float
 617:User/Hardware/DrEmpower_can.c ****         for (size_t i = 0; i < n; i++)
 2840              		.loc 1 617 36 discriminator 3
 2841 010c D7F88C30 		ldr	r3, [r7, #140]
 2842 0110 0133     		adds	r3, r3, #1
ARM GAS  C:\Users\Godwin\AppData\Local\Temp\ccnuUyDc.s 			page 61


 2843 0112 C7F88C30 		str	r3, [r7, #140]
 2844              	.L120:
 617:User/Hardware/DrEmpower_can.c ****         for (size_t i = 0; i < n; i++)
 2845              		.loc 1 617 30 discriminator 1
 2846 0116 D7F88C20 		ldr	r2, [r7, #140]
 2847 011a D7F8A030 		ldr	r3, [r7, #160]
 2848 011e 9A42     		cmp	r2, r3
 2849 0120 DBD3     		bcc	.L121
 2850              	.L119:
 2851              	.LBE15:
 619:User/Hardware/DrEmpower_can.c ****     }
 620:User/Hardware/DrEmpower_can.c ****     if (mode == 0)
 2852              		.loc 1 620 8
 2853 0122 3B68     		ldr	r3, [r7]
 2854 0124 002B     		cmp	r3, #0
 2855 0126 4CD1     		bne	.L122
 2856              	.LBB16:
 2857              	.LBB17:
 621:User/Hardware/DrEmpower_can.c ****     {
 622:User/Hardware/DrEmpower_can.c ****         for (size_t i = 0; i < n; i++)
 2858              		.loc 1 622 21
 2859 0128 0023     		movs	r3, #0
 2860 012a C7F88830 		str	r3, [r7, #136]
 2861              		.loc 1 622 9
 2862 012e 1AE0     		b	.L123
 2863              	.L124:
 623:User/Hardware/DrEmpower_can.c ****             preset_angle(hcan, id_list[i],angle_list[i],speed,param,mode);
 2864              		.loc 1 623 39
 2865 0130 3A69     		ldr	r2, [r7, #16]
 2866 0132 D7F88830 		ldr	r3, [r7, #136]
 2867 0136 1344     		add	r3, r3, r2
 2868              		.loc 1 623 13
 2869 0138 1978     		ldrb	r1, [r3]	@ zero_extendqisi2
 2870              		.loc 1 623 53
 2871 013a D7F88830 		ldr	r3, [r7, #136]
 2872 013e 9B00     		lsls	r3, r3, #2
 2873 0140 FA68     		ldr	r2, [r7, #12]
 2874 0142 1344     		add	r3, r3, r2
 2875              		.loc 1 623 13
 2876 0144 D3ED007A 		vldr.32	s15, [r3]
 2877 0148 3A68     		ldr	r2, [r7]
 2878 014a 97ED011A 		vldr.32	s2, [r7, #4]
 2879 014e D7ED020A 		vldr.32	s1, [r7, #8]
 2880 0152 B0EE670A 		vmov.f32	s0, s15
 2881 0156 7869     		ldr	r0, [r7, #20]
 2882 0158 FFF7FEFF 		bl	preset_angle
 622:User/Hardware/DrEmpower_can.c ****             preset_angle(hcan, id_list[i],angle_list[i],speed,param,mode);
 2883              		.loc 1 622 36 discriminator 3
 2884 015c D7F88830 		ldr	r3, [r7, #136]
 2885 0160 0133     		adds	r3, r3, #1
 2886 0162 C7F88830 		str	r3, [r7, #136]
 2887              	.L123:
 622:User/Hardware/DrEmpower_can.c ****             preset_angle(hcan, id_list[i],angle_list[i],speed,param,mode);
 2888              		.loc 1 622 30 discriminator 1
 2889 0166 D7F88820 		ldr	r2, [r7, #136]
 2890 016a D7F8A030 		ldr	r3, [r7, #160]
 2891 016e 9A42     		cmp	r2, r3
ARM GAS  C:\Users\Godwin\AppData\Local\Temp\ccnuUyDc.s 			page 62


 2892 0170 DED3     		bcc	.L124
 2893              	.LBE17:
 624:User/Hardware/DrEmpower_can.c ****         unsigned char order_num = 0x10;
 2894              		.loc 1 624 23
 2895 0172 1023     		movs	r3, #16
 2896 0174 87F86B30 		strb	r3, [r7, #107]
 625:User/Hardware/DrEmpower_can.c **** 
 626:User/Hardware/DrEmpower_can.c ****         float value_data[3]= {order_num,0,0};
 2897              		.loc 1 626 15
 2898 0178 97F86B30 		ldrb	r3, [r7, #107]	@ zero_extendqisi2
 2899 017c 07EE903A 		vmov	s15, r3	@ int
 2900 0180 F8EE677A 		vcvt.f32.u32	s15, s15
 2901 0184 C7ED157A 		vstr.32	s15, [r7, #84]
 2902 0188 4FF00003 		mov	r3, #0
 2903 018c BB65     		str	r3, [r7, #88]	@ float
 2904 018e 4FF00003 		mov	r3, #0
 2905 0192 FB65     		str	r3, [r7, #92]	@ float
 627:User/Hardware/DrEmpower_can.c ****         int type_data[3]= {3,1,1};
 2906              		.loc 1 627 13
 2907 0194 674A     		ldr	r2, .L152+12
 2908 0196 07F14803 		add	r3, r7, #72
 2909 019a 07CA     		ldm	r2, {r0, r1, r2}
 2910 019c 83E80700 		stm	r3, {r0, r1, r2}
 628:User/Hardware/DrEmpower_can.c **** 
 629:User/Hardware/DrEmpower_can.c ****         format_data(value_data,type_data,3,"encode");
 2911              		.loc 1 629 9
 2912 01a0 07F14801 		add	r1, r7, #72
 2913 01a4 07F15400 		add	r0, r7, #84
 2914 01a8 634B     		ldr	r3, .L152+16
 2915 01aa 0322     		movs	r2, #3
 2916 01ac FFF7FEFF 		bl	format_data
 630:User/Hardware/DrEmpower_can.c **** 
 631:User/Hardware/DrEmpower_can.c ****         send_command(hcan, 0,0x08,data_list.byte_data,0);  // ĐčŇŞÓĂ±ę×ĽÖˇŁ¨ĘýľÝÖˇŁ©˝řĐĐ·˘ËÍŁ¬˛»ÄÜÓ
 2917              		.loc 1 631 9
 2918 01b0 0023     		movs	r3, #0
 2919 01b2 0093     		str	r3, [sp]
 2920 01b4 614B     		ldr	r3, .L152+20
 2921 01b6 0822     		movs	r2, #8
 2922 01b8 0021     		movs	r1, #0
 2923 01ba 7869     		ldr	r0, [r7, #20]
 2924 01bc FFF7FEFF 		bl	send_command
 2925              	.LBE16:
 2926 01c0 A8E1     		b	.L125
 2927              	.L122:
 632:User/Hardware/DrEmpower_can.c ****     }
 633:User/Hardware/DrEmpower_can.c ****     else if (mode == 1)
 2928              		.loc 1 633 13
 2929 01c2 3B68     		ldr	r3, [r7]
 2930 01c4 012B     		cmp	r3, #1
 2931 01c6 40F05C81 		bne	.L126
 2932              	.LBB18:
 634:User/Hardware/DrEmpower_can.c ****     {
 635:User/Hardware/DrEmpower_can.c ****         if ((speed < 0) ||( param < 0)) return;
 2933              		.loc 1 635 12
 2934 01ca D7ED027A 		vldr.32	s15, [r7, #8]
 2935 01ce F5EEC07A 		vcmpe.f32	s15, #0
 2936 01d2 F1EE10FA 		vmrs	APSR_nzcv, FPSCR
ARM GAS  C:\Users\Godwin\AppData\Local\Temp\ccnuUyDc.s 			page 63


 2937 01d6 00F1A981 		bmi	.L151
 2938              		.loc 1 635 25 discriminator 2
 2939 01da D7ED017A 		vldr.32	s15, [r7, #4]
 2940 01de F5EEC07A 		vcmpe.f32	s15, #0
 2941 01e2 F1EE10FA 		vmrs	APSR_nzcv, FPSCR
 2942 01e6 00F1A181 		bmi	.L151
 636:User/Hardware/DrEmpower_can.c ****         float delta_angle = 0;
 2943              		.loc 1 636 15
 2944 01ea 4FF00003 		mov	r3, #0
 2945 01ee C7F88430 		str	r3, [r7, #132]	@ float
 637:User/Hardware/DrEmpower_can.c ****         float t = 0;
 2946              		.loc 1 637 15
 2947 01f2 4FF00003 		mov	r3, #0
 2948 01f6 C7F88030 		str	r3, [r7, #128]	@ float
 2949              	.LBB19:
 638:User/Hardware/DrEmpower_can.c ****         float fabs_temp;
 639:User/Hardware/DrEmpower_can.c ****         for (size_t i = 0; i < n; i++)
 2950              		.loc 1 639 21
 2951 01fa 0023     		movs	r3, #0
 2952 01fc FB67     		str	r3, [r7, #124]
 2953              		.loc 1 639 9
 2954 01fe 21E0     		b	.L131
 2955              	.L134:
 640:User/Hardware/DrEmpower_can.c ****         {
 641:User/Hardware/DrEmpower_can.c ****             if (delta_angle < (fabs_temp = fabs(angle_list[i] - current_angle_list[i])))
 2956              		.loc 1 641 59
 2957 0200 FB6F     		ldr	r3, [r7, #124]
 2958 0202 9B00     		lsls	r3, r3, #2
 2959 0204 FA68     		ldr	r2, [r7, #12]
 2960 0206 1344     		add	r3, r3, r2
 2961 0208 93ED007A 		vldr.32	s14, [r3]
 2962              		.loc 1 641 83
 2963 020c 484B     		ldr	r3, .L152+8
 2964 020e 1A68     		ldr	r2, [r3]
 2965 0210 FB6F     		ldr	r3, [r7, #124]
 2966 0212 9B00     		lsls	r3, r3, #2
 2967 0214 1344     		add	r3, r3, r2
 2968 0216 D3ED007A 		vldr.32	s15, [r3]
 2969              		.loc 1 641 63
 2970 021a 77EE677A 		vsub.f32	s15, s14, s15
 2971              		.loc 1 641 42
 2972 021e F0EEE77A 		vabs.f32	s15, s15
 2973 0222 C7ED1B7A 		vstr.32	s15, [r7, #108]
 2974              		.loc 1 641 16
 2975 0226 97ED1B7A 		vldr.32	s14, [r7, #108]
 2976 022a D7ED217A 		vldr.32	s15, [r7, #132]
 2977 022e B4EEE77A 		vcmpe.f32	s14, s15
 2978 0232 F1EE10FA 		vmrs	APSR_nzcv, FPSCR
 2979 0236 02DD     		ble	.L132
 642:User/Hardware/DrEmpower_can.c ****                 delta_angle = fabs_temp;
 2980              		.loc 1 642 29
 2981 0238 FB6E     		ldr	r3, [r7, #108]	@ float
 2982 023a C7F88430 		str	r3, [r7, #132]	@ float
 2983              	.L132:
 639:User/Hardware/DrEmpower_can.c ****         {
 2984              		.loc 1 639 36 discriminator 2
 2985 023e FB6F     		ldr	r3, [r7, #124]
ARM GAS  C:\Users\Godwin\AppData\Local\Temp\ccnuUyDc.s 			page 64


 2986 0240 0133     		adds	r3, r3, #1
 2987 0242 FB67     		str	r3, [r7, #124]
 2988              	.L131:
 639:User/Hardware/DrEmpower_can.c ****         {
 2989              		.loc 1 639 30 discriminator 1
 2990 0244 FA6F     		ldr	r2, [r7, #124]
 2991 0246 D7F8A030 		ldr	r3, [r7, #160]
 2992 024a 9A42     		cmp	r2, r3
 2993 024c D8D3     		bcc	.L134
 2994              	.LBE19:
 643:User/Hardware/DrEmpower_can.c ****         }
 644:User/Hardware/DrEmpower_can.c ****         if (TRAJ_MODE == 2)
 2995              		.loc 1 644 23
 2996 024e 3C4B     		ldr	r3, .L152+24
 2997 0250 93F90030 		ldrsb	r3, [r3]
 2998              		.loc 1 644 12
 2999 0254 022B     		cmp	r3, #2
 3000 0256 75D1     		bne	.L135
 645:User/Hardware/DrEmpower_can.c ****         {
 646:User/Hardware/DrEmpower_can.c ****             if(delta_angle <= (12 * speed * speed / fabs(param)))
 3001              		.loc 1 646 28
 3002 0258 D7ED217A 		vldr.32	s15, [r7, #132]
 3003 025c B7EEE76A 		vcvt.f64.f32	d6, s15
 3004              		.loc 1 646 35
 3005 0260 D7ED027A 		vldr.32	s15, [r7, #8]
 3006 0264 B2EE087A 		vmov.f32	s14, #1.2e+1
 3007 0268 27EE877A 		vmul.f32	s14, s15, s14
 3008              		.loc 1 646 43
 3009 026c D7ED027A 		vldr.32	s15, [r7, #8]
 3010 0270 67EE277A 		vmul.f32	s15, s14, s15
 3011 0274 B7EEE74A 		vcvt.f64.f32	d4, s15
 3012              		.loc 1 646 53
 3013 0278 D7ED017A 		vldr.32	s15, [r7, #4]
 3014 027c F0EEE77A 		vabs.f32	s15, s15
 3015 0280 B7EEE75A 		vcvt.f64.f32	d5, s15
 3016              		.loc 1 646 51
 3017 0284 84EE057B 		vdiv.f64	d7, d4, d5
 3018              		.loc 1 646 15
 3019 0288 B4EEC76B 		vcmpe.f64	d6, d7
 3020 028c F1EE10FA 		vmrs	APSR_nzcv, FPSCR
 3021 0290 28D8     		bhi	.L148
 647:User/Hardware/DrEmpower_can.c ****             {
 648:User/Hardware/DrEmpower_can.c ****                 speed = sqrt((fabs(param) * delta_angle) / 12);
 3022              		.loc 1 648 31
 3023 0292 D7ED017A 		vldr.32	s15, [r7, #4]
 3024 0296 F0EEE77A 		vabs.f32	s15, s15
 3025 029a B7EEE76A 		vcvt.f64.f32	d6, s15
 3026              		.loc 1 648 43
 3027 029e D7ED217A 		vldr.32	s15, [r7, #132]
 3028 02a2 B7EEE77A 		vcvt.f64.f32	d7, s15
 3029 02a6 26EE077B 		vmul.f64	d7, d6, d7
 3030              		.loc 1 648 25
 3031 02aa B2EE085B 		vmov.f64	d5, #1.2e+1
 3032 02ae 87EE056B 		vdiv.f64	d6, d7, d5
 3033 02b2 B0EE460B 		vmov.f64	d0, d6
 3034 02b6 FFF7FEFF 		bl	sqrt
 3035 02ba B0EE407B 		vmov.f64	d7, d0
ARM GAS  C:\Users\Godwin\AppData\Local\Temp\ccnuUyDc.s 			page 65


 3036              		.loc 1 648 23 discriminator 1
 3037 02be F7EEC77B 		vcvt.f32.f64	s15, d7
 3038 02c2 C7ED027A 		vstr.32	s15, [r7, #8]
 649:User/Hardware/DrEmpower_can.c ****                 t = 4 * speed / fabs(param);
 3039              		.loc 1 649 23
 3040 02c6 D7ED027A 		vldr.32	s15, [r7, #8]
 3041 02ca B1EE007A 		vmov.f32	s14, #4.0e+0
 3042 02ce 67EE876A 		vmul.f32	s13, s15, s14
 3043              		.loc 1 649 33
 3044 02d2 D7ED017A 		vldr.32	s15, [r7, #4]
 3045 02d6 B0EEE77A 		vabs.f32	s14, s15
 3046              		.loc 1 649 19
 3047 02da C6EE877A 		vdiv.f32	s15, s13, s14
 3048 02de C7ED207A 		vstr.32	s15, [r7, #128]
 3049 02e2 87E0     		b	.L138
 3050              	.L148:
 650:User/Hardware/DrEmpower_can.c ****             }
 651:User/Hardware/DrEmpower_can.c ****             else
 652:User/Hardware/DrEmpower_can.c ****             {
 653:User/Hardware/DrEmpower_can.c ****                 t = delta_angle / (6 * speed) + 2 * speed / fabs(param);
 3051              		.loc 1 653 38
 3052 02e4 D7ED027A 		vldr.32	s15, [r7, #8]
 3053 02e8 B1EE087A 		vmov.f32	s14, #6.0e+0
 3054 02ec 27EE877A 		vmul.f32	s14, s15, s14
 3055              		.loc 1 653 33
 3056 02f0 D7ED216A 		vldr.32	s13, [r7, #132]
 3057 02f4 C6EE877A 		vdiv.f32	s15, s13, s14
 3058 02f8 B7EEE76A 		vcvt.f64.f32	d6, s15
 3059              		.loc 1 653 51
 3060 02fc D7ED027A 		vldr.32	s15, [r7, #8]
 3061 0300 77EEA77A 		vadd.f32	s15, s15, s15
 3062 0304 B7EEE74A 		vcvt.f64.f32	d4, s15
 3063              		.loc 1 653 61
 3064 0308 D7ED017A 		vldr.32	s15, [r7, #4]
 3065 030c F0EEE77A 		vabs.f32	s15, s15
 3066 0310 B7EEE75A 		vcvt.f64.f32	d5, s15
 3067              		.loc 1 653 59
 3068 0314 84EE057B 		vdiv.f64	d7, d4, d5
 3069              		.loc 1 653 47
 3070 0318 36EE077B 		vadd.f64	d7, d6, d7
 3071              		.loc 1 653 19
 3072 031c F7EEC77B 		vcvt.f32.f64	s15, d7
 3073 0320 C7ED207A 		vstr.32	s15, [r7, #128]
 3074 0324 66E0     		b	.L138
 3075              	.L153:
 3076 0326 00BF     		.align	2
 3077              	.L152:
 3078 0328 00000000 		.word	last_id_list.2
 3079 032c 00000000 		.word	last_count.1
 3080 0330 00000000 		.word	current_angle_list.0
 3081 0334 1C000000 		.word	.LC1
 3082 0338 00000000 		.word	.LC5
 3083 033c 0C000000 		.word	data_list+12
 3084 0340 00000000 		.word	TRAJ_MODE
 3085              	.L135:
 654:User/Hardware/DrEmpower_can.c ****             }
 655:User/Hardware/DrEmpower_can.c ****         }
ARM GAS  C:\Users\Godwin\AppData\Local\Temp\ccnuUyDc.s 			page 66


 656:User/Hardware/DrEmpower_can.c ****         else
 657:User/Hardware/DrEmpower_can.c ****         {
 658:User/Hardware/DrEmpower_can.c ****             if (delta_angle <= (6 * speed * speed / fabs(param)))
 3086              		.loc 1 658 29
 3087 0344 D7ED217A 		vldr.32	s15, [r7, #132]
 3088 0348 B7EEE76A 		vcvt.f64.f32	d6, s15
 3089              		.loc 1 658 35
 3090 034c D7ED027A 		vldr.32	s15, [r7, #8]
 3091 0350 B1EE087A 		vmov.f32	s14, #6.0e+0
 3092 0354 27EE877A 		vmul.f32	s14, s15, s14
 3093              		.loc 1 658 43
 3094 0358 D7ED027A 		vldr.32	s15, [r7, #8]
 3095 035c 67EE277A 		vmul.f32	s15, s14, s15
 3096 0360 B7EEE74A 		vcvt.f64.f32	d4, s15
 3097              		.loc 1 658 53
 3098 0364 D7ED017A 		vldr.32	s15, [r7, #4]
 3099 0368 F0EEE77A 		vabs.f32	s15, s15
 3100 036c B7EEE75A 		vcvt.f64.f32	d5, s15
 3101              		.loc 1 658 51
 3102 0370 84EE057B 		vdiv.f64	d7, d4, d5
 3103              		.loc 1 658 16
 3104 0374 B4EEC76B 		vcmpe.f64	d6, d7
 3105 0378 F1EE10FA 		vmrs	APSR_nzcv, FPSCR
 3106 037c 1CD8     		bhi	.L149
 659:User/Hardware/DrEmpower_can.c ****                 t = 2 * sqrt(delta_angle / (6 * fabs(param)));
 3107              		.loc 1 659 25
 3108 037e D7ED217A 		vldr.32	s15, [r7, #132]
 3109 0382 B7EEE76A 		vcvt.f64.f32	d6, s15
 3110              		.loc 1 659 49
 3111 0386 D7ED017A 		vldr.32	s15, [r7, #4]
 3112 038a F0EEE77A 		vabs.f32	s15, s15
 3113 038e B7EEE77A 		vcvt.f64.f32	d7, s15
 3114              		.loc 1 659 47
 3115 0392 B1EE085B 		vmov.f64	d5, #6.0e+0
 3116 0396 27EE057B 		vmul.f64	d7, d7, d5
 3117              		.loc 1 659 25
 3118 039a 86EE075B 		vdiv.f64	d5, d6, d7
 3119 039e B0EE450B 		vmov.f64	d0, d5
 3120 03a2 FFF7FEFF 		bl	sqrt
 3121 03a6 B0EE407B 		vmov.f64	d7, d0
 3122              		.loc 1 659 23 discriminator 1
 3123 03aa 37EE077B 		vadd.f64	d7, d7, d7
 3124              		.loc 1 659 19 discriminator 1
 3125 03ae F7EEC77B 		vcvt.f32.f64	s15, d7
 3126 03b2 C7ED207A 		vstr.32	s15, [r7, #128]
 3127 03b6 1DE0     		b	.L138
 3128              	.L149:
 660:User/Hardware/DrEmpower_can.c ****             else
 661:User/Hardware/DrEmpower_can.c ****                 t = speed / fabs(param) + delta_angle / (6 * speed);
 3129              		.loc 1 661 27
 3130 03b8 D7ED027A 		vldr.32	s15, [r7, #8]
 3131 03bc B7EEE75A 		vcvt.f64.f32	d5, s15
 3132              		.loc 1 661 29
 3133 03c0 D7ED017A 		vldr.32	s15, [r7, #4]
 3134 03c4 F0EEE77A 		vabs.f32	s15, s15
 3135 03c8 B7EEE77A 		vcvt.f64.f32	d7, s15
 3136              		.loc 1 661 27
ARM GAS  C:\Users\Godwin\AppData\Local\Temp\ccnuUyDc.s 			page 67


 3137 03cc 85EE076B 		vdiv.f64	d6, d5, d7
 3138              		.loc 1 661 60
 3139 03d0 D7ED027A 		vldr.32	s15, [r7, #8]
 3140 03d4 B1EE087A 		vmov.f32	s14, #6.0e+0
 3141 03d8 27EE877A 		vmul.f32	s14, s15, s14
 3142              		.loc 1 661 55
 3143 03dc D7ED215A 		vldr.32	s11, [r7, #132]
 3144 03e0 C5EE877A 		vdiv.f32	s15, s11, s14
 3145 03e4 B7EEE77A 		vcvt.f64.f32	d7, s15
 3146              		.loc 1 661 41
 3147 03e8 36EE077B 		vadd.f64	d7, d6, d7
 3148              		.loc 1 661 19
 3149 03ec F7EEC77B 		vcvt.f32.f64	s15, d7
 3150 03f0 C7ED207A 		vstr.32	s15, [r7, #128]
 3151              	.L138:
 3152              	.LBB20:
 662:User/Hardware/DrEmpower_can.c ****         }
 663:User/Hardware/DrEmpower_can.c ****         for (size_t i = 0; i < n; i++)
 3153              		.loc 1 663 21
 3154 03f4 0023     		movs	r3, #0
 3155 03f6 BB67     		str	r3, [r7, #120]
 3156              		.loc 1 663 9
 3157 03f8 16E0     		b	.L141
 3158              	.L142:
 664:User/Hardware/DrEmpower_can.c ****             preset_angle(hcan, id_list[i],angle_list[i],t,param,mode);
 3159              		.loc 1 664 39
 3160 03fa 3A69     		ldr	r2, [r7, #16]
 3161 03fc BB6F     		ldr	r3, [r7, #120]
 3162 03fe 1344     		add	r3, r3, r2
 3163              		.loc 1 664 13
 3164 0400 1978     		ldrb	r1, [r3]	@ zero_extendqisi2
 3165              		.loc 1 664 53
 3166 0402 BB6F     		ldr	r3, [r7, #120]
 3167 0404 9B00     		lsls	r3, r3, #2
 3168 0406 FA68     		ldr	r2, [r7, #12]
 3169 0408 1344     		add	r3, r3, r2
 3170              		.loc 1 664 13
 3171 040a D3ED007A 		vldr.32	s15, [r3]
 3172 040e 3A68     		ldr	r2, [r7]
 3173 0410 97ED011A 		vldr.32	s2, [r7, #4]
 3174 0414 D7ED200A 		vldr.32	s1, [r7, #128]
 3175 0418 B0EE670A 		vmov.f32	s0, s15
 3176 041c 7869     		ldr	r0, [r7, #20]
 3177 041e FFF7FEFF 		bl	preset_angle
 663:User/Hardware/DrEmpower_can.c ****             preset_angle(hcan, id_list[i],angle_list[i],t,param,mode);
 3178              		.loc 1 663 36 discriminator 3
 3179 0422 BB6F     		ldr	r3, [r7, #120]
 3180 0424 0133     		adds	r3, r3, #1
 3181 0426 BB67     		str	r3, [r7, #120]
 3182              	.L141:
 663:User/Hardware/DrEmpower_can.c ****             preset_angle(hcan, id_list[i],angle_list[i],t,param,mode);
 3183              		.loc 1 663 30 discriminator 1
 3184 0428 BA6F     		ldr	r2, [r7, #120]
 3185 042a D7F8A030 		ldr	r3, [r7, #160]
 3186 042e 9A42     		cmp	r2, r3
 3187 0430 E3D3     		bcc	.L142
 3188              	.LBE20:
ARM GAS  C:\Users\Godwin\AppData\Local\Temp\ccnuUyDc.s 			page 68


 665:User/Hardware/DrEmpower_can.c ****         unsigned char order_num = 0x11;
 3189              		.loc 1 665 23
 3190 0432 1123     		movs	r3, #17
 3191 0434 87F87230 		strb	r3, [r7, #114]
 666:User/Hardware/DrEmpower_can.c **** 
 667:User/Hardware/DrEmpower_can.c ****         float value_data[3]= {order_num,0,0};
 3192              		.loc 1 667 15
 3193 0438 97F87230 		ldrb	r3, [r7, #114]	@ zero_extendqisi2
 3194 043c 07EE903A 		vmov	s15, r3	@ int
 3195 0440 F8EE677A 		vcvt.f32.u32	s15, s15
 3196 0444 C7ED0F7A 		vstr.32	s15, [r7, #60]
 3197 0448 4FF00003 		mov	r3, #0
 3198 044c 3B64     		str	r3, [r7, #64]	@ float
 3199 044e 4FF00003 		mov	r3, #0
 3200 0452 7B64     		str	r3, [r7, #68]	@ float
 668:User/Hardware/DrEmpower_can.c ****         int type_data[3]= {3,1,1};
 3201              		.loc 1 668 13
 3202 0454 374A     		ldr	r2, .L154
 3203 0456 07F13003 		add	r3, r7, #48
 3204 045a 07CA     		ldm	r2, {r0, r1, r2}
 3205 045c 83E80700 		stm	r3, {r0, r1, r2}
 669:User/Hardware/DrEmpower_can.c ****         format_data(value_data,type_data,3,"encode");
 3206              		.loc 1 669 9
 3207 0460 07F13001 		add	r1, r7, #48
 3208 0464 07F13C00 		add	r0, r7, #60
 3209 0468 334B     		ldr	r3, .L154+4
 3210 046a 0322     		movs	r2, #3
 3211 046c FFF7FEFF 		bl	format_data
 670:User/Hardware/DrEmpower_can.c **** 
 671:User/Hardware/DrEmpower_can.c ****         send_command(hcan, 0,0x08,data_list.byte_data,0); // ĐčŇŞÓĂ±ę×ĽÖˇŁ¨ĘýľÝÖˇŁ©˝řĐĐ·˘ËÍŁ¬˛»ÄÜÓĂ
 3212              		.loc 1 671 9
 3213 0470 0023     		movs	r3, #0
 3214 0472 0093     		str	r3, [sp]
 3215 0474 314B     		ldr	r3, .L154+8
 3216 0476 0822     		movs	r2, #8
 3217 0478 0021     		movs	r1, #0
 3218 047a 7869     		ldr	r0, [r7, #20]
 3219 047c FFF7FEFF 		bl	send_command
 3220              	.LBE18:
 3221 0480 48E0     		b	.L125
 3222              	.L126:
 672:User/Hardware/DrEmpower_can.c ****     }
 673:User/Hardware/DrEmpower_can.c ****     else if( mode == 2)
 3223              		.loc 1 673 12
 3224 0482 3B68     		ldr	r3, [r7]
 3225 0484 022B     		cmp	r3, #2
 3226 0486 45D1     		bne	.L125
 3227              	.LBB21:
 3228              	.LBB22:
 674:User/Hardware/DrEmpower_can.c ****     {
 675:User/Hardware/DrEmpower_can.c ****         for (size_t i = 0; i < n; i++)
 3229              		.loc 1 675 21
 3230 0488 0023     		movs	r3, #0
 3231 048a 7B67     		str	r3, [r7, #116]
 3232              		.loc 1 675 9
 3233 048c 16E0     		b	.L143
 3234              	.L144:
ARM GAS  C:\Users\Godwin\AppData\Local\Temp\ccnuUyDc.s 			page 69


 676:User/Hardware/DrEmpower_can.c ****             preset_angle(hcan, id_list[i], angle_list[i],speed,param,mode);
 3235              		.loc 1 676 39
 3236 048e 3A69     		ldr	r2, [r7, #16]
 3237 0490 7B6F     		ldr	r3, [r7, #116]
 3238 0492 1344     		add	r3, r3, r2
 3239              		.loc 1 676 13
 3240 0494 1978     		ldrb	r1, [r3]	@ zero_extendqisi2
 3241              		.loc 1 676 54
 3242 0496 7B6F     		ldr	r3, [r7, #116]
 3243 0498 9B00     		lsls	r3, r3, #2
 3244 049a FA68     		ldr	r2, [r7, #12]
 3245 049c 1344     		add	r3, r3, r2
 3246              		.loc 1 676 13
 3247 049e D3ED007A 		vldr.32	s15, [r3]
 3248 04a2 3A68     		ldr	r2, [r7]
 3249 04a4 97ED011A 		vldr.32	s2, [r7, #4]
 3250 04a8 D7ED020A 		vldr.32	s1, [r7, #8]
 3251 04ac B0EE670A 		vmov.f32	s0, s15
 3252 04b0 7869     		ldr	r0, [r7, #20]
 3253 04b2 FFF7FEFF 		bl	preset_angle
 675:User/Hardware/DrEmpower_can.c ****             preset_angle(hcan, id_list[i], angle_list[i],speed,param,mode);
 3254              		.loc 1 675 36 discriminator 3
 3255 04b6 7B6F     		ldr	r3, [r7, #116]
 3256 04b8 0133     		adds	r3, r3, #1
 3257 04ba 7B67     		str	r3, [r7, #116]
 3258              	.L143:
 675:User/Hardware/DrEmpower_can.c ****             preset_angle(hcan, id_list[i], angle_list[i],speed,param,mode);
 3259              		.loc 1 675 30 discriminator 1
 3260 04bc 7A6F     		ldr	r2, [r7, #116]
 3261 04be D7F8A030 		ldr	r3, [r7, #160]
 3262 04c2 9A42     		cmp	r2, r3
 3263 04c4 E3D3     		bcc	.L144
 3264              	.LBE22:
 677:User/Hardware/DrEmpower_can.c ****         unsigned char order_num = 0x12;
 3265              		.loc 1 677 23
 3266 04c6 1223     		movs	r3, #18
 3267 04c8 87F87330 		strb	r3, [r7, #115]
 678:User/Hardware/DrEmpower_can.c **** 
 679:User/Hardware/DrEmpower_can.c ****         float value_data[3]= {order_num,0,0};
 3268              		.loc 1 679 15
 3269 04cc 97F87330 		ldrb	r3, [r7, #115]	@ zero_extendqisi2
 3270 04d0 07EE903A 		vmov	s15, r3	@ int
 3271 04d4 F8EE677A 		vcvt.f32.u32	s15, s15
 3272 04d8 C7ED097A 		vstr.32	s15, [r7, #36]
 3273 04dc 4FF00003 		mov	r3, #0
 3274 04e0 BB62     		str	r3, [r7, #40]	@ float
 3275 04e2 4FF00003 		mov	r3, #0
 3276 04e6 FB62     		str	r3, [r7, #44]	@ float
 680:User/Hardware/DrEmpower_can.c ****         int type_data[3]= {3,1,1};
 3277              		.loc 1 680 13
 3278 04e8 124A     		ldr	r2, .L154
 3279 04ea 07F11803 		add	r3, r7, #24
 3280 04ee 07CA     		ldm	r2, {r0, r1, r2}
 3281 04f0 83E80700 		stm	r3, {r0, r1, r2}
 681:User/Hardware/DrEmpower_can.c ****         format_data(value_data,type_data,3,"encode");
 3282              		.loc 1 681 9
 3283 04f4 07F11801 		add	r1, r7, #24
ARM GAS  C:\Users\Godwin\AppData\Local\Temp\ccnuUyDc.s 			page 70


 3284 04f8 07F12400 		add	r0, r7, #36
 3285 04fc 0E4B     		ldr	r3, .L154+4
 3286 04fe 0322     		movs	r2, #3
 3287 0500 FFF7FEFF 		bl	format_data
 682:User/Hardware/DrEmpower_can.c **** 
 683:User/Hardware/DrEmpower_can.c ****         send_command(hcan, 0,0x08,data_list.byte_data,0);  // ĐčŇŞÓĂ±ę×ĽÖˇŁ¨ĘýľÝÖˇŁ©˝řĐĐ·˘ËÍŁ¬˛»ÄÜÓ
 3288              		.loc 1 683 9
 3289 0504 0023     		movs	r3, #0
 3290 0506 0093     		str	r3, [sp]
 3291 0508 0C4B     		ldr	r3, .L154+8
 3292 050a 0822     		movs	r2, #8
 3293 050c 0021     		movs	r1, #0
 3294 050e 7869     		ldr	r0, [r7, #20]
 3295 0510 FFF7FEFF 		bl	send_command
 3296              	.L125:
 3297              	.LBE21:
 684:User/Hardware/DrEmpower_can.c ****     }
 685:User/Hardware/DrEmpower_can.c ****     memcpy(current_angle_list, angle_list, n * sizeof(float));
 3298              		.loc 1 685 5
 3299 0514 0A4B     		ldr	r3, .L154+12
 3300 0516 1868     		ldr	r0, [r3]
 3301 0518 D7F8A030 		ldr	r3, [r7, #160]
 3302 051c 9B00     		lsls	r3, r3, #2
 3303 051e 1A46     		mov	r2, r3
 3304 0520 F968     		ldr	r1, [r7, #12]
 3305 0522 FFF7FEFF 		bl	memcpy
 3306 0526 02E0     		b	.L110
 3307              	.L150:
 593:User/Hardware/DrEmpower_can.c **** #endif
 3308              		.loc 1 593 48
 3309 0528 00BF     		nop
 3310 052a 00E0     		b	.L110
 3311              	.L151:
 3312              	.LBB23:
 635:User/Hardware/DrEmpower_can.c ****         float delta_angle = 0;
 3313              		.loc 1 635 41
 3314 052c 00BF     		nop
 3315              	.L110:
 3316              	.LBE23:
 686:User/Hardware/DrEmpower_can.c **** }
 3317              		.loc 1 686 1
 3318 052e 9837     		adds	r7, r7, #152
 3319              	.LCFI119:
 3320              		.cfi_def_cfa_offset 8
 3321 0530 BD46     		mov	sp, r7
 3322              	.LCFI120:
 3323              		.cfi_def_cfa_register 13
 3324              		@ sp needed
 3325 0532 80BD     		pop	{r7, pc}
 3326              	.L155:
 3327              		.align	2
 3328              	.L154:
 3329 0534 1C000000 		.word	.LC1
 3330 0538 00000000 		.word	.LC5
 3331 053c 0C000000 		.word	data_list+12
 3332 0540 00000000 		.word	current_angle_list.0
 3333              		.cfi_endproc
ARM GAS  C:\Users\Godwin\AppData\Local\Temp\ccnuUyDc.s 			page 71


 3334              	.LFE168:
 3336              		.section	.text.step_angle,"ax",%progbits
 3337              		.align	1
 3338              		.global	step_angle
 3339              		.syntax unified
 3340              		.thumb
 3341              		.thumb_func
 3343              	step_angle:
 3344              	.LFB169:
 687:User/Hardware/DrEmpower_can.c **** 
 688:User/Hardware/DrEmpower_can.c **** /**
 689:User/Hardware/DrEmpower_can.c ****  * @brief µĄ¸öµç»úĎŕ¶Ô˝Ç¶ČżŘÖĆşŻĘýˇŁ
 690:User/Hardware/DrEmpower_can.c ****  * żŘÖĆÖ¸¶¨µç»ú±ŕşĹµÄµç»ú°´ŐŐÖ¸¶¨µÄËŮ¶ČĎŕ¶Ô×Ş¶ŻÖ¸¶¨µÄ˝Ç¶ČŁ¨Ďŕ¶Ô˝Ç¶ČŁ¬Ďŕ¶ÔÓÚµç»úµ±Ç°Î»ÖĂŁ©ˇŁ
 691:User/Hardware/DrEmpower_can.c ****  *
 692:User/Hardware/DrEmpower_can.c ****  * @param hcan CANľä±ú
 693:User/Hardware/DrEmpower_can.c ****  * @param id_num ĐčŇŞÉčÖĂµÄµç»úID±ŕşĹ,Čçąű˛»ÖŞµŔµ±Ç°µç»úIDŁ¬żÉŇÔÓĂ0ąă˛ĄŁ¬Čçąű×ÜĎßÉĎÓĐ¶ŕ¸öµç»úŁ¬Ôň¶ŕ
 694:User/Hardware/DrEmpower_can.c ****  * @param angle µç»úĎŕ¶Ô˝Ç¶ČŁ¨-360~360Ł©*nŁ¬Ö§łÖ´ó˝Ç¶Č×Ş¶Ż
 695:User/Hardware/DrEmpower_can.c ****  * @param speed ×î´óËŮ¶ČĎŢÖĆ»ňÇ°ŔˇËŮ¶ČŁ¨r/minŁ©
 696:User/Hardware/DrEmpower_can.c ****  * @param param mode=0,˝Ç¶ČĘäČëÂË˛¨´řżíŁ¨<300Ł©Ł¬mode=1,Ćô¶ŻşÍÍŁÖą˝×¶ÎĽÓËŮ¶ČŁ¨(r/min)/sŁ©; mode =2,
 697:User/Hardware/DrEmpower_can.c ****  * @param mode ˝Ç¶ČżŘÖĆÄŁĘ˝ŃˇÔńŁ¬µç»úÖ§łÖČýÖÖ˝Ç¶ČżŘÖĆÄŁĘ˝Ł¬
 698:User/Hardware/DrEmpower_can.c ****  *             mode = 0: ąěĽŁ¸ú×ŮÄŁĘ˝Ł¬ÓĂÓÚŇ»°ăČĆÖáÔË¶ŻŁ¬ĚŘ±đĘĘşĎ¶ŕ¸öąěĽŁµăĘäČëŁ¬˝Ç¶ČĘäČë´řżí˛ÎĘýĐč
 699:User/Hardware/DrEmpower_can.c ****  *             mode = 1: ĚÝĐÎąěĽŁÄŁĘ˝Ł¬ŐâÖÖÄŁĘ˝ĎÂżÉŇÔÖ¸¶¨ÔË¶ŻąýłĚÖĐµÄËŮ¶ČŁ¨speedŁ©şÍĆôÍŁĽÓËŮ¶ČŁ¨acc
 700:User/Hardware/DrEmpower_can.c ****  *             mode = 2: Ç°ŔˇżŘÖĆÄŁĘ˝Ł¬ŐâÖÖÄŁĘ˝ĎÂµÄspeedşÍtorque·Ö±đÎŞÇ°ŔˇżŘÖĆÁż.Ç°ŔˇżŘÖĆÔÚÔ­ÓĐPIDż
 701:User/Hardware/DrEmpower_can.c ****  * @note ÔÚmode=1,ĚÝĐÎąěĽŁÄŁĘ˝ÖĐŁ¬speedşÍaccel¶ĽĐčŇŞ´óÓÚ0.Čçąűspeed=0»áµĽÖÂµç»ú±¨motor error ˛˘ÍËłö
 702:User/Hardware/DrEmpower_can.c ****  *       ÁíÍâČçąűŐâÖÖÄŁĘ˝ĎÂaccel=0Ł¬µç»úŇÔ×îżěËŮ¶ČÔË¶Żµ˝angle,speed˛ÎĘý˛»ÔŮĆä×÷ÓĂˇŁ
 703:User/Hardware/DrEmpower_can.c ****  */
 704:User/Hardware/DrEmpower_can.c **** void step_angle(hcan_t* hcan, uint8_t id_num, float angle, float speed, float param, int mode)
 705:User/Hardware/DrEmpower_can.c **** {
 3345              		.loc 1 705 1
 3346              		.cfi_startproc
 3347              		@ args = 0, pretend = 0, frame = 24
 3348              		@ frame_needed = 1, uses_anonymous_args = 0
 3349 0000 80B5     		push	{r7, lr}
 3350              	.LCFI121:
 3351              		.cfi_def_cfa_offset 8
 3352              		.cfi_offset 7, -8
 3353              		.cfi_offset 14, -4
 3354 0002 88B0     		sub	sp, sp, #32
 3355              	.LCFI122:
 3356              		.cfi_def_cfa_offset 40
 3357 0004 02AF     		add	r7, sp, #8
 3358              	.LCFI123:
 3359              		.cfi_def_cfa 7, 32
 3360 0006 7861     		str	r0, [r7, #20]
 3361 0008 0B46     		mov	r3, r1
 3362 000a 87ED030A 		vstr.32	s0, [r7, #12]
 3363 000e C7ED020A 		vstr.32	s1, [r7, #8]
 3364 0012 87ED011A 		vstr.32	s2, [r7, #4]
 3365 0016 3A60     		str	r2, [r7]
 3366 0018 FB74     		strb	r3, [r7, #19]
 706:User/Hardware/DrEmpower_can.c ****     step_angles(hcan, &id_num,&angle,speed,param,mode,1);
 3367              		.loc 1 706 5
 3368 001a 07F10C02 		add	r2, r7, #12
 3369 001e 07F11301 		add	r1, r7, #19
 3370 0022 0123     		movs	r3, #1
 3371 0024 0093     		str	r3, [sp]
 3372 0026 3B68     		ldr	r3, [r7]
ARM GAS  C:\Users\Godwin\AppData\Local\Temp\ccnuUyDc.s 			page 72


 3373 0028 D7ED010A 		vldr.32	s1, [r7, #4]
 3374 002c 97ED020A 		vldr.32	s0, [r7, #8]
 3375 0030 7869     		ldr	r0, [r7, #20]
 3376 0032 FFF7FEFF 		bl	step_angles
 707:User/Hardware/DrEmpower_can.c **** }
 3377              		.loc 1 707 1
 3378 0036 00BF     		nop
 3379 0038 1837     		adds	r7, r7, #24
 3380              	.LCFI124:
 3381              		.cfi_def_cfa_offset 8
 3382 003a BD46     		mov	sp, r7
 3383              	.LCFI125:
 3384              		.cfi_def_cfa_register 13
 3385              		@ sp needed
 3386 003c 80BD     		pop	{r7, pc}
 3387              		.cfi_endproc
 3388              	.LFE169:
 3390              		.section	.text.step_angles,"ax",%progbits
 3391              		.align	1
 3392              		.global	step_angles
 3393              		.syntax unified
 3394              		.thumb
 3395              		.thumb_func
 3397              	step_angles:
 3398              	.LFB170:
 708:User/Hardware/DrEmpower_can.c **** /**
 709:User/Hardware/DrEmpower_can.c ****  * @brief ¶ŕ¸öµç»úĎŕ¶Ô˝Ç¶ČżŘÖĆşŻĘýˇŁ
 710:User/Hardware/DrEmpower_can.c ****  * żŘÖĆÖ¸¶¨µç»ú±ŕşĹµÄµç»ú°´ŐŐÖ¸¶¨µÄĘ±ĽäĎŕ¶Ô×Ş¶Ż¸ř¶¨˝Ç¶ČˇŁ
 711:User/Hardware/DrEmpower_can.c ****  *
 712:User/Hardware/DrEmpower_can.c ****  * @param hcan CANľä±ú
 713:User/Hardware/DrEmpower_can.c ****  * @param id_list µç»ú±ŕşĹ×éłÉµÄÁĐ±í
 714:User/Hardware/DrEmpower_can.c ****  * @param angle_list µç»ú˝Ç¶Č×éłÉµÄÁĐ±í
 715:User/Hardware/DrEmpower_can.c ****  * @param speed ×î´óµÄµç»ú×Ş¶ŻµÄËŮ¶ČŁ¨r/minŁ©»ňÇ°ŔˇËŮ¶Č
 716:User/Hardware/DrEmpower_can.c ****  * @param param mode=0,˝Ç¶ČĘäČëÂË˛¨´řżíŁ¨<300Ł©Ł¬mode=1,Ćô¶ŻşÍÍŁÖą˝×¶ÎĽÓËŮ¶ČŁ¨(r/min)/sŁ©; mode =2,
 717:User/Hardware/DrEmpower_can.c ****  * @param mode ˝Ç¶ČżŘÖĆÄŁĘ˝ŃˇÔńŁ¬µç»úÖ§łÖČýÖÖ˝Ç¶ČżŘÖĆÄŁĘ˝Ł¬
 718:User/Hardware/DrEmpower_can.c ****  *             mode = 0: ¶ŕ¸öµç»úąěĽŁ¸ú×ŮÄŁĘ˝Ł¬ÓĂÓÚŇ»°ăČĆÖáÔË¶ŻŁ¬ĚŘ±đĘĘşĎ¶ŕ¸öąěĽŁµăĘäČëŁ¬˝Ç¶ČĘäČë´ř
 719:User/Hardware/DrEmpower_can.c ****  *             mode = 1: ¶ŕ¸öµç»úĚÝĐÎąěĽŁÄŁĘ˝Ł¬´ËĘ±speedÎŞ¶ŕ¸öµç»úÖĐµÄ×îżěËŮ¶ČŁ¨r/minŁ©Ł¬paramÎŞÄż±
 720:User/Hardware/DrEmpower_can.c ****  *             mode = 2: Ç°ŔˇżŘÖĆÄŁĘ˝Ł¬ŐâÖÖÄŁĘ˝ĎÂµÄspeedşÍtorque·Ö±đÎŞÇ°ŔˇżŘÖĆÁż.Ç°ŔˇżŘÖĆÔÚÔ­ÓĐPIDż
 721:User/Hardware/DrEmpower_can.c ****  * @param n Ęý×éł¤¶Č
 722:User/Hardware/DrEmpower_can.c ****  */
 723:User/Hardware/DrEmpower_can.c **** void step_angles(hcan_t* hcan, uint8_t *id_list, float *angle_list, float speed, float param, int m
 724:User/Hardware/DrEmpower_can.c **** {
 3399              		.loc 1 724 1
 3400              		.cfi_startproc
 3401              		@ args = 4, pretend = 0, frame = 136
 3402              		@ frame_needed = 1, uses_anonymous_args = 0
 3403 0000 80B5     		push	{r7, lr}
 3404              	.LCFI126:
 3405              		.cfi_def_cfa_offset 8
 3406              		.cfi_offset 7, -8
 3407              		.cfi_offset 14, -4
 3408 0002 A4B0     		sub	sp, sp, #144
 3409              	.LCFI127:
 3410              		.cfi_def_cfa_offset 152
 3411 0004 02AF     		add	r7, sp, #8
 3412              	.LCFI128:
 3413              		.cfi_def_cfa 7, 144
ARM GAS  C:\Users\Godwin\AppData\Local\Temp\ccnuUyDc.s 			page 73


 3414 0006 7861     		str	r0, [r7, #20]
 3415 0008 3961     		str	r1, [r7, #16]
 3416 000a FA60     		str	r2, [r7, #12]
 3417 000c 87ED020A 		vstr.32	s0, [r7, #8]
 3418 0010 C7ED010A 		vstr.32	s1, [r7, #4]
 3419 0014 3B60     		str	r3, [r7]
 725:User/Hardware/DrEmpower_can.c **** #if ENABLE_INPUT_VALIDITY_CHECK
 726:User/Hardware/DrEmpower_can.c ****     if (id_list == NULL || angle_list == NULL) return;
 3420              		.loc 1 726 8
 3421 0016 3B69     		ldr	r3, [r7, #16]
 3422 0018 002B     		cmp	r3, #0
 3423 001a 00F0ED81 		beq	.L188
 3424              		.loc 1 726 25 discriminator 2
 3425 001e FB68     		ldr	r3, [r7, #12]
 3426 0020 002B     		cmp	r3, #0
 3427 0022 00F0E981 		beq	.L188
 727:User/Hardware/DrEmpower_can.c **** #endif
 728:User/Hardware/DrEmpower_can.c ****     if (mode == 0)
 3428              		.loc 1 728 8
 3429 0026 3B68     		ldr	r3, [r7]
 3430 0028 002B     		cmp	r3, #0
 3431 002a 4CD1     		bne	.L161
 3432              	.LBB24:
 3433              	.LBB25:
 729:User/Hardware/DrEmpower_can.c ****     {
 730:User/Hardware/DrEmpower_can.c ****         for (size_t i = 0; i < n; i++)
 3434              		.loc 1 730 21
 3435 002c 0023     		movs	r3, #0
 3436 002e C7F88430 		str	r3, [r7, #132]
 3437              		.loc 1 730 9
 3438 0032 1AE0     		b	.L162
 3439              	.L163:
 731:User/Hardware/DrEmpower_can.c ****             preset_angle(hcan, id_list[i], angle_list[i], speed, param, mode);
 3440              		.loc 1 731 39
 3441 0034 3A69     		ldr	r2, [r7, #16]
 3442 0036 D7F88430 		ldr	r3, [r7, #132]
 3443 003a 1344     		add	r3, r3, r2
 3444              		.loc 1 731 13
 3445 003c 1978     		ldrb	r1, [r3]	@ zero_extendqisi2
 3446              		.loc 1 731 54
 3447 003e D7F88430 		ldr	r3, [r7, #132]
 3448 0042 9B00     		lsls	r3, r3, #2
 3449 0044 FA68     		ldr	r2, [r7, #12]
 3450 0046 1344     		add	r3, r3, r2
 3451              		.loc 1 731 13
 3452 0048 D3ED007A 		vldr.32	s15, [r3]
 3453 004c 3A68     		ldr	r2, [r7]
 3454 004e 97ED011A 		vldr.32	s2, [r7, #4]
 3455 0052 D7ED020A 		vldr.32	s1, [r7, #8]
 3456 0056 B0EE670A 		vmov.f32	s0, s15
 3457 005a 7869     		ldr	r0, [r7, #20]
 3458 005c FFF7FEFF 		bl	preset_angle
 730:User/Hardware/DrEmpower_can.c ****             preset_angle(hcan, id_list[i], angle_list[i], speed, param, mode);
 3459              		.loc 1 730 36 discriminator 3
 3460 0060 D7F88430 		ldr	r3, [r7, #132]
 3461 0064 0133     		adds	r3, r3, #1
 3462 0066 C7F88430 		str	r3, [r7, #132]
ARM GAS  C:\Users\Godwin\AppData\Local\Temp\ccnuUyDc.s 			page 74


 3463              	.L162:
 730:User/Hardware/DrEmpower_can.c ****             preset_angle(hcan, id_list[i], angle_list[i], speed, param, mode);
 3464              		.loc 1 730 30 discriminator 1
 3465 006a D7F88420 		ldr	r2, [r7, #132]
 3466 006e D7F89030 		ldr	r3, [r7, #144]
 3467 0072 9A42     		cmp	r2, r3
 3468 0074 DED3     		bcc	.L163
 3469              	.LBE25:
 732:User/Hardware/DrEmpower_can.c ****         unsigned char order_num = 0x10;
 3470              		.loc 1 732 23
 3471 0076 1023     		movs	r3, #16
 3472 0078 87F86730 		strb	r3, [r7, #103]
 733:User/Hardware/DrEmpower_can.c **** 
 734:User/Hardware/DrEmpower_can.c ****         float value_data[3]= {order_num,0,0};
 3473              		.loc 1 734 15
 3474 007c 97F86730 		ldrb	r3, [r7, #103]	@ zero_extendqisi2
 3475 0080 07EE903A 		vmov	s15, r3	@ int
 3476 0084 F8EE677A 		vcvt.f32.u32	s15, s15
 3477 0088 C7ED167A 		vstr.32	s15, [r7, #88]
 3478 008c 4FF00003 		mov	r3, #0
 3479 0090 FB65     		str	r3, [r7, #92]	@ float
 3480 0092 4FF00003 		mov	r3, #0
 3481 0096 3B66     		str	r3, [r7, #96]	@ float
 735:User/Hardware/DrEmpower_can.c ****         int type_data[3]= {3,1,1};
 3482              		.loc 1 735 13
 3483 0098 D34A     		ldr	r2, .L190
 3484 009a 07F14C03 		add	r3, r7, #76
 3485 009e 07CA     		ldm	r2, {r0, r1, r2}
 3486 00a0 83E80700 		stm	r3, {r0, r1, r2}
 736:User/Hardware/DrEmpower_can.c ****         format_data(value_data,type_data,3,"encode");
 3487              		.loc 1 736 9
 3488 00a4 07F14C01 		add	r1, r7, #76
 3489 00a8 07F15800 		add	r0, r7, #88
 3490 00ac CF4B     		ldr	r3, .L190+4
 3491 00ae 0322     		movs	r2, #3
 3492 00b0 FFF7FEFF 		bl	format_data
 737:User/Hardware/DrEmpower_can.c **** 
 738:User/Hardware/DrEmpower_can.c ****         send_command(hcan, 0,0x08,data_list.byte_data,0); //ĐčŇŞÓĂ±ę×ĽÖˇŁ¨ĘýľÝÖˇŁ©˝řĐĐ·˘ËÍŁ¬˛»ÄÜÓĂÔ
 3493              		.loc 1 738 9
 3494 00b4 0023     		movs	r3, #0
 3495 00b6 0093     		str	r3, [sp]
 3496 00b8 CD4B     		ldr	r3, .L190+8
 3497 00ba 0822     		movs	r2, #8
 3498 00bc 0021     		movs	r1, #0
 3499 00be 7869     		ldr	r0, [r7, #20]
 3500 00c0 FFF7FEFF 		bl	send_command
 3501              	.LBE24:
 3502 00c4 9BE1     		b	.L157
 3503              	.L161:
 739:User/Hardware/DrEmpower_can.c ****     }
 740:User/Hardware/DrEmpower_can.c ****     else if( mode == 1)
 3504              		.loc 1 740 12
 3505 00c6 3B68     		ldr	r3, [r7]
 3506 00c8 012B     		cmp	r3, #1
 3507 00ca 40F04381 		bne	.L164
 3508              	.LBB26:
 741:User/Hardware/DrEmpower_can.c ****     {
ARM GAS  C:\Users\Godwin\AppData\Local\Temp\ccnuUyDc.s 			page 75


 742:User/Hardware/DrEmpower_can.c ****         if (speed <= 0 || param <= 0) return;
 3509              		.loc 1 742 12
 3510 00ce D7ED027A 		vldr.32	s15, [r7, #8]
 3511 00d2 F5EEC07A 		vcmpe.f32	s15, #0
 3512 00d6 F1EE10FA 		vmrs	APSR_nzcv, FPSCR
 3513 00da 40F28F81 		bls	.L189
 3514              		.loc 1 742 24 discriminator 2
 3515 00de D7ED017A 		vldr.32	s15, [r7, #4]
 3516 00e2 F5EEC07A 		vcmpe.f32	s15, #0
 3517 00e6 F1EE10FA 		vmrs	APSR_nzcv, FPSCR
 3518 00ea 40F28781 		bls	.L189
 743:User/Hardware/DrEmpower_can.c ****         float delta_angle = 0;
 3519              		.loc 1 743 15
 3520 00ee 4FF00003 		mov	r3, #0
 3521 00f2 C7F88030 		str	r3, [r7, #128]	@ float
 744:User/Hardware/DrEmpower_can.c ****         float t = 0;
 3522              		.loc 1 744 15
 3523 00f6 4FF00003 		mov	r3, #0
 3524 00fa FB67     		str	r3, [r7, #124]	@ float
 3525              	.LBB27:
 745:User/Hardware/DrEmpower_can.c ****         float fabs_temp;
 746:User/Hardware/DrEmpower_can.c ****         for (size_t i = 0; i < n; i++)
 3526              		.loc 1 746 21
 3527 00fc 0023     		movs	r3, #0
 3528 00fe BB67     		str	r3, [r7, #120]
 3529              		.loc 1 746 9
 3530 0100 18E0     		b	.L169
 3531              	.L172:
 747:User/Hardware/DrEmpower_can.c ****         {
 748:User/Hardware/DrEmpower_can.c ****             if(delta_angle < (fabs_temp = fabs(angle_list[i])))
 3532              		.loc 1 748 58
 3533 0102 BB6F     		ldr	r3, [r7, #120]
 3534 0104 9B00     		lsls	r3, r3, #2
 3535 0106 FA68     		ldr	r2, [r7, #12]
 3536 0108 1344     		add	r3, r3, r2
 3537 010a D3ED007A 		vldr.32	s15, [r3]
 3538              		.loc 1 748 41
 3539 010e F0EEE77A 		vabs.f32	s15, s15
 3540 0112 C7ED1A7A 		vstr.32	s15, [r7, #104]
 3541              		.loc 1 748 15
 3542 0116 97ED1A7A 		vldr.32	s14, [r7, #104]
 3543 011a D7ED207A 		vldr.32	s15, [r7, #128]
 3544 011e B4EEE77A 		vcmpe.f32	s14, s15
 3545 0122 F1EE10FA 		vmrs	APSR_nzcv, FPSCR
 3546 0126 02DD     		ble	.L170
 749:User/Hardware/DrEmpower_can.c ****                 delta_angle = fabs_temp;
 3547              		.loc 1 749 29
 3548 0128 BB6E     		ldr	r3, [r7, #104]	@ float
 3549 012a C7F88030 		str	r3, [r7, #128]	@ float
 3550              	.L170:
 746:User/Hardware/DrEmpower_can.c ****         {
 3551              		.loc 1 746 36 discriminator 2
 3552 012e BB6F     		ldr	r3, [r7, #120]
 3553 0130 0133     		adds	r3, r3, #1
 3554 0132 BB67     		str	r3, [r7, #120]
 3555              	.L169:
 746:User/Hardware/DrEmpower_can.c ****         {
ARM GAS  C:\Users\Godwin\AppData\Local\Temp\ccnuUyDc.s 			page 76


 3556              		.loc 1 746 30 discriminator 1
 3557 0134 BA6F     		ldr	r2, [r7, #120]
 3558 0136 D7F89030 		ldr	r3, [r7, #144]
 3559 013a 9A42     		cmp	r2, r3
 3560 013c E1D3     		bcc	.L172
 3561              	.LBE27:
 750:User/Hardware/DrEmpower_can.c ****         }
 751:User/Hardware/DrEmpower_can.c ****         if(TRAJ_MODE == 2)
 3562              		.loc 1 751 22
 3563 013e AD4B     		ldr	r3, .L190+12
 3564 0140 93F90030 		ldrsb	r3, [r3]
 3565              		.loc 1 751 11
 3566 0144 022B     		cmp	r3, #2
 3567 0146 66D1     		bne	.L173
 752:User/Hardware/DrEmpower_can.c ****         {
 753:User/Hardware/DrEmpower_can.c ****             if(delta_angle <= (12 * speed * speed / fabs(param)))
 3568              		.loc 1 753 28
 3569 0148 D7ED207A 		vldr.32	s15, [r7, #128]
 3570 014c B7EEE76A 		vcvt.f64.f32	d6, s15
 3571              		.loc 1 753 35
 3572 0150 D7ED027A 		vldr.32	s15, [r7, #8]
 3573 0154 B2EE087A 		vmov.f32	s14, #1.2e+1
 3574 0158 27EE877A 		vmul.f32	s14, s15, s14
 3575              		.loc 1 753 43
 3576 015c D7ED027A 		vldr.32	s15, [r7, #8]
 3577 0160 67EE277A 		vmul.f32	s15, s14, s15
 3578 0164 B7EEE74A 		vcvt.f64.f32	d4, s15
 3579              		.loc 1 753 53
 3580 0168 D7ED017A 		vldr.32	s15, [r7, #4]
 3581 016c F0EEE77A 		vabs.f32	s15, s15
 3582 0170 B7EEE75A 		vcvt.f64.f32	d5, s15
 3583              		.loc 1 753 51
 3584 0174 84EE057B 		vdiv.f64	d7, d4, d5
 3585              		.loc 1 753 15
 3586 0178 B4EEC76B 		vcmpe.f64	d6, d7
 3587 017c F1EE10FA 		vmrs	APSR_nzcv, FPSCR
 3588 0180 28D8     		bhi	.L186
 754:User/Hardware/DrEmpower_can.c ****             {
 755:User/Hardware/DrEmpower_can.c ****                 speed = sqrt((fabs(param) * delta_angle) / 12);
 3589              		.loc 1 755 31
 3590 0182 D7ED017A 		vldr.32	s15, [r7, #4]
 3591 0186 F0EEE77A 		vabs.f32	s15, s15
 3592 018a B7EEE76A 		vcvt.f64.f32	d6, s15
 3593              		.loc 1 755 43
 3594 018e D7ED207A 		vldr.32	s15, [r7, #128]
 3595 0192 B7EEE77A 		vcvt.f64.f32	d7, s15
 3596 0196 26EE077B 		vmul.f64	d7, d6, d7
 3597              		.loc 1 755 25
 3598 019a B2EE085B 		vmov.f64	d5, #1.2e+1
 3599 019e 87EE056B 		vdiv.f64	d6, d7, d5
 3600 01a2 B0EE460B 		vmov.f64	d0, d6
 3601 01a6 FFF7FEFF 		bl	sqrt
 3602 01aa B0EE407B 		vmov.f64	d7, d0
 3603              		.loc 1 755 23 discriminator 1
 3604 01ae F7EEC77B 		vcvt.f32.f64	s15, d7
 3605 01b2 C7ED027A 		vstr.32	s15, [r7, #8]
 756:User/Hardware/DrEmpower_can.c ****                 t = 4 * speed / fabs(param);
ARM GAS  C:\Users\Godwin\AppData\Local\Temp\ccnuUyDc.s 			page 77


 3606              		.loc 1 756 23
 3607 01b6 D7ED027A 		vldr.32	s15, [r7, #8]
 3608 01ba B1EE007A 		vmov.f32	s14, #4.0e+0
 3609 01be 67EE876A 		vmul.f32	s13, s15, s14
 3610              		.loc 1 756 33
 3611 01c2 D7ED017A 		vldr.32	s15, [r7, #4]
 3612 01c6 B0EEE77A 		vabs.f32	s14, s15
 3613              		.loc 1 756 19
 3614 01ca C6EE877A 		vdiv.f32	s15, s13, s14
 3615 01ce C7ED1F7A 		vstr.32	s15, [r7, #124]
 3616 01d2 78E0     		b	.L176
 3617              	.L186:
 757:User/Hardware/DrEmpower_can.c ****             }
 758:User/Hardware/DrEmpower_can.c ****             else
 759:User/Hardware/DrEmpower_can.c ****             {
 760:User/Hardware/DrEmpower_can.c ****                 t = delta_angle / (6 * speed) + 2 * speed / fabs(param);
 3618              		.loc 1 760 38
 3619 01d4 D7ED027A 		vldr.32	s15, [r7, #8]
 3620 01d8 B1EE087A 		vmov.f32	s14, #6.0e+0
 3621 01dc 27EE877A 		vmul.f32	s14, s15, s14
 3622              		.loc 1 760 33
 3623 01e0 D7ED206A 		vldr.32	s13, [r7, #128]
 3624 01e4 C6EE877A 		vdiv.f32	s15, s13, s14
 3625 01e8 B7EEE76A 		vcvt.f64.f32	d6, s15
 3626              		.loc 1 760 51
 3627 01ec D7ED027A 		vldr.32	s15, [r7, #8]
 3628 01f0 77EEA77A 		vadd.f32	s15, s15, s15
 3629 01f4 B7EEE74A 		vcvt.f64.f32	d4, s15
 3630              		.loc 1 760 61
 3631 01f8 D7ED017A 		vldr.32	s15, [r7, #4]
 3632 01fc F0EEE77A 		vabs.f32	s15, s15
 3633 0200 B7EEE75A 		vcvt.f64.f32	d5, s15
 3634              		.loc 1 760 59
 3635 0204 84EE057B 		vdiv.f64	d7, d4, d5
 3636              		.loc 1 760 47
 3637 0208 36EE077B 		vadd.f64	d7, d6, d7
 3638              		.loc 1 760 19
 3639 020c F7EEC77B 		vcvt.f32.f64	s15, d7
 3640 0210 C7ED1F7A 		vstr.32	s15, [r7, #124]
 3641 0214 57E0     		b	.L176
 3642              	.L173:
 761:User/Hardware/DrEmpower_can.c ****             }
 762:User/Hardware/DrEmpower_can.c ****         }
 763:User/Hardware/DrEmpower_can.c ****         else
 764:User/Hardware/DrEmpower_can.c ****         {
 765:User/Hardware/DrEmpower_can.c ****             if(delta_angle <= (6 * speed * speed / fabs(param)))
 3643              		.loc 1 765 28
 3644 0216 D7ED207A 		vldr.32	s15, [r7, #128]
 3645 021a B7EEE76A 		vcvt.f64.f32	d6, s15
 3646              		.loc 1 765 34
 3647 021e D7ED027A 		vldr.32	s15, [r7, #8]
 3648 0222 B1EE087A 		vmov.f32	s14, #6.0e+0
 3649 0226 27EE877A 		vmul.f32	s14, s15, s14
 3650              		.loc 1 765 42
 3651 022a D7ED027A 		vldr.32	s15, [r7, #8]
 3652 022e 67EE277A 		vmul.f32	s15, s14, s15
 3653 0232 B7EEE74A 		vcvt.f64.f32	d4, s15
ARM GAS  C:\Users\Godwin\AppData\Local\Temp\ccnuUyDc.s 			page 78


 3654              		.loc 1 765 52
 3655 0236 D7ED017A 		vldr.32	s15, [r7, #4]
 3656 023a F0EEE77A 		vabs.f32	s15, s15
 3657 023e B7EEE75A 		vcvt.f64.f32	d5, s15
 3658              		.loc 1 765 50
 3659 0242 84EE057B 		vdiv.f64	d7, d4, d5
 3660              		.loc 1 765 15
 3661 0246 B4EEC76B 		vcmpe.f64	d6, d7
 3662 024a F1EE10FA 		vmrs	APSR_nzcv, FPSCR
 3663 024e 1CD8     		bhi	.L187
 766:User/Hardware/DrEmpower_can.c ****                 t = 2 * sqrt(delta_angle / (6 * fabs(param)));
 3664              		.loc 1 766 25
 3665 0250 D7ED207A 		vldr.32	s15, [r7, #128]
 3666 0254 B7EEE76A 		vcvt.f64.f32	d6, s15
 3667              		.loc 1 766 49
 3668 0258 D7ED017A 		vldr.32	s15, [r7, #4]
 3669 025c F0EEE77A 		vabs.f32	s15, s15
 3670 0260 B7EEE77A 		vcvt.f64.f32	d7, s15
 3671              		.loc 1 766 47
 3672 0264 B1EE085B 		vmov.f64	d5, #6.0e+0
 3673 0268 27EE057B 		vmul.f64	d7, d7, d5
 3674              		.loc 1 766 25
 3675 026c 86EE075B 		vdiv.f64	d5, d6, d7
 3676 0270 B0EE450B 		vmov.f64	d0, d5
 3677 0274 FFF7FEFF 		bl	sqrt
 3678 0278 B0EE407B 		vmov.f64	d7, d0
 3679              		.loc 1 766 23 discriminator 1
 3680 027c 37EE077B 		vadd.f64	d7, d7, d7
 3681              		.loc 1 766 19 discriminator 1
 3682 0280 F7EEC77B 		vcvt.f32.f64	s15, d7
 3683 0284 C7ED1F7A 		vstr.32	s15, [r7, #124]
 3684 0288 1DE0     		b	.L176
 3685              	.L187:
 767:User/Hardware/DrEmpower_can.c ****             else
 768:User/Hardware/DrEmpower_can.c ****                 t = speed / fabs(param) + delta_angle / (6 * speed);
 3686              		.loc 1 768 27
 3687 028a D7ED027A 		vldr.32	s15, [r7, #8]
 3688 028e B7EEE75A 		vcvt.f64.f32	d5, s15
 3689              		.loc 1 768 29
 3690 0292 D7ED017A 		vldr.32	s15, [r7, #4]
 3691 0296 F0EEE77A 		vabs.f32	s15, s15
 3692 029a B7EEE77A 		vcvt.f64.f32	d7, s15
 3693              		.loc 1 768 27
 3694 029e 85EE076B 		vdiv.f64	d6, d5, d7
 3695              		.loc 1 768 60
 3696 02a2 D7ED027A 		vldr.32	s15, [r7, #8]
 3697 02a6 B1EE087A 		vmov.f32	s14, #6.0e+0
 3698 02aa 27EE877A 		vmul.f32	s14, s15, s14
 3699              		.loc 1 768 55
 3700 02ae D7ED205A 		vldr.32	s11, [r7, #128]
 3701 02b2 C5EE877A 		vdiv.f32	s15, s11, s14
 3702 02b6 B7EEE77A 		vcvt.f64.f32	d7, s15
 3703              		.loc 1 768 41
 3704 02ba 36EE077B 		vadd.f64	d7, d6, d7
 3705              		.loc 1 768 19
 3706 02be F7EEC77B 		vcvt.f32.f64	s15, d7
 3707 02c2 C7ED1F7A 		vstr.32	s15, [r7, #124]
ARM GAS  C:\Users\Godwin\AppData\Local\Temp\ccnuUyDc.s 			page 79


 3708              	.L176:
 3709              	.LBB28:
 769:User/Hardware/DrEmpower_can.c ****         }
 770:User/Hardware/DrEmpower_can.c ****         for (size_t i = 0; i < n; i++)
 3710              		.loc 1 770 21
 3711 02c6 0023     		movs	r3, #0
 3712 02c8 7B67     		str	r3, [r7, #116]
 3713              		.loc 1 770 9
 3714 02ca 16E0     		b	.L179
 3715              	.L180:
 771:User/Hardware/DrEmpower_can.c ****             preset_angle(hcan, id_list[i], angle_list[i], t, param, mode);
 3716              		.loc 1 771 39
 3717 02cc 3A69     		ldr	r2, [r7, #16]
 3718 02ce 7B6F     		ldr	r3, [r7, #116]
 3719 02d0 1344     		add	r3, r3, r2
 3720              		.loc 1 771 13
 3721 02d2 1978     		ldrb	r1, [r3]	@ zero_extendqisi2
 3722              		.loc 1 771 54
 3723 02d4 7B6F     		ldr	r3, [r7, #116]
 3724 02d6 9B00     		lsls	r3, r3, #2
 3725 02d8 FA68     		ldr	r2, [r7, #12]
 3726 02da 1344     		add	r3, r3, r2
 3727              		.loc 1 771 13
 3728 02dc D3ED007A 		vldr.32	s15, [r3]
 3729 02e0 3A68     		ldr	r2, [r7]
 3730 02e2 97ED011A 		vldr.32	s2, [r7, #4]
 3731 02e6 D7ED1F0A 		vldr.32	s1, [r7, #124]
 3732 02ea B0EE670A 		vmov.f32	s0, s15
 3733 02ee 7869     		ldr	r0, [r7, #20]
 3734 02f0 FFF7FEFF 		bl	preset_angle
 770:User/Hardware/DrEmpower_can.c ****             preset_angle(hcan, id_list[i], angle_list[i], t, param, mode);
 3735              		.loc 1 770 36 discriminator 3
 3736 02f4 7B6F     		ldr	r3, [r7, #116]
 3737 02f6 0133     		adds	r3, r3, #1
 3738 02f8 7B67     		str	r3, [r7, #116]
 3739              	.L179:
 770:User/Hardware/DrEmpower_can.c ****             preset_angle(hcan, id_list[i], angle_list[i], t, param, mode);
 3740              		.loc 1 770 30 discriminator 1
 3741 02fa 7A6F     		ldr	r2, [r7, #116]
 3742 02fc D7F89030 		ldr	r3, [r7, #144]
 3743 0300 9A42     		cmp	r2, r3
 3744 0302 E3D3     		bcc	.L180
 3745              	.LBE28:
 772:User/Hardware/DrEmpower_can.c ****         unsigned char order_num = 0x11;
 3746              		.loc 1 772 23
 3747 0304 1123     		movs	r3, #17
 3748 0306 87F86E30 		strb	r3, [r7, #110]
 773:User/Hardware/DrEmpower_can.c **** 
 774:User/Hardware/DrEmpower_can.c ****         float value_data[3]= {order_num,0,0};
 3749              		.loc 1 774 15
 3750 030a 97F86E30 		ldrb	r3, [r7, #110]	@ zero_extendqisi2
 3751 030e 07EE903A 		vmov	s15, r3	@ int
 3752 0312 F8EE677A 		vcvt.f32.u32	s15, s15
 3753 0316 C7ED107A 		vstr.32	s15, [r7, #64]
 3754 031a 4FF00003 		mov	r3, #0
 3755 031e 7B64     		str	r3, [r7, #68]	@ float
 3756 0320 4FF00003 		mov	r3, #0
ARM GAS  C:\Users\Godwin\AppData\Local\Temp\ccnuUyDc.s 			page 80


 3757 0324 BB64     		str	r3, [r7, #72]	@ float
 775:User/Hardware/DrEmpower_can.c ****         int type_data[3]= {3,1,1};
 3758              		.loc 1 775 13
 3759 0326 304A     		ldr	r2, .L190
 3760 0328 07F13403 		add	r3, r7, #52
 3761 032c 07CA     		ldm	r2, {r0, r1, r2}
 3762 032e 83E80700 		stm	r3, {r0, r1, r2}
 776:User/Hardware/DrEmpower_can.c ****         format_data(value_data,type_data,3,"encode");
 3763              		.loc 1 776 9
 3764 0332 07F13401 		add	r1, r7, #52
 3765 0336 07F14000 		add	r0, r7, #64
 3766 033a 2C4B     		ldr	r3, .L190+4
 3767 033c 0322     		movs	r2, #3
 3768 033e FFF7FEFF 		bl	format_data
 777:User/Hardware/DrEmpower_can.c **** 
 778:User/Hardware/DrEmpower_can.c ****         send_command(hcan, 0, 0x08, data_list.byte_data,0);  // ĐčŇŞÓĂ±ę×ĽÖˇŁ¨ĘýľÝÖˇŁ©˝řĐĐ·˘ËÍŁ¬˛»Ä
 3769              		.loc 1 778 9
 3770 0342 0023     		movs	r3, #0
 3771 0344 0093     		str	r3, [sp]
 3772 0346 2A4B     		ldr	r3, .L190+8
 3773 0348 0822     		movs	r2, #8
 3774 034a 0021     		movs	r1, #0
 3775 034c 7869     		ldr	r0, [r7, #20]
 3776 034e FFF7FEFF 		bl	send_command
 3777              	.LBE26:
 3778 0352 54E0     		b	.L157
 3779              	.L164:
 779:User/Hardware/DrEmpower_can.c ****     }
 780:User/Hardware/DrEmpower_can.c ****     else if (mode == 2)
 3780              		.loc 1 780 13
 3781 0354 3B68     		ldr	r3, [r7]
 3782 0356 022B     		cmp	r3, #2
 3783 0358 51D1     		bne	.L157
 3784              	.LBB29:
 3785              	.LBB30:
 781:User/Hardware/DrEmpower_can.c ****     {
 782:User/Hardware/DrEmpower_can.c ****         for (size_t i = 0; i < n; i++)
 3786              		.loc 1 782 21
 3787 035a 0023     		movs	r3, #0
 3788 035c 3B67     		str	r3, [r7, #112]
 3789              		.loc 1 782 9
 3790 035e 16E0     		b	.L181
 3791              	.L182:
 783:User/Hardware/DrEmpower_can.c ****             preset_angle(hcan, id_list[i], angle_list[i], speed, param, mode);
 3792              		.loc 1 783 39
 3793 0360 3A69     		ldr	r2, [r7, #16]
 3794 0362 3B6F     		ldr	r3, [r7, #112]
 3795 0364 1344     		add	r3, r3, r2
 3796              		.loc 1 783 13
 3797 0366 1978     		ldrb	r1, [r3]	@ zero_extendqisi2
 3798              		.loc 1 783 54
 3799 0368 3B6F     		ldr	r3, [r7, #112]
 3800 036a 9B00     		lsls	r3, r3, #2
 3801 036c FA68     		ldr	r2, [r7, #12]
 3802 036e 1344     		add	r3, r3, r2
 3803              		.loc 1 783 13
 3804 0370 D3ED007A 		vldr.32	s15, [r3]
ARM GAS  C:\Users\Godwin\AppData\Local\Temp\ccnuUyDc.s 			page 81


 3805 0374 3A68     		ldr	r2, [r7]
 3806 0376 97ED011A 		vldr.32	s2, [r7, #4]
 3807 037a D7ED020A 		vldr.32	s1, [r7, #8]
 3808 037e B0EE670A 		vmov.f32	s0, s15
 3809 0382 7869     		ldr	r0, [r7, #20]
 3810 0384 FFF7FEFF 		bl	preset_angle
 782:User/Hardware/DrEmpower_can.c ****             preset_angle(hcan, id_list[i], angle_list[i], speed, param, mode);
 3811              		.loc 1 782 36 discriminator 3
 3812 0388 3B6F     		ldr	r3, [r7, #112]
 3813 038a 0133     		adds	r3, r3, #1
 3814 038c 3B67     		str	r3, [r7, #112]
 3815              	.L181:
 782:User/Hardware/DrEmpower_can.c ****             preset_angle(hcan, id_list[i], angle_list[i], speed, param, mode);
 3816              		.loc 1 782 30 discriminator 1
 3817 038e 3A6F     		ldr	r2, [r7, #112]
 3818 0390 D7F89030 		ldr	r3, [r7, #144]
 3819 0394 9A42     		cmp	r2, r3
 3820 0396 E3D3     		bcc	.L182
 3821              	.LBE30:
 784:User/Hardware/DrEmpower_can.c ****         unsigned char order_num = 0x12;
 3822              		.loc 1 784 23
 3823 0398 1223     		movs	r3, #18
 3824 039a 87F86F30 		strb	r3, [r7, #111]
 785:User/Hardware/DrEmpower_can.c **** 
 786:User/Hardware/DrEmpower_can.c ****         float value_data[3]= {order_num,0,0};
 3825              		.loc 1 786 15
 3826 039e 97F86F30 		ldrb	r3, [r7, #111]	@ zero_extendqisi2
 3827 03a2 07EE903A 		vmov	s15, r3	@ int
 3828 03a6 F8EE677A 		vcvt.f32.u32	s15, s15
 3829 03aa C7ED0A7A 		vstr.32	s15, [r7, #40]
 3830 03ae 4FF00003 		mov	r3, #0
 3831 03b2 FB62     		str	r3, [r7, #44]	@ float
 3832 03b4 4FF00003 		mov	r3, #0
 3833 03b8 3B63     		str	r3, [r7, #48]	@ float
 787:User/Hardware/DrEmpower_can.c ****         int type_data[3]= {3,1,1};
 3834              		.loc 1 787 13
 3835 03ba 0B4A     		ldr	r2, .L190
 3836 03bc 07F11C03 		add	r3, r7, #28
 3837 03c0 07CA     		ldm	r2, {r0, r1, r2}
 3838 03c2 83E80700 		stm	r3, {r0, r1, r2}
 788:User/Hardware/DrEmpower_can.c ****         format_data(value_data,type_data,3,"encode");
 3839              		.loc 1 788 9
 3840 03c6 07F11C01 		add	r1, r7, #28
 3841 03ca 07F12800 		add	r0, r7, #40
 3842 03ce 074B     		ldr	r3, .L190+4
 3843 03d0 0322     		movs	r2, #3
 3844 03d2 FFF7FEFF 		bl	format_data
 789:User/Hardware/DrEmpower_can.c **** 
 790:User/Hardware/DrEmpower_can.c ****         send_command(hcan, 0,0x08,data_list.byte_data,0);  //ĐčŇŞÓĂ±ę×ĽÖˇŁ¨ĘýľÝÖˇŁ©˝řĐĐ·˘ËÍŁ¬˛»ÄÜÓĂ
 3845              		.loc 1 790 9
 3846 03d6 0023     		movs	r3, #0
 3847 03d8 0093     		str	r3, [sp]
 3848 03da 054B     		ldr	r3, .L190+8
 3849 03dc 0822     		movs	r2, #8
 3850 03de 0021     		movs	r1, #0
 3851 03e0 7869     		ldr	r0, [r7, #20]
 3852 03e2 FFF7FEFF 		bl	send_command
ARM GAS  C:\Users\Godwin\AppData\Local\Temp\ccnuUyDc.s 			page 82


 3853 03e6 0AE0     		b	.L157
 3854              	.L191:
 3855              		.align	2
 3856              	.L190:
 3857 03e8 1C000000 		.word	.LC1
 3858 03ec 00000000 		.word	.LC5
 3859 03f0 0C000000 		.word	data_list+12
 3860 03f4 00000000 		.word	TRAJ_MODE
 3861              	.L188:
 3862              	.LBE29:
 726:User/Hardware/DrEmpower_can.c **** #endif
 3863              		.loc 1 726 48
 3864 03f8 00BF     		nop
 3865 03fa 00E0     		b	.L157
 3866              	.L189:
 3867              	.LBB31:
 742:User/Hardware/DrEmpower_can.c ****         float delta_angle = 0;
 3868              		.loc 1 742 39
 3869 03fc 00BF     		nop
 3870              	.L157:
 3871              	.LBE31:
 791:User/Hardware/DrEmpower_can.c ****     }
 792:User/Hardware/DrEmpower_can.c **** }
 3872              		.loc 1 792 1
 3873 03fe 8837     		adds	r7, r7, #136
 3874              	.LCFI129:
 3875              		.cfi_def_cfa_offset 8
 3876 0400 BD46     		mov	sp, r7
 3877              	.LCFI130:
 3878              		.cfi_def_cfa_register 13
 3879              		@ sp needed
 3880 0402 80BD     		pop	{r7, pc}
 3881              		.cfi_endproc
 3882              	.LFE170:
 3884              		.section	.rodata
 3885              		.align	2
 3886              	.LC2:
 3887 0028 00000000 		.word	0
 3888 002c 02000000 		.word	2
 3889 0030 01000000 		.word	1
 3890              		.section	.text.set_speed,"ax",%progbits
 3891              		.align	1
 3892              		.global	set_speed
 3893              		.syntax unified
 3894              		.thumb
 3895              		.thumb_func
 3897              	set_speed:
 3898              	.LFB171:
 793:User/Hardware/DrEmpower_can.c **** /**
 794:User/Hardware/DrEmpower_can.c ****  * @brief µĄ¸öµç»úËŮ¶ČżŘÖĆşŻĘýˇŁ
 795:User/Hardware/DrEmpower_can.c ****  * żŘÖĆÖ¸¶¨µç»ú±ŕşĹµÄµç»ú°´ŐŐÖ¸¶¨µÄËŮ¶ČÁ¬ĐřŐűÖÜ×Ş¶ŻˇŁ
 796:User/Hardware/DrEmpower_can.c ****  *
 797:User/Hardware/DrEmpower_can.c ****  * @param hcan CANľä±ú
 798:User/Hardware/DrEmpower_can.c ****  * @param id_num ĐčŇŞÉčÖĂµÄµç»úID±ŕşĹ,Čçąű˛»ÖŞµŔµ±Ç°µç»úIDŁ¬żÉŇÔÓĂ0ąă˛ĄŁ¬Čçąű×ÜĎßÉĎÓĐ¶ŕ¸öµç»úŁ¬Ôň¶ŕ
 799:User/Hardware/DrEmpower_can.c ****  * @param speed Äż±ęËŮ¶ČŁ¨r/minŁ©
 800:User/Hardware/DrEmpower_can.c ****  * @param param mode=1, Ç°ŔˇĹ¤ľŘŁ¨Nm); mode!=1,»ňÄż±ęĽÓËŮ¶ČŁ¨(r/min)/sŁ©
 801:User/Hardware/DrEmpower_can.c ****  * @param mode żŘÖĆÄŁĘ˝ŃˇÔń
ARM GAS  C:\Users\Godwin\AppData\Local\Temp\ccnuUyDc.s 			page 83


 802:User/Hardware/DrEmpower_can.c ****  *             mode=1, ËŮ¶ČÇ°ŔˇżŘÖĆÄŁĘ˝Ł¬µç»ú˝«Äż±ęËŮ¶ČÖ±˝ÓÉčÎŞspeed
 803:User/Hardware/DrEmpower_can.c ****  *             mode!=1,ËŮ¶ČĹŔÉýżŘÖĆÄŁĘ˝Ł¬µç»ú˝«°´ŐŐÄż±ęĽÓËŮ¶Čaxis0.controller.config_.vel_ramp_rate
 804:User/Hardware/DrEmpower_can.c ****  * @note ÔÚËŮ¶ČĹŔÉýÄŁĘ˝ĎÂŁ¬ČçąűÄż±ęĽÓËŮ¶Čaxis0.controller.config_.vel_ramp_rateÉčÖĂÎŞ0Ł¬Ôňµç»úËŮ¶Č˝
 805:User/Hardware/DrEmpower_can.c ****  */
 806:User/Hardware/DrEmpower_can.c **** void set_speed(hcan_t* hcan, uint8_t id_num, float speed, float param, int mode)
 807:User/Hardware/DrEmpower_can.c **** {
 3899              		.loc 1 807 1
 3900              		.cfi_startproc
 3901              		@ args = 0, pretend = 0, frame = 96
 3902              		@ frame_needed = 1, uses_anonymous_args = 0
 3903 0000 80B5     		push	{r7, lr}
 3904              	.LCFI131:
 3905              		.cfi_def_cfa_offset 8
 3906              		.cfi_offset 7, -8
 3907              		.cfi_offset 14, -4
 3908 0002 9AB0     		sub	sp, sp, #104
 3909              	.LCFI132:
 3910              		.cfi_def_cfa_offset 112
 3911 0004 02AF     		add	r7, sp, #8
 3912              	.LCFI133:
 3913              		.cfi_def_cfa 7, 104
 3914 0006 7861     		str	r0, [r7, #20]
 3915 0008 0B46     		mov	r3, r1
 3916 000a 87ED030A 		vstr.32	s0, [r7, #12]
 3917 000e C7ED020A 		vstr.32	s1, [r7, #8]
 3918 0012 7A60     		str	r2, [r7, #4]
 3919 0014 FB74     		strb	r3, [r7, #19]
 808:User/Hardware/DrEmpower_can.c ****     float factor = 0.01;
 3920              		.loc 1 808 11
 3921 0016 3D4B     		ldr	r3, .L196
 3922 0018 BB65     		str	r3, [r7, #88]	@ float
 809:User/Hardware/DrEmpower_can.c ****     float f_speed = speed;
 3923              		.loc 1 809 11
 3924 001a FB68     		ldr	r3, [r7, #12]	@ float
 3925 001c 7B65     		str	r3, [r7, #84]	@ float
 810:User/Hardware/DrEmpower_can.c ****     if (mode == 1)
 3926              		.loc 1 810 8
 3927 001e 7B68     		ldr	r3, [r7, #4]
 3928 0020 012B     		cmp	r3, #1
 3929 0022 36D1     		bne	.L193
 3930              	.LBB32:
 811:User/Hardware/DrEmpower_can.c ****     {
 812:User/Hardware/DrEmpower_can.c ****         int s16_torque = (int)((param) / factor);
 3931              		.loc 1 812 40
 3932 0024 D7ED026A 		vldr.32	s13, [r7, #8]
 3933 0028 97ED167A 		vldr.32	s14, [r7, #88]
 3934 002c C6EE877A 		vdiv.f32	s15, s13, s14
 3935              		.loc 1 812 13
 3936 0030 FDEEE77A 		vcvt.s32.f32	s15, s15
 3937 0034 17EE903A 		vmov	r3, s15	@ int
 3938 0038 FB65     		str	r3, [r7, #92]
 813:User/Hardware/DrEmpower_can.c ****         if( f_speed == 0)
 3939              		.loc 1 813 11
 3940 003a D7ED157A 		vldr.32	s15, [r7, #84]
 3941 003e F5EE407A 		vcmp.f32	s15, #0
 3942 0042 F1EE10FA 		vmrs	APSR_nzcv, FPSCR
 3943 0046 01D1     		bne	.L194
ARM GAS  C:\Users\Godwin\AppData\Local\Temp\ccnuUyDc.s 			page 84


 814:User/Hardware/DrEmpower_can.c ****             s16_torque = 0;
 3944              		.loc 1 814 24
 3945 0048 0023     		movs	r3, #0
 3946 004a FB65     		str	r3, [r7, #92]
 3947              	.L194:
 815:User/Hardware/DrEmpower_can.c ****         unsigned short u16_input_mode = INPUT_MODE_PASSTHROUGH;
 3948              		.loc 1 815 24
 3949 004c 0123     		movs	r3, #1
 3950 004e A7F84C30 		strh	r3, [r7, #76]	@ movhi
 816:User/Hardware/DrEmpower_can.c **** 
 817:User/Hardware/DrEmpower_can.c ****         float value_data[3]= {f_speed,s16_torque,u16_input_mode};
 3951              		.loc 1 817 15
 3952 0052 7B6D     		ldr	r3, [r7, #84]	@ float
 3953 0054 3B64     		str	r3, [r7, #64]	@ float
 3954 0056 FB6D     		ldr	r3, [r7, #92]
 3955 0058 07EE903A 		vmov	s15, r3	@ int
 3956 005c F8EEE77A 		vcvt.f32.s32	s15, s15
 3957 0060 C7ED117A 		vstr.32	s15, [r7, #68]
 3958 0064 B7F84C30 		ldrh	r3, [r7, #76]
 3959 0068 07EE903A 		vmov	s15, r3	@ int
 3960 006c F8EE677A 		vcvt.f32.u32	s15, s15
 3961 0070 C7ED127A 		vstr.32	s15, [r7, #72]
 818:User/Hardware/DrEmpower_can.c ****         int type_data[3]= {0,2,1};
 3962              		.loc 1 818 13
 3963 0074 264A     		ldr	r2, .L196+4
 3964 0076 07F13403 		add	r3, r7, #52
 3965 007a 07CA     		ldm	r2, {r0, r1, r2}
 3966 007c 83E80700 		stm	r3, {r0, r1, r2}
 819:User/Hardware/DrEmpower_can.c ****         format_data(value_data,type_data,3,"encode");
 3967              		.loc 1 819 9
 3968 0080 07F13401 		add	r1, r7, #52
 3969 0084 07F14000 		add	r0, r7, #64
 3970 0088 224B     		ldr	r3, .L196+8
 3971 008a 0322     		movs	r2, #3
 3972 008c FFF7FEFF 		bl	format_data
 3973              	.LBE32:
 3974 0090 2CE0     		b	.L195
 3975              	.L193:
 3976              	.LBB33:
 820:User/Hardware/DrEmpower_can.c ****     }
 821:User/Hardware/DrEmpower_can.c ****     else
 822:User/Hardware/DrEmpower_can.c ****     {
 823:User/Hardware/DrEmpower_can.c ****         int s16_ramp_rate = (int)((param) / factor);
 3977              		.loc 1 823 43
 3978 0092 D7ED026A 		vldr.32	s13, [r7, #8]
 3979 0096 97ED167A 		vldr.32	s14, [r7, #88]
 3980 009a C6EE877A 		vdiv.f32	s15, s13, s14
 3981              		.loc 1 823 13
 3982 009e FDEEE77A 		vcvt.s32.f32	s15, s15
 3983 00a2 17EE903A 		vmov	r3, s15	@ int
 3984 00a6 3B65     		str	r3, [r7, #80]
 824:User/Hardware/DrEmpower_can.c ****         unsigned short u16_input_mode = INPUT_MODE_VEL_RAMP;
 3985              		.loc 1 824 24
 3986 00a8 0223     		movs	r3, #2
 3987 00aa A7F84E30 		strh	r3, [r7, #78]	@ movhi
 825:User/Hardware/DrEmpower_can.c **** 
 826:User/Hardware/DrEmpower_can.c ****         float value_data[3]= {f_speed,s16_ramp_rate,u16_input_mode};
ARM GAS  C:\Users\Godwin\AppData\Local\Temp\ccnuUyDc.s 			page 85


 3988              		.loc 1 826 15
 3989 00ae 7B6D     		ldr	r3, [r7, #84]	@ float
 3990 00b0 BB62     		str	r3, [r7, #40]	@ float
 3991 00b2 3B6D     		ldr	r3, [r7, #80]
 3992 00b4 07EE903A 		vmov	s15, r3	@ int
 3993 00b8 F8EEE77A 		vcvt.f32.s32	s15, s15
 3994 00bc C7ED0B7A 		vstr.32	s15, [r7, #44]
 3995 00c0 B7F84E30 		ldrh	r3, [r7, #78]
 3996 00c4 07EE903A 		vmov	s15, r3	@ int
 3997 00c8 F8EE677A 		vcvt.f32.u32	s15, s15
 3998 00cc C7ED0C7A 		vstr.32	s15, [r7, #48]
 827:User/Hardware/DrEmpower_can.c ****         int type_data[3]= {0,2,1};
 3999              		.loc 1 827 13
 4000 00d0 0F4A     		ldr	r2, .L196+4
 4001 00d2 07F11C03 		add	r3, r7, #28
 4002 00d6 07CA     		ldm	r2, {r0, r1, r2}
 4003 00d8 83E80700 		stm	r3, {r0, r1, r2}
 828:User/Hardware/DrEmpower_can.c ****         format_data(value_data,type_data,3,"encode");
 4004              		.loc 1 828 9
 4005 00dc 07F11C01 		add	r1, r7, #28
 4006 00e0 07F12800 		add	r0, r7, #40
 4007 00e4 0B4B     		ldr	r3, .L196+8
 4008 00e6 0322     		movs	r2, #3
 4009 00e8 FFF7FEFF 		bl	format_data
 4010              	.L195:
 4011              	.LBE33:
 829:User/Hardware/DrEmpower_can.c ****     }
 830:User/Hardware/DrEmpower_can.c ****     send_command(hcan, id_num,0x1c,data_list.byte_data,0);
 4012              		.loc 1 830 5
 4013 00ec F97C     		ldrb	r1, [r7, #19]	@ zero_extendqisi2
 4014 00ee 0023     		movs	r3, #0
 4015 00f0 0093     		str	r3, [sp]
 4016 00f2 094B     		ldr	r3, .L196+12
 4017 00f4 1C22     		movs	r2, #28
 4018 00f6 7869     		ldr	r0, [r7, #20]
 4019 00f8 FFF7FEFF 		bl	send_command
 831:User/Hardware/DrEmpower_can.c ****     reply_state(id_num);
 4020              		.loc 1 831 5
 4021 00fc FB7C     		ldrb	r3, [r7, #19]	@ zero_extendqisi2
 4022 00fe 1846     		mov	r0, r3
 4023 0100 FFF7FEFF 		bl	reply_state
 832:User/Hardware/DrEmpower_can.c **** }
 4024              		.loc 1 832 1
 4025 0104 00BF     		nop
 4026 0106 6037     		adds	r7, r7, #96
 4027              	.LCFI134:
 4028              		.cfi_def_cfa_offset 8
 4029 0108 BD46     		mov	sp, r7
 4030              	.LCFI135:
 4031              		.cfi_def_cfa_register 13
 4032              		@ sp needed
 4033 010a 80BD     		pop	{r7, pc}
 4034              	.L197:
 4035              		.align	2
 4036              	.L196:
 4037 010c 0AD7233C 		.word	1008981770
 4038 0110 28000000 		.word	.LC2
ARM GAS  C:\Users\Godwin\AppData\Local\Temp\ccnuUyDc.s 			page 86


 4039 0114 00000000 		.word	.LC5
 4040 0118 0C000000 		.word	data_list+12
 4041              		.cfi_endproc
 4042              	.LFE171:
 4044              		.section	.text.set_speeds,"ax",%progbits
 4045              		.align	1
 4046              		.global	set_speeds
 4047              		.syntax unified
 4048              		.thumb
 4049              		.thumb_func
 4051              	set_speeds:
 4052              	.LFB172:
 833:User/Hardware/DrEmpower_can.c **** /**
 834:User/Hardware/DrEmpower_can.c ****  * @brief ¶ŕ¸öµç»úËŮ¶ČżŘÖĆşŻĘýˇŁ
 835:User/Hardware/DrEmpower_can.c ****  * żŘÖĆÖ¸¶¨¶ŕ¸öµç»ú±ŕşĹµÄµç»ú°´ŐŐÖ¸¶¨µÄËŮ¶ČÁ¬ĐřŐűÖÜ×Ş¶ŻˇŁ
 836:User/Hardware/DrEmpower_can.c ****  *
 837:User/Hardware/DrEmpower_can.c ****  * @param hcan CANľä±ú
 838:User/Hardware/DrEmpower_can.c ****  * @param id_list µç»ú±ŕşĹ×éłÉµÄÁĐ±í
 839:User/Hardware/DrEmpower_can.c ****  * @param speed_list µç»úÄż±ęËŮ¶ČŁ¨r/minŁ©×éłÉµÄÁĐ±í
 840:User/Hardware/DrEmpower_can.c ****  * @param param mode=1, Ç°ŔˇĹ¤ľŘŁ¨Nm); mode!=1,»ňÄż±ęĽÓËŮ¶ČŁ¨(r/min)/sŁ©
 841:User/Hardware/DrEmpower_can.c ****  * @param mode żŘÖĆÄŁĘ˝ŃˇÔń
 842:User/Hardware/DrEmpower_can.c ****  *             mode=1, ËŮ¶ČÇ°ŔˇżŘÖĆÄŁĘ˝Ł¬µç»ú˝«Äż±ęËŮ¶ČÖ±˝ÓÉčÎŞspeed
 843:User/Hardware/DrEmpower_can.c ****  *             mode!=1,ËŮ¶ČĹŔÉýżŘÖĆÄŁĘ˝Ł¬µç»ú˝«°´ŐŐÄż±ęĽÓËŮ¶Čaxis0.controller.config_.vel_ramp_rate
 844:User/Hardware/DrEmpower_can.c ****  * @param n Ęý×éł¤¶Č
 845:User/Hardware/DrEmpower_can.c ****  */
 846:User/Hardware/DrEmpower_can.c **** void set_speeds(hcan_t* hcan, uint8_t *id_list, float *speed_list, float param, float mode, size_t 
 847:User/Hardware/DrEmpower_can.c **** {
 4053              		.loc 1 847 1
 4054              		.cfi_startproc
 4055              		@ args = 0, pretend = 0, frame = 56
 4056              		@ frame_needed = 1, uses_anonymous_args = 0
 4057 0000 80B5     		push	{r7, lr}
 4058              	.LCFI136:
 4059              		.cfi_def_cfa_offset 8
 4060              		.cfi_offset 7, -8
 4061              		.cfi_offset 14, -4
 4062 0002 90B0     		sub	sp, sp, #64
 4063              	.LCFI137:
 4064              		.cfi_def_cfa_offset 72
 4065 0004 02AF     		add	r7, sp, #8
 4066              	.LCFI138:
 4067              		.cfi_def_cfa 7, 64
 4068 0006 7861     		str	r0, [r7, #20]
 4069 0008 3961     		str	r1, [r7, #16]
 4070 000a FA60     		str	r2, [r7, #12]
 4071 000c 87ED020A 		vstr.32	s0, [r7, #8]
 4072 0010 C7ED010A 		vstr.32	s1, [r7, #4]
 4073 0014 3B60     		str	r3, [r7]
 848:User/Hardware/DrEmpower_can.c ****     if (id_list == NULL || speed_list == NULL) return;
 4074              		.loc 1 848 8
 4075 0016 3B69     		ldr	r3, [r7, #16]
 4076 0018 002B     		cmp	r3, #0
 4077 001a 4BD0     		beq	.L205
 4078              		.loc 1 848 25 discriminator 2
 4079 001c FB68     		ldr	r3, [r7, #12]
 4080 001e 002B     		cmp	r3, #0
 4081 0020 48D0     		beq	.L205
ARM GAS  C:\Users\Godwin\AppData\Local\Temp\ccnuUyDc.s 			page 87


 4082              	.LBB34:
 849:User/Hardware/DrEmpower_can.c ****     for (size_t i = 0; i < n; i++)
 4083              		.loc 1 849 17
 4084 0022 0023     		movs	r3, #0
 4085 0024 7B63     		str	r3, [r7, #52]
 4086              		.loc 1 849 5
 4087 0026 19E0     		b	.L202
 4088              	.L203:
 850:User/Hardware/DrEmpower_can.c ****         preset_speed(hcan, id_list[i], speed_list[i], param, mode);
 4089              		.loc 1 850 35
 4090 0028 3A69     		ldr	r2, [r7, #16]
 4091 002a 7B6B     		ldr	r3, [r7, #52]
 4092 002c 1344     		add	r3, r3, r2
 4093              		.loc 1 850 9
 4094 002e 1978     		ldrb	r1, [r3]	@ zero_extendqisi2
 4095              		.loc 1 850 50
 4096 0030 7B6B     		ldr	r3, [r7, #52]
 4097 0032 9B00     		lsls	r3, r3, #2
 4098 0034 FA68     		ldr	r2, [r7, #12]
 4099 0036 1344     		add	r3, r3, r2
 4100              		.loc 1 850 9
 4101 0038 93ED007A 		vldr.32	s14, [r3]
 4102 003c D7ED017A 		vldr.32	s15, [r7, #4]
 4103 0040 FDEEE77A 		vcvt.s32.f32	s15, s15
 4104 0044 17EE902A 		vmov	r2, s15	@ int
 4105 0048 D7ED020A 		vldr.32	s1, [r7, #8]
 4106 004c B0EE470A 		vmov.f32	s0, s14
 4107 0050 7869     		ldr	r0, [r7, #20]
 4108 0052 FFF7FEFF 		bl	preset_speed
 849:User/Hardware/DrEmpower_can.c ****     for (size_t i = 0; i < n; i++)
 4109              		.loc 1 849 32 discriminator 3
 4110 0056 7B6B     		ldr	r3, [r7, #52]
 4111 0058 0133     		adds	r3, r3, #1
 4112 005a 7B63     		str	r3, [r7, #52]
 4113              	.L202:
 849:User/Hardware/DrEmpower_can.c ****     for (size_t i = 0; i < n; i++)
 4114              		.loc 1 849 26 discriminator 1
 4115 005c 7A6B     		ldr	r2, [r7, #52]
 4116 005e 3B68     		ldr	r3, [r7]
 4117 0060 9A42     		cmp	r2, r3
 4118 0062 E1D3     		bcc	.L203
 4119              	.LBE34:
 851:User/Hardware/DrEmpower_can.c ****     unsigned char order_num = 0x13;
 4120              		.loc 1 851 19
 4121 0064 1323     		movs	r3, #19
 4122 0066 87F83330 		strb	r3, [r7, #51]
 852:User/Hardware/DrEmpower_can.c ****     float value_data[3]= {order_num,0,0};
 4123              		.loc 1 852 11
 4124 006a 97F83330 		ldrb	r3, [r7, #51]	@ zero_extendqisi2
 4125 006e 07EE903A 		vmov	s15, r3	@ int
 4126 0072 F8EE677A 		vcvt.f32.u32	s15, s15
 4127 0076 C7ED097A 		vstr.32	s15, [r7, #36]
 4128 007a 4FF00003 		mov	r3, #0
 4129 007e BB62     		str	r3, [r7, #40]	@ float
 4130 0080 4FF00003 		mov	r3, #0
 4131 0084 FB62     		str	r3, [r7, #44]	@ float
 853:User/Hardware/DrEmpower_can.c ****     int type_data[3]= {3,1,1};
ARM GAS  C:\Users\Godwin\AppData\Local\Temp\ccnuUyDc.s 			page 88


 4132              		.loc 1 853 9
 4133 0086 0D4A     		ldr	r2, .L206
 4134 0088 07F11803 		add	r3, r7, #24
 4135 008c 07CA     		ldm	r2, {r0, r1, r2}
 4136 008e 83E80700 		stm	r3, {r0, r1, r2}
 854:User/Hardware/DrEmpower_can.c ****     format_data(value_data,type_data,3,"encode");
 4137              		.loc 1 854 5
 4138 0092 07F11801 		add	r1, r7, #24
 4139 0096 07F12400 		add	r0, r7, #36
 4140 009a 094B     		ldr	r3, .L206+4
 4141 009c 0322     		movs	r2, #3
 4142 009e FFF7FEFF 		bl	format_data
 855:User/Hardware/DrEmpower_can.c ****     send_command(hcan, 0, 0x08, data_list.byte_data, 0); //ĐčŇŞÓĂ±ę×ĽÖˇŁ¨ĘýľÝÖˇŁ©˝řĐĐ·˘ËÍŁ¬˛»ÄÜÓĂÔ¶
 4143              		.loc 1 855 5
 4144 00a2 0023     		movs	r3, #0
 4145 00a4 0093     		str	r3, [sp]
 4146 00a6 074B     		ldr	r3, .L206+8
 4147 00a8 0822     		movs	r2, #8
 4148 00aa 0021     		movs	r1, #0
 4149 00ac 7869     		ldr	r0, [r7, #20]
 4150 00ae FFF7FEFF 		bl	send_command
 4151 00b2 00E0     		b	.L198
 4152              	.L205:
 848:User/Hardware/DrEmpower_can.c ****     for (size_t i = 0; i < n; i++)
 4153              		.loc 1 848 48
 4154 00b4 00BF     		nop
 4155              	.L198:
 856:User/Hardware/DrEmpower_can.c **** }
 4156              		.loc 1 856 1
 4157 00b6 3837     		adds	r7, r7, #56
 4158              	.LCFI139:
 4159              		.cfi_def_cfa_offset 8
 4160 00b8 BD46     		mov	sp, r7
 4161              	.LCFI140:
 4162              		.cfi_def_cfa_register 13
 4163              		@ sp needed
 4164 00ba 80BD     		pop	{r7, pc}
 4165              	.L207:
 4166              		.align	2
 4167              	.L206:
 4168 00bc 1C000000 		.word	.LC1
 4169 00c0 00000000 		.word	.LC5
 4170 00c4 0C000000 		.word	data_list+12
 4171              		.cfi_endproc
 4172              	.LFE172:
 4174              		.section	.text.set_torque,"ax",%progbits
 4175              		.align	1
 4176              		.global	set_torque
 4177              		.syntax unified
 4178              		.thumb
 4179              		.thumb_func
 4181              	set_torque:
 4182              	.LFB173:
 857:User/Hardware/DrEmpower_can.c **** 
 858:User/Hardware/DrEmpower_can.c **** /**
 859:User/Hardware/DrEmpower_can.c ****  * @brief µĄ¸öµç»úÁ¦ľŘŁ¨µçÁ÷Ł©±Ő»·żŘÖĆşŻĘýˇŁ
 860:User/Hardware/DrEmpower_can.c ****  * żŘÖĆÖ¸¶¨µç»ú±ŕşĹµÄµç»úĘäłöÖ¸¶¨µÄĹ¤ľŘŁ¨NmŁ©
ARM GAS  C:\Users\Godwin\AppData\Local\Temp\ccnuUyDc.s 			page 89


 861:User/Hardware/DrEmpower_can.c ****  *
 862:User/Hardware/DrEmpower_can.c ****  * @param hcan CANľä±ú
 863:User/Hardware/DrEmpower_can.c ****  * @param id_num ĐčŇŞÉčÖĂµÄµç»úID±ŕşĹ,Čçąű˛»ÖŞµŔµ±Ç°µç»úIDŁ¬żÉŇÔÓĂ0ąă˛ĄŁ¬Čçąű×ÜĎßÉĎÓĐ¶ŕ¸öµç»úŁ¬Ôň¶ŕ
 864:User/Hardware/DrEmpower_can.c ****  * @param torque µç»úĘäłöŁ¨Nm)
 865:User/Hardware/DrEmpower_can.c ****  * @param param mode=1,¸Ä˛ÎĘýÎŢŇâŇĺŁ»mode!=1,Ĺ¤ľŘÉĎÉýËŮ¶Čaxis0.controller.config.torque_ramp_rateŁ¨
 866:User/Hardware/DrEmpower_can.c ****  * @param mode żŘÖĆÄŁĘ˝ŃˇÔń
 867:User/Hardware/DrEmpower_can.c ****  *             mode=1, Ĺ¤ľŘÖ±˝ÓżŘÖĆÄŁĘ˝Ł¬µç»ú˝«Äż±ęĹ¤ľŘÖ±˝ÓÉčÎŞtorque
 868:User/Hardware/DrEmpower_can.c ****  *             mode!=1,Ĺ¤ľŘĹŔÉýżŘÖĆÄŁĘ˝Ł¬µç»ú˝«°´ŐŐĹ¤ľŘÉĎÉýËŮÂĘaxis0.controller.config.torque_ramp_
 869:User/Hardware/DrEmpower_can.c ****  * @note Čçąűµç»ú×ŞËŮł¬ąýÄúÉčÖĂµÄ vel_limit Ł¬µç»úĘäłöµÄÁ¦ľŘ˝«»áĽőĐˇˇŁ
 870:User/Hardware/DrEmpower_can.c ****  *       żÉŇÔÉčÖĂ axis0.controller.config.enable_current_mode_vel_limit = False Ŕ´˝űÖąÁ¦ľŘĽőĐˇˇŁ
 871:User/Hardware/DrEmpower_can.c ****  *       ÁíÍâÔÚĹ¤ľŘĹŔÉýżŘÖĆÄŁĘ˝ĎÂŁ¬Čçąűµă»÷Ĺ¤ľŘÉĎÉýËŮÂĘaxis0.controller.config.torque_ramp_rateÎŞ0Ł
 872:User/Hardware/DrEmpower_can.c ****  */
 873:User/Hardware/DrEmpower_can.c **** void set_torque(hcan_t* hcan, uint8_t id_num, float torque, float param, int mode)
 874:User/Hardware/DrEmpower_can.c **** {
 4183              		.loc 1 874 1
 4184              		.cfi_startproc
 4185              		@ args = 0, pretend = 0, frame = 64
 4186              		@ frame_needed = 1, uses_anonymous_args = 0
 4187 0000 80B5     		push	{r7, lr}
 4188              	.LCFI141:
 4189              		.cfi_def_cfa_offset 8
 4190              		.cfi_offset 7, -8
 4191              		.cfi_offset 14, -4
 4192 0002 92B0     		sub	sp, sp, #72
 4193              	.LCFI142:
 4194              		.cfi_def_cfa_offset 80
 4195 0004 02AF     		add	r7, sp, #8
 4196              	.LCFI143:
 4197              		.cfi_def_cfa 7, 72
 4198 0006 7861     		str	r0, [r7, #20]
 4199 0008 0B46     		mov	r3, r1
 4200 000a 87ED030A 		vstr.32	s0, [r7, #12]
 4201 000e C7ED020A 		vstr.32	s1, [r7, #8]
 4202 0012 7A60     		str	r2, [r7, #4]
 4203 0014 FB74     		strb	r3, [r7, #19]
 875:User/Hardware/DrEmpower_can.c ****     float factor = 0.01;
 4204              		.loc 1 875 11
 4205 0016 234B     		ldr	r3, .L211
 4206 0018 7B63     		str	r3, [r7, #52]	@ float
 876:User/Hardware/DrEmpower_can.c ****     int u16_input_mode,s16_ramp_rate;
 877:User/Hardware/DrEmpower_can.c ****     float f_torque = torque;
 4207              		.loc 1 877 11
 4208 001a FB68     		ldr	r3, [r7, #12]	@ float
 4209 001c 3B63     		str	r3, [r7, #48]	@ float
 878:User/Hardware/DrEmpower_can.c ****     if (mode == 1)
 4210              		.loc 1 878 8
 4211 001e 7B68     		ldr	r3, [r7, #4]
 4212 0020 012B     		cmp	r3, #1
 4213 0022 04D1     		bne	.L209
 879:User/Hardware/DrEmpower_can.c ****     {
 880:User/Hardware/DrEmpower_can.c ****         u16_input_mode = INPUT_MODE_PASSTHROUGH;
 4214              		.loc 1 880 24
 4215 0024 0123     		movs	r3, #1
 4216 0026 FB63     		str	r3, [r7, #60]
 881:User/Hardware/DrEmpower_can.c ****         s16_ramp_rate = 0;
 4217              		.loc 1 881 23
 4218 0028 0023     		movs	r3, #0
ARM GAS  C:\Users\Godwin\AppData\Local\Temp\ccnuUyDc.s 			page 90


 4219 002a BB63     		str	r3, [r7, #56]
 4220 002c 0CE0     		b	.L210
 4221              	.L209:
 882:User/Hardware/DrEmpower_can.c ****     }
 883:User/Hardware/DrEmpower_can.c ****     else
 884:User/Hardware/DrEmpower_can.c ****     {
 885:User/Hardware/DrEmpower_can.c ****         u16_input_mode = INPUT_MODE_TORQUE_RAMP;
 4222              		.loc 1 885 24
 4223 002e 0623     		movs	r3, #6
 4224 0030 FB63     		str	r3, [r7, #60]
 886:User/Hardware/DrEmpower_can.c ****         s16_ramp_rate = (int)((param) / factor);
 4225              		.loc 1 886 39
 4226 0032 D7ED026A 		vldr.32	s13, [r7, #8]
 4227 0036 97ED0D7A 		vldr.32	s14, [r7, #52]
 4228 003a C6EE877A 		vdiv.f32	s15, s13, s14
 4229              		.loc 1 886 23
 4230 003e FDEEE77A 		vcvt.s32.f32	s15, s15
 4231 0042 17EE903A 		vmov	r3, s15	@ int
 4232 0046 BB63     		str	r3, [r7, #56]
 4233              	.L210:
 887:User/Hardware/DrEmpower_can.c ****     }
 888:User/Hardware/DrEmpower_can.c ****     float value_data[3]= {f_torque, s16_ramp_rate,u16_input_mode};
 4234              		.loc 1 888 11
 4235 0048 3B6B     		ldr	r3, [r7, #48]	@ float
 4236 004a 7B62     		str	r3, [r7, #36]	@ float
 4237 004c BB6B     		ldr	r3, [r7, #56]
 4238 004e 07EE903A 		vmov	s15, r3	@ int
 4239 0052 F8EEE77A 		vcvt.f32.s32	s15, s15
 4240 0056 C7ED0A7A 		vstr.32	s15, [r7, #40]
 4241 005a FB6B     		ldr	r3, [r7, #60]
 4242 005c 07EE903A 		vmov	s15, r3	@ int
 4243 0060 F8EEE77A 		vcvt.f32.s32	s15, s15
 4244 0064 C7ED0B7A 		vstr.32	s15, [r7, #44]
 889:User/Hardware/DrEmpower_can.c ****     int type_data[3]= {0,2,1};
 4245              		.loc 1 889 9
 4246 0068 0F4A     		ldr	r2, .L211+4
 4247 006a 07F11803 		add	r3, r7, #24
 4248 006e 07CA     		ldm	r2, {r0, r1, r2}
 4249 0070 83E80700 		stm	r3, {r0, r1, r2}
 890:User/Hardware/DrEmpower_can.c ****     format_data(value_data,type_data,3,"encode");
 4250              		.loc 1 890 5
 4251 0074 07F11801 		add	r1, r7, #24
 4252 0078 07F12400 		add	r0, r7, #36
 4253 007c 0B4B     		ldr	r3, .L211+8
 4254 007e 0322     		movs	r2, #3
 4255 0080 FFF7FEFF 		bl	format_data
 891:User/Hardware/DrEmpower_can.c ****     send_command(hcan, id_num,0x1d,data_list.byte_data,0);
 4256              		.loc 1 891 5
 4257 0084 F97C     		ldrb	r1, [r7, #19]	@ zero_extendqisi2
 4258 0086 0023     		movs	r3, #0
 4259 0088 0093     		str	r3, [sp]
 4260 008a 094B     		ldr	r3, .L211+12
 4261 008c 1D22     		movs	r2, #29
 4262 008e 7869     		ldr	r0, [r7, #20]
 4263 0090 FFF7FEFF 		bl	send_command
 892:User/Hardware/DrEmpower_can.c ****     reply_state(id_num);
 4264              		.loc 1 892 5
ARM GAS  C:\Users\Godwin\AppData\Local\Temp\ccnuUyDc.s 			page 91


 4265 0094 FB7C     		ldrb	r3, [r7, #19]	@ zero_extendqisi2
 4266 0096 1846     		mov	r0, r3
 4267 0098 FFF7FEFF 		bl	reply_state
 893:User/Hardware/DrEmpower_can.c **** }
 4268              		.loc 1 893 1
 4269 009c 00BF     		nop
 4270 009e 4037     		adds	r7, r7, #64
 4271              	.LCFI144:
 4272              		.cfi_def_cfa_offset 8
 4273 00a0 BD46     		mov	sp, r7
 4274              	.LCFI145:
 4275              		.cfi_def_cfa_register 13
 4276              		@ sp needed
 4277 00a2 80BD     		pop	{r7, pc}
 4278              	.L212:
 4279              		.align	2
 4280              	.L211:
 4281 00a4 0AD7233C 		.word	1008981770
 4282 00a8 28000000 		.word	.LC2
 4283 00ac 00000000 		.word	.LC5
 4284 00b0 0C000000 		.word	data_list+12
 4285              		.cfi_endproc
 4286              	.LFE173:
 4288              		.section	.text.set_torques,"ax",%progbits
 4289              		.align	1
 4290              		.global	set_torques
 4291              		.syntax unified
 4292              		.thumb
 4293              		.thumb_func
 4295              	set_torques:
 4296              	.LFB174:
 894:User/Hardware/DrEmpower_can.c **** /**
 895:User/Hardware/DrEmpower_can.c ****  * @brief ¶ŕ¸ö¸öµç»úÁ¦ľŘżŘÖĆşŻĘýˇŁ
 896:User/Hardware/DrEmpower_can.c ****  * Í¬Ę±żŘÖĆ¶ŕ¸öµç»ú±ŕşĹµÄµç»úÄż±ęĹ¤ľŘŁ¨NmŁ©
 897:User/Hardware/DrEmpower_can.c ****  *
 898:User/Hardware/DrEmpower_can.c ****  * @param hcan CANľä±ú
 899:User/Hardware/DrEmpower_can.c ****  * @param id_list µç»ú±ŕşĹ×éłÉµÄÁĐ±í
 900:User/Hardware/DrEmpower_can.c ****  * @param torque_list µç»úÄż±ęĹ¤ľŘŁ¨Nm)×éłÉµÄÁĐ±í
 901:User/Hardware/DrEmpower_can.c ****  * @param param mode=1,¸Ä˛ÎĘýÎŢŇâŇĺŁ»mode!=1,Ĺ¤ľŘÉĎÉýËŮ¶Čaxis0.controller.config.torque_ramp_rateŁ¨
 902:User/Hardware/DrEmpower_can.c ****  * @param mode żŘÖĆÄŁĘ˝ŃˇÔń
 903:User/Hardware/DrEmpower_can.c ****  *             mode=1, Ĺ¤ľŘÖ±˝ÓżŘÖĆÄŁĘ˝Ł¬µç»ú˝«Äż±ęĹ¤ľŘÖ±˝ÓÉčÎŞtorque
 904:User/Hardware/DrEmpower_can.c ****  *             mode!=1,Ĺ¤ľŘĹŔÉýżŘÖĆÄŁĘ˝Ł¬µç»ú˝«°´ŐŐĹ¤ľŘÉĎÉýËŮÂĘaxis0.controller.config.torque_ramp_
 905:User/Hardware/DrEmpower_can.c ****  * @param n Ęý×éł¤¶Č
 906:User/Hardware/DrEmpower_can.c ****  */
 907:User/Hardware/DrEmpower_can.c **** void set_torques(hcan_t* hcan, uint8_t *id_list, float *torque_list, float param, int mode, size_t 
 908:User/Hardware/DrEmpower_can.c **** {
 4297              		.loc 1 908 1
 4298              		.cfi_startproc
 4299              		@ args = 4, pretend = 0, frame = 56
 4300              		@ frame_needed = 1, uses_anonymous_args = 0
 4301 0000 80B5     		push	{r7, lr}
 4302              	.LCFI146:
 4303              		.cfi_def_cfa_offset 8
 4304              		.cfi_offset 7, -8
 4305              		.cfi_offset 14, -4
 4306 0002 90B0     		sub	sp, sp, #64
 4307              	.LCFI147:
ARM GAS  C:\Users\Godwin\AppData\Local\Temp\ccnuUyDc.s 			page 92


 4308              		.cfi_def_cfa_offset 72
 4309 0004 02AF     		add	r7, sp, #8
 4310              	.LCFI148:
 4311              		.cfi_def_cfa 7, 64
 4312 0006 7861     		str	r0, [r7, #20]
 4313 0008 3961     		str	r1, [r7, #16]
 4314 000a FA60     		str	r2, [r7, #12]
 4315 000c 87ED020A 		vstr.32	s0, [r7, #8]
 4316 0010 7B60     		str	r3, [r7, #4]
 909:User/Hardware/DrEmpower_can.c ****     if (id_list == NULL || torque_list == NULL) return;
 4317              		.loc 1 909 8
 4318 0012 3B69     		ldr	r3, [r7, #16]
 4319 0014 002B     		cmp	r3, #0
 4320 0016 46D0     		beq	.L220
 4321              		.loc 1 909 25 discriminator 2
 4322 0018 FB68     		ldr	r3, [r7, #12]
 4323 001a 002B     		cmp	r3, #0
 4324 001c 43D0     		beq	.L220
 4325              	.LBB35:
 910:User/Hardware/DrEmpower_can.c ****     for (size_t i = 0; i < n; i++)
 4326              		.loc 1 910 17
 4327 001e 0023     		movs	r3, #0
 4328 0020 7B63     		str	r3, [r7, #52]
 4329              		.loc 1 910 5
 4330 0022 14E0     		b	.L217
 4331              	.L218:
 911:User/Hardware/DrEmpower_can.c ****         preset_torque(hcan, id_list[i], torque_list[i], param, mode);
 4332              		.loc 1 911 36
 4333 0024 3A69     		ldr	r2, [r7, #16]
 4334 0026 7B6B     		ldr	r3, [r7, #52]
 4335 0028 1344     		add	r3, r3, r2
 4336              		.loc 1 911 9
 4337 002a 1978     		ldrb	r1, [r3]	@ zero_extendqisi2
 4338              		.loc 1 911 52
 4339 002c 7B6B     		ldr	r3, [r7, #52]
 4340 002e 9B00     		lsls	r3, r3, #2
 4341 0030 FA68     		ldr	r2, [r7, #12]
 4342 0032 1344     		add	r3, r3, r2
 4343              		.loc 1 911 9
 4344 0034 D3ED007A 		vldr.32	s15, [r3]
 4345 0038 7A68     		ldr	r2, [r7, #4]
 4346 003a D7ED020A 		vldr.32	s1, [r7, #8]
 4347 003e B0EE670A 		vmov.f32	s0, s15
 4348 0042 7869     		ldr	r0, [r7, #20]
 4349 0044 FFF7FEFF 		bl	preset_torque
 910:User/Hardware/DrEmpower_can.c ****     for (size_t i = 0; i < n; i++)
 4350              		.loc 1 910 32 discriminator 3
 4351 0048 7B6B     		ldr	r3, [r7, #52]
 4352 004a 0133     		adds	r3, r3, #1
 4353 004c 7B63     		str	r3, [r7, #52]
 4354              	.L217:
 910:User/Hardware/DrEmpower_can.c ****     for (size_t i = 0; i < n; i++)
 4355              		.loc 1 910 26 discriminator 1
 4356 004e 7A6B     		ldr	r2, [r7, #52]
 4357 0050 3B6C     		ldr	r3, [r7, #64]
 4358 0052 9A42     		cmp	r2, r3
 4359 0054 E6D3     		bcc	.L218
ARM GAS  C:\Users\Godwin\AppData\Local\Temp\ccnuUyDc.s 			page 93


 4360              	.LBE35:
 912:User/Hardware/DrEmpower_can.c ****     unsigned char order_num = 0x14;
 4361              		.loc 1 912 19
 4362 0056 1423     		movs	r3, #20
 4363 0058 87F83330 		strb	r3, [r7, #51]
 913:User/Hardware/DrEmpower_can.c ****     float value_data[3]= {order_num,0,0};
 4364              		.loc 1 913 11
 4365 005c 97F83330 		ldrb	r3, [r7, #51]	@ zero_extendqisi2
 4366 0060 07EE903A 		vmov	s15, r3	@ int
 4367 0064 F8EE677A 		vcvt.f32.u32	s15, s15
 4368 0068 C7ED097A 		vstr.32	s15, [r7, #36]
 4369 006c 4FF00003 		mov	r3, #0
 4370 0070 BB62     		str	r3, [r7, #40]	@ float
 4371 0072 4FF00003 		mov	r3, #0
 4372 0076 FB62     		str	r3, [r7, #44]	@ float
 914:User/Hardware/DrEmpower_can.c ****     int type_data[3]= {3,1,1};
 4373              		.loc 1 914 9
 4374 0078 0D4A     		ldr	r2, .L221
 4375 007a 07F11803 		add	r3, r7, #24
 4376 007e 07CA     		ldm	r2, {r0, r1, r2}
 4377 0080 83E80700 		stm	r3, {r0, r1, r2}
 915:User/Hardware/DrEmpower_can.c ****     format_data(value_data,type_data,3,"encode");
 4378              		.loc 1 915 5
 4379 0084 07F11801 		add	r1, r7, #24
 4380 0088 07F12400 		add	r0, r7, #36
 4381 008c 094B     		ldr	r3, .L221+4
 4382 008e 0322     		movs	r2, #3
 4383 0090 FFF7FEFF 		bl	format_data
 916:User/Hardware/DrEmpower_can.c ****     send_command(hcan, 0, 0x08, data_list.byte_data, 0);  //ĐčŇŞÓĂ±ę×ĽÖˇŁ¨ĘýľÝÖˇŁ©˝řĐĐ·˘ËÍŁ¬˛»ÄÜÓĂÔ
 4384              		.loc 1 916 5
 4385 0094 0023     		movs	r3, #0
 4386 0096 0093     		str	r3, [sp]
 4387 0098 074B     		ldr	r3, .L221+8
 4388 009a 0822     		movs	r2, #8
 4389 009c 0021     		movs	r1, #0
 4390 009e 7869     		ldr	r0, [r7, #20]
 4391 00a0 FFF7FEFF 		bl	send_command
 4392 00a4 00E0     		b	.L213
 4393              	.L220:
 909:User/Hardware/DrEmpower_can.c ****     for (size_t i = 0; i < n; i++)
 4394              		.loc 1 909 49
 4395 00a6 00BF     		nop
 4396              	.L213:
 917:User/Hardware/DrEmpower_can.c **** }
 4397              		.loc 1 917 1
 4398 00a8 3837     		adds	r7, r7, #56
 4399              	.LCFI149:
 4400              		.cfi_def_cfa_offset 8
 4401 00aa BD46     		mov	sp, r7
 4402              	.LCFI150:
 4403              		.cfi_def_cfa_register 13
 4404              		@ sp needed
 4405 00ac 80BD     		pop	{r7, pc}
 4406              	.L222:
 4407 00ae 00BF     		.align	2
 4408              	.L221:
 4409 00b0 1C000000 		.word	.LC1
ARM GAS  C:\Users\Godwin\AppData\Local\Temp\ccnuUyDc.s 			page 94


 4410 00b4 00000000 		.word	.LC5
 4411 00b8 0C000000 		.word	data_list+12
 4412              		.cfi_endproc
 4413              	.LFE174:
 4415              		.section	.rodata
 4416              		.align	2
 4417              	.LC3:
 4418 0034 03000000 		.word	3
 4419 0038 02000000 		.word	2
 4420 003c 02000000 		.word	2
 4421              		.section	.text.impedance_control,"ax",%progbits
 4422              		.align	1
 4423              		.global	impedance_control
 4424              		.syntax unified
 4425              		.thumb
 4426              		.thumb_func
 4428              	impedance_control:
 4429              	.LFB175:
 918:User/Hardware/DrEmpower_can.c **** /**
 919:User/Hardware/DrEmpower_can.c **** * @brief µĄ¸öµç»ú×čżążŘÖĆşŻĘýˇŁ
 920:User/Hardware/DrEmpower_can.c **** * ¶ÔÖ¸¶¨µç»ú±ŕşĹµÄµç»ú˝řĐĐ×čżążŘÖĆˇŁ
 921:User/Hardware/DrEmpower_can.c **** *
 922:User/Hardware/DrEmpower_can.c **** * @param hcan CANľä±ú
 923:User/Hardware/DrEmpower_can.c **** * @param id_num ĐčŇŞÉčÖĂµÄµç»úID±ŕşĹ,Čçąű˛»ÖŞµŔµ±Ç°µç»úIDŁ¬żÉŇÔÓĂ0ąă˛ĄŁ¬Čçąű×ÜĎßÉĎÓĐ¶ŕ¸öµç»úŁ¬Ôň¶ŕ¸
 924:User/Hardware/DrEmpower_can.c **** * @param pos µç»úÄż±ę˝Ç¶ČŁ¨¶ČŁ©
 925:User/Hardware/DrEmpower_can.c **** * @param vel µç»úÄż±ęËŮ¶ČŁ¨r/minŁ©
 926:User/Hardware/DrEmpower_can.c **** * @param tff Ç°ŔˇĹ¤ľŘŁ¨Nm)
 927:User/Hardware/DrEmpower_can.c **** * @param kp ¸Ő¶ČĎµĘý(rad/Nm)
 928:User/Hardware/DrEmpower_can.c **** * @param kd ×čÄáĎµĘý(rad/s/Nm)
 929:User/Hardware/DrEmpower_can.c **** * @note ×čżążŘÖĆÎŞMITżŞÔ´·˝°¸ÖĐµÄżŘÖĆÄŁĘ˝Ł¬ĆäÄż±ęĘäłöĹ¤ľŘĽĆËăą«Ę˝ČçĎÂŁş
 930:User/Hardware/DrEmpower_can.c ****         torque = kp*( pos ¨C pos_) + t_ff + kd*(vel ¨C vel_)
 931:User/Hardware/DrEmpower_can.c ****         ĆäÖĐpos_şÍvel_·Ö±đÎŞĘäłöÖáµ±Ç°ĘµĽĘÎ»ÖĂŁ¨degreeŁ©şÍµ±Ç°ĘµĽĘËŮ¶ČŁ¨r/minŁ©, kpşÍkdÎŞ¸Ő¶ČĎµĘýşÍ
 932:User/Hardware/DrEmpower_can.c **** */
 933:User/Hardware/DrEmpower_can.c **** void impedance_control(hcan_t* hcan, uint8_t id_num, float pos, float vel, float tff, float kp, flo
 934:User/Hardware/DrEmpower_can.c **** {
 4430              		.loc 1 934 1
 4431              		.cfi_startproc
 4432              		@ args = 0, pretend = 0, frame = 64
 4433              		@ frame_needed = 1, uses_anonymous_args = 0
 4434 0000 80B5     		push	{r7, lr}
 4435              	.LCFI151:
 4436              		.cfi_def_cfa_offset 8
 4437              		.cfi_offset 7, -8
 4438              		.cfi_offset 14, -4
 4439 0002 92B0     		sub	sp, sp, #72
 4440              	.LCFI152:
 4441              		.cfi_def_cfa_offset 80
 4442 0004 02AF     		add	r7, sp, #8
 4443              	.LCFI153:
 4444              		.cfi_def_cfa 7, 72
 4445 0006 F861     		str	r0, [r7, #28]
 4446 0008 0B46     		mov	r3, r1
 4447 000a 87ED050A 		vstr.32	s0, [r7, #20]
 4448 000e C7ED040A 		vstr.32	s1, [r7, #16]
 4449 0012 87ED031A 		vstr.32	s2, [r7, #12]
 4450 0016 C7ED021A 		vstr.32	s3, [r7, #8]
 4451 001a 87ED012A 		vstr.32	s4, [r7, #4]
ARM GAS  C:\Users\Godwin\AppData\Local\Temp\ccnuUyDc.s 			page 95


 4452 001e FB76     		strb	r3, [r7, #27]
 935:User/Hardware/DrEmpower_can.c ****     float factor = 0.01;
 4453              		.loc 1 935 11
 4454 0020 254B     		ldr	r3, .L224
 4455 0022 FB63     		str	r3, [r7, #60]	@ float
 936:User/Hardware/DrEmpower_can.c ****     preset_angle(hcan, id_num,pos,vel, tff, 2);
 4456              		.loc 1 936 5
 4457 0024 FB7E     		ldrb	r3, [r7, #27]	@ zero_extendqisi2
 4458 0026 0222     		movs	r2, #2
 4459 0028 97ED031A 		vldr.32	s2, [r7, #12]
 4460 002c D7ED040A 		vldr.32	s1, [r7, #16]
 4461 0030 97ED050A 		vldr.32	s0, [r7, #20]
 4462 0034 1946     		mov	r1, r3
 4463 0036 F869     		ldr	r0, [r7, #28]
 4464 0038 FFF7FEFF 		bl	preset_angle
 937:User/Hardware/DrEmpower_can.c ****     unsigned char order_num = 0x15;
 4465              		.loc 1 937 19
 4466 003c 1523     		movs	r3, #21
 4467 003e 87F83B30 		strb	r3, [r7, #59]
 938:User/Hardware/DrEmpower_can.c ****     float value_data[3]= {order_num,(int)(kp / factor),(int)(kd / factor)};
 4468              		.loc 1 938 11
 4469 0042 97F83B30 		ldrb	r3, [r7, #59]	@ zero_extendqisi2
 4470 0046 07EE903A 		vmov	s15, r3	@ int
 4471 004a F8EE677A 		vcvt.f32.u32	s15, s15
 4472 004e C7ED0B7A 		vstr.32	s15, [r7, #44]
 4473              		.loc 1 938 46
 4474 0052 D7ED026A 		vldr.32	s13, [r7, #8]
 4475 0056 97ED0F7A 		vldr.32	s14, [r7, #60]
 4476 005a C6EE877A 		vdiv.f32	s15, s13, s14
 4477              		.loc 1 938 37
 4478 005e FDEEE77A 		vcvt.s32.f32	s15, s15
 4479              		.loc 1 938 11
 4480 0062 F8EEE77A 		vcvt.f32.s32	s15, s15
 4481 0066 C7ED0C7A 		vstr.32	s15, [r7, #48]
 4482              		.loc 1 938 65
 4483 006a D7ED016A 		vldr.32	s13, [r7, #4]
 4484 006e 97ED0F7A 		vldr.32	s14, [r7, #60]
 4485 0072 C6EE877A 		vdiv.f32	s15, s13, s14
 4486              		.loc 1 938 56
 4487 0076 FDEEE77A 		vcvt.s32.f32	s15, s15
 4488              		.loc 1 938 11
 4489 007a F8EEE77A 		vcvt.f32.s32	s15, s15
 4490 007e C7ED0D7A 		vstr.32	s15, [r7, #52]
 939:User/Hardware/DrEmpower_can.c ****     int type_data[3]= {3,2,2};
 4491              		.loc 1 939 9
 4492 0082 0E4A     		ldr	r2, .L224+4
 4493 0084 07F12003 		add	r3, r7, #32
 4494 0088 07CA     		ldm	r2, {r0, r1, r2}
 4495 008a 83E80700 		stm	r3, {r0, r1, r2}
 940:User/Hardware/DrEmpower_can.c ****     format_data(value_data,type_data,3,"encode");
 4496              		.loc 1 940 5
 4497 008e 07F12001 		add	r1, r7, #32
 4498 0092 07F12C00 		add	r0, r7, #44
 4499 0096 0A4B     		ldr	r3, .L224+8
 4500 0098 0322     		movs	r2, #3
 4501 009a FFF7FEFF 		bl	format_data
 941:User/Hardware/DrEmpower_can.c ****     send_command(hcan, 0, 0x08,data_list.byte_data,0);//ĐčŇŞÓĂ±ę×ĽÖˇŁ¨ĘýľÝÖˇŁ©˝řĐĐ·˘ËÍŁ¬˛»ÄÜÓĂÔ¶łĚÖ
ARM GAS  C:\Users\Godwin\AppData\Local\Temp\ccnuUyDc.s 			page 96


 4502              		.loc 1 941 5
 4503 009e 0023     		movs	r3, #0
 4504 00a0 0093     		str	r3, [sp]
 4505 00a2 084B     		ldr	r3, .L224+12
 4506 00a4 0822     		movs	r2, #8
 4507 00a6 0021     		movs	r1, #0
 4508 00a8 F869     		ldr	r0, [r7, #28]
 4509 00aa FFF7FEFF 		bl	send_command
 942:User/Hardware/DrEmpower_can.c **** }
 4510              		.loc 1 942 1
 4511 00ae 00BF     		nop
 4512 00b0 4037     		adds	r7, r7, #64
 4513              	.LCFI154:
 4514              		.cfi_def_cfa_offset 8
 4515 00b2 BD46     		mov	sp, r7
 4516              	.LCFI155:
 4517              		.cfi_def_cfa_register 13
 4518              		@ sp needed
 4519 00b4 80BD     		pop	{r7, pc}
 4520              	.L225:
 4521 00b6 00BF     		.align	2
 4522              	.L224:
 4523 00b8 0AD7233C 		.word	1008981770
 4524 00bc 34000000 		.word	.LC3
 4525 00c0 00000000 		.word	.LC5
 4526 00c4 0C000000 		.word	data_list+12
 4527              		.cfi_endproc
 4528              	.LFE175:
 4530              		.section	.text.estop,"ax",%progbits
 4531              		.align	1
 4532              		.global	estop
 4533              		.syntax unified
 4534              		.thumb
 4535              		.thumb_func
 4537              	estop:
 4538              	.LFB176:
 943:User/Hardware/DrEmpower_can.c **** /**
 944:User/Hardware/DrEmpower_can.c ****  * @brief Ľ±ÍŁşŻĘý
 945:User/Hardware/DrEmpower_can.c ****  * żŘÖĆµç»ú˝ôĽ±ÍŁÖąˇŁµç»úĽ±ÍŁşó˝«ÇĐ»»µ˝IDLE´ý»úÄŁĘ˝Ł¬µç»úĐ¶ÔŘ˛˘ÉúłÉERROR_ESTOP_REQUESTED´íÎó±ęÖľŁ¬˛
 946:User/Hardware/DrEmpower_can.c ****  * ČçąűŇŞ»Ö¸´ŐýłŁżŘÖĆÄŁĘ˝Ł¬ĐčŇŞĘ×ĎČÓĂclear_errorÇĺłý´íÎó±ęÖľşó,Č»şóÓĂset_modeşŻĘý˝«ÄŁĘ˝ÉčÖĂÎŞ2Ł¨±Ő»
 947:User/Hardware/DrEmpower_can.c ****  *
 948:User/Hardware/DrEmpower_can.c ****  * @param hcan CANľä±ú
 949:User/Hardware/DrEmpower_can.c ****  * @param id_num ĐčŇŞĽ±ÍŁµÄµç»úID±ŕşĹ,Čçąű˛»ÖŞµŔµ±Ç°µç»úIDŁ¬żÉŇÔÓĂ0ąă˛ĄŁ¬Čçąű×ÜĎßÉĎÓĐ¶ŕ¸öµç»úŁ¬Ôň¶ŕ
 950:User/Hardware/DrEmpower_can.c ****  */
 951:User/Hardware/DrEmpower_can.c **** void estop(hcan_t* hcan, uint8_t id_num)
 952:User/Hardware/DrEmpower_can.c **** {
 4539              		.loc 1 952 1
 4540              		.cfi_startproc
 4541              		@ args = 0, pretend = 0, frame = 40
 4542              		@ frame_needed = 1, uses_anonymous_args = 0
 4543 0000 80B5     		push	{r7, lr}
 4544              	.LCFI156:
 4545              		.cfi_def_cfa_offset 8
 4546              		.cfi_offset 7, -8
 4547              		.cfi_offset 14, -4
 4548 0002 8CB0     		sub	sp, sp, #48
 4549              	.LCFI157:
ARM GAS  C:\Users\Godwin\AppData\Local\Temp\ccnuUyDc.s 			page 97


 4550              		.cfi_def_cfa_offset 56
 4551 0004 02AF     		add	r7, sp, #8
 4552              	.LCFI158:
 4553              		.cfi_def_cfa 7, 48
 4554 0006 7860     		str	r0, [r7, #4]
 4555 0008 0B46     		mov	r3, r1
 4556 000a FB70     		strb	r3, [r7, #3]
 953:User/Hardware/DrEmpower_can.c ****     unsigned char order_num = 0x06;
 4557              		.loc 1 953 19
 4558 000c 0623     		movs	r3, #6
 4559 000e 87F82730 		strb	r3, [r7, #39]
 954:User/Hardware/DrEmpower_can.c ****     float value_data[3]= {order_num,0,0};
 4560              		.loc 1 954 11
 4561 0012 97F82730 		ldrb	r3, [r7, #39]	@ zero_extendqisi2
 4562 0016 07EE903A 		vmov	s15, r3	@ int
