ARM GAS  C:\Users\Administrator\AppData\Local\Temp\ccCE0hkT.s 			page 1


   1              		.cpu cortex-m7
   2              		.arch armv7e-m
   3              		.fpu fpv5-d16
   4              		.eabi_attribute 28, 1
   5              		.eabi_attribute 20, 1
   6              		.eabi_attribute 21, 1
   7              		.eabi_attribute 23, 3
   8              		.eabi_attribute 24, 1
   9              		.eabi_attribute 25, 1
  10              		.eabi_attribute 26, 1
  11              		.eabi_attribute 30, 6
  12              		.eabi_attribute 34, 1
  13              		.eabi_attribute 18, 4
  14              		.file	"freertos.c"
  15              		.text
  16              	.Ltext0:
  17              		.cfi_sections	.debug_frame
  18              		.file 1 "Core/Src/freertos.c"
  19              		.global	color
  20              		.section	.bss.color,"aw",%nobits
  21              		.align	2
  24              	color:
  25 0000 00000000 		.space	4
  26              		.global	Remote_controlHandle
  27              		.section	.bss.Remote_controlHandle,"aw",%nobits
  28              		.align	2
  31              	Remote_controlHandle:
  32 0000 00000000 		.space	4
  33              		.global	Remote_control_attributes
  34              		.section	.rodata
  35              		.align	2
  36              	.LC0:
  37 0000 52656D6F 		.ascii	"Remote_control\000"
  37      74655F63 
  37      6F6E7472 
  37      6F6C00
  38              		.section	.rodata.Remote_control_attributes,"a"
  39              		.align	2
  42              	Remote_control_attributes:
  43 0000 00000000 		.word	.LC0
  44 0004 00000000 		.space	16
  44      00000000 
  44      00000000 
  44      00000000 
  45 0014 00080000 		.word	2048
  46 0018 30000000 		.word	48
  47 001c 00000000 		.space	8
  47      00000000 
  48              		.global	Arm_MTHandle
  49              		.section	.bss.Arm_MTHandle,"aw",%nobits
  50              		.align	2
  53              	Arm_MTHandle:
  54 0000 00000000 		.space	4
  55              		.global	Arm_MT_attributes
  56              		.section	.rodata
  57 000f 00       		.align	2
  58              	.LC1:
ARM GAS  C:\Users\Administrator\AppData\Local\Temp\ccCE0hkT.s 			page 2


  59 0010 41726D5F 		.ascii	"Arm_MT\000"
  59      4D5400
  60              		.section	.rodata.Arm_MT_attributes,"a"
  61              		.align	2
  64              	Arm_MT_attributes:
  65 0000 10000000 		.word	.LC1
  66 0004 00000000 		.space	16
  66      00000000 
  66      00000000 
  66      00000000 
  67 0014 00080000 		.word	2048
  68 0018 29000000 		.word	41
  69 001c 00000000 		.space	8
  69      00000000 
  70              		.global	Lift_controlHandle
  71              		.section	.bss.Lift_controlHandle,"aw",%nobits
  72              		.align	2
  75              	Lift_controlHandle:
  76 0000 00000000 		.space	4
  77              		.global	Lift_control_attributes
  78              		.section	.rodata
  79 0017 00       		.align	2
  80              	.LC2:
  81 0018 4C696674 		.ascii	"Lift_control\000"
  81      5F636F6E 
  81      74726F6C 
  81      00
  82              		.section	.rodata.Lift_control_attributes,"a"
  83              		.align	2
  86              	Lift_control_attributes:
  87 0000 18000000 		.word	.LC2
  88 0004 00000000 		.space	16
  88      00000000 
  88      00000000 
  88      00000000 
  89 0014 00040000 		.word	1024
  90 0018 2A000000 		.word	42
  91 001c 00000000 		.space	8
  91      00000000 
  92              		.global	Motor_controlHandle
  93              		.section	.bss.Motor_controlHandle,"aw",%nobits
  94              		.align	2
  97              	Motor_controlHandle:
  98 0000 00000000 		.space	4
  99              		.global	Motor_control_attributes
 100              		.section	.rodata
 101 0025 000000   		.align	2
 102              	.LC3:
 103 0028 4D6F746F 		.ascii	"Motor_control\000"
 103      725F636F 
 103      6E74726F 
 103      6C00
 104              		.section	.rodata.Motor_control_attributes,"a"
 105              		.align	2
 108              	Motor_control_attributes:
 109 0000 28000000 		.word	.LC3
 110 0004 00000000 		.space	16
ARM GAS  C:\Users\Administrator\AppData\Local\Temp\ccCE0hkT.s 			page 3


 110      00000000 
 110      00000000 
 110      00000000 
 111 0014 00040000 		.word	1024
 112 0018 09000000 		.word	9
 113 001c 00000000 		.space	8
 113      00000000 
 114              		.global	HeadHandle
 115              		.section	.bss.HeadHandle,"aw",%nobits
 116              		.align	2
 119              	HeadHandle:
 120 0000 00000000 		.space	4
 121              		.global	Head_attributes
 122              		.section	.rodata
 123 0036 0000     		.align	2
 124              	.LC4:
 125 0038 48656164 		.ascii	"Head\000"
 125      00
 126              		.section	.rodata.Head_attributes,"a"
 127              		.align	2
 130              	Head_attributes:
 131 0000 38000000 		.word	.LC4
 132 0004 00000000 		.space	16
 132      00000000 
 132      00000000 
 132      00000000 
 133 0014 00020000 		.word	512
 134 0018 2B000000 		.word	43
 135 001c 00000000 		.space	8
 135      00000000 
 136              		.global	Arm_updateHandle
 137              		.section	.bss.Arm_updateHandle,"aw",%nobits
 138              		.align	2
 141              	Arm_updateHandle:
 142 0000 00000000 		.space	4
 143              		.global	Arm_update_attributes
 144              		.section	.rodata
 145 003d 000000   		.align	2
 146              	.LC5:
 147 0040 41726D5F 		.ascii	"Arm_update\000"
 147      75706461 
 147      746500
 148              		.section	.rodata.Arm_update_attributes,"a"
 149              		.align	2
 152              	Arm_update_attributes:
 153 0000 40000000 		.word	.LC5
 154 0004 00000000 		.space	16
 154      00000000 
 154      00000000 
 154      00000000 
 155 0014 00080000 		.word	2048
 156 0018 2A000000 		.word	42
 157 001c 00000000 		.space	8
 157      00000000 
 158              		.global	Log_and_debugHandle
 159              		.section	.bss.Log_and_debugHandle,"aw",%nobits
 160              		.align	2
ARM GAS  C:\Users\Administrator\AppData\Local\Temp\ccCE0hkT.s 			page 4


 163              	Log_and_debugHandle:
 164 0000 00000000 		.space	4
 165              		.global	Log_and_debug_attributes
 166              		.section	.rodata
 167 004b 00       		.align	2
 168              	.LC6:
 169 004c 4C6F675F 		.ascii	"Log_and_debug\000"
 169      616E645F 
 169      64656275 
 169      6700
 170              		.section	.rodata.Log_and_debug_attributes,"a"
 171              		.align	2
 174              	Log_and_debug_attributes:
 175 0000 4C000000 		.word	.LC6
 176 0004 00000000 		.space	16
 176      00000000 
 176      00000000 
 176      00000000 
 177 0014 00040000 		.word	1024
 178 0018 0B000000 		.word	11
 179 001c 00000000 		.space	8
 179      00000000 
 180              		.global	Arm_SVHandle
 181              		.section	.bss.Arm_SVHandle,"aw",%nobits
 182              		.align	2
 185              	Arm_SVHandle:
 186 0000 00000000 		.space	4
 187              		.global	Arm_SV_attributes
 188              		.section	.rodata
 189 005a 0000     		.align	2
 190              	.LC7:
 191 005c 41726D5F 		.ascii	"Arm_SV\000"
 191      535600
 192              		.section	.rodata.Arm_SV_attributes,"a"
 193              		.align	2
 196              	Arm_SV_attributes:
 197 0000 5C000000 		.word	.LC7
 198 0004 00000000 		.space	16
 198      00000000 
 198      00000000 
 198      00000000 
 199 0014 00020000 		.word	512
 200 0018 0A000000 		.word	10
 201 001c 00000000 		.space	8
 201      00000000 
 202              		.global	PC_CommHandle
 203              		.section	.bss.PC_CommHandle,"aw",%nobits
 204              		.align	2
 207              	PC_CommHandle:
 208 0000 00000000 		.space	4
 209              		.global	PC_Comm_attributes
 210              		.section	.rodata
 211 0063 00       		.align	2
 212              	.LC8:
 213 0064 50435F43 		.ascii	"PC_Comm\000"
 213      6F6D6D00 
 214              		.section	.rodata.PC_Comm_attributes,"a"
ARM GAS  C:\Users\Administrator\AppData\Local\Temp\ccCE0hkT.s 			page 5


 215              		.align	2
 218              	PC_Comm_attributes:
 219 0000 64000000 		.word	.LC8
 220 0004 00000000 		.space	16
 220      00000000 
 220      00000000 
 220      00000000 
 221 0014 00040000 		.word	1024
 222 0018 30000000 		.word	48
 223 001c 00000000 		.space	8
 223      00000000 
 224              		.section	.text.vApplicationIdleHook,"ax",%progbits
 225              		.align	1
 226              		.global	vApplicationIdleHook
 227              		.syntax unified
 228              		.thumb
 229              		.thumb_func
 231              	vApplicationIdleHook:
 232              	.LFB152:
   1:Core/Src/freertos.c **** /* USER CODE BEGIN Header */
   2:Core/Src/freertos.c **** /**
   3:Core/Src/freertos.c ****  ******************************************************************************
   4:Core/Src/freertos.c ****  * File Name          : freertos.c
   5:Core/Src/freertos.c ****  * Description        : Code for freertos applications
   6:Core/Src/freertos.c ****  ******************************************************************************
   7:Core/Src/freertos.c ****  * @attention
   8:Core/Src/freertos.c ****  *
   9:Core/Src/freertos.c ****  * Copyright (c) 2024 STMicroelectronics.
  10:Core/Src/freertos.c ****  * All rights reserved.
  11:Core/Src/freertos.c ****  *
  12:Core/Src/freertos.c ****  * This software is licensed under terms that can be found in the LICENSE file
  13:Core/Src/freertos.c ****  * in the root directory of this software component.
  14:Core/Src/freertos.c ****  * If no LICENSE file comes with this software, it is provided AS-IS.
  15:Core/Src/freertos.c ****  *
  16:Core/Src/freertos.c ****  ******************************************************************************
  17:Core/Src/freertos.c ****  */
  18:Core/Src/freertos.c **** /* USER CODE END Header */
  19:Core/Src/freertos.c **** 
  20:Core/Src/freertos.c **** /* Includes ------------------------------------------------------------------*/
  21:Core/Src/freertos.c **** #include "FreeRTOS.h"
  22:Core/Src/freertos.c **** #include "task.h"
  23:Core/Src/freertos.c **** #include "main.h"
  24:Core/Src/freertos.c **** #include "cmsis_os.h"
  25:Core/Src/freertos.c **** 
  26:Core/Src/freertos.c **** /* Private includes ----------------------------------------------------------*/
  27:Core/Src/freertos.c **** /* USER CODE BEGIN Includes */
  28:Core/Src/freertos.c **** #include "remote_control.h"
  29:Core/Src/freertos.c **** #include "music.h"
  30:Core/Src/freertos.c **** #include "stdio.h"
  31:Core/Src/freertos.c **** #include "LED.h"
  32:Core/Src/freertos.c **** #include <cmsis_os2.h>
  33:Core/Src/freertos.c **** #include "iwdg.h"
  34:Core/Src/freertos.c **** #include "buzzer.h"
  35:Core/Src/freertos.c **** #include "task.h"
  36:Core/Src/freertos.c **** #include "arm.h"
  37:Core/Src/freertos.c **** #include "head.h"
  38:Core/Src/freertos.c **** #include "lift_control.h"
ARM GAS  C:\Users\Administrator\AppData\Local\Temp\ccCE0hkT.s 			page 6


  39:Core/Src/freertos.c **** #include "arm_sv.h"
  40:Core/Src/freertos.c **** #include "Sbus.h"
  41:Core/Src/freertos.c **** #include "stp23l.h"
  42:Core/Src/freertos.c **** #include "uart_protocol.h"
  43:Core/Src/freertos.c **** /* USER CODE END Includes */
  44:Core/Src/freertos.c **** 
  45:Core/Src/freertos.c **** /* Private typedef -----------------------------------------------------------*/
  46:Core/Src/freertos.c **** /* USER CODE BEGIN PTD */
  47:Core/Src/freertos.c **** /* USER CODE END PTD */
  48:Core/Src/freertos.c **** 
  49:Core/Src/freertos.c **** /* Private define ------------------------------------------------------------*/
  50:Core/Src/freertos.c **** /* USER CODE BEGIN PD */
  51:Core/Src/freertos.c **** 
  52:Core/Src/freertos.c **** /* USER CODE END PD */
  53:Core/Src/freertos.c **** 
  54:Core/Src/freertos.c **** /* Private macro -------------------------------------------------------------*/
  55:Core/Src/freertos.c **** /* USER CODE BEGIN PM */
  56:Core/Src/freertos.c **** 
  57:Core/Src/freertos.c **** /* USER CODE END PM */
  58:Core/Src/freertos.c **** 
  59:Core/Src/freertos.c **** /* Private variables ---------------------------------------------------------*/
  60:Core/Src/freertos.c **** /* USER CODE BEGIN Variables */
  61:Core/Src/freertos.c **** uint32_t color = 0;
  62:Core/Src/freertos.c **** /* USER CODE END Variables */
  63:Core/Src/freertos.c **** /* Definitions for Remote_control */
  64:Core/Src/freertos.c **** osThreadId_t Remote_controlHandle;
  65:Core/Src/freertos.c **** const osThreadAttr_t Remote_control_attributes = {
  66:Core/Src/freertos.c ****     .name = "Remote_control",
  67:Core/Src/freertos.c ****     .stack_size = 512 * 4,
  68:Core/Src/freertos.c ****     .priority = (osPriority_t)osPriorityRealtime,
  69:Core/Src/freertos.c **** };
  70:Core/Src/freertos.c **** /* Definitions for Arm_MT */
  71:Core/Src/freertos.c **** osThreadId_t Arm_MTHandle;
  72:Core/Src/freertos.c **** const osThreadAttr_t Arm_MT_attributes = {
  73:Core/Src/freertos.c ****     .name = "Arm_MT",
  74:Core/Src/freertos.c ****     .stack_size = 512 * 4,
  75:Core/Src/freertos.c ****     .priority = (osPriority_t)osPriorityHigh1,
  76:Core/Src/freertos.c **** };
  77:Core/Src/freertos.c **** /* Definitions for Lift_control */
  78:Core/Src/freertos.c **** osThreadId_t Lift_controlHandle;
  79:Core/Src/freertos.c **** const osThreadAttr_t Lift_control_attributes = {
  80:Core/Src/freertos.c ****     .name = "Lift_control",
  81:Core/Src/freertos.c ****     .stack_size = 256 * 4,
  82:Core/Src/freertos.c ****     .priority = (osPriority_t)osPriorityHigh2,
  83:Core/Src/freertos.c **** };
  84:Core/Src/freertos.c **** /* Definitions for Motor_control */
  85:Core/Src/freertos.c **** osThreadId_t Motor_controlHandle;
  86:Core/Src/freertos.c **** const osThreadAttr_t Motor_control_attributes = {
  87:Core/Src/freertos.c ****     .name = "Motor_control",
  88:Core/Src/freertos.c ****     .stack_size = 256 * 4,
  89:Core/Src/freertos.c ****     .priority = (osPriority_t)osPriorityLow1,
  90:Core/Src/freertos.c **** };
  91:Core/Src/freertos.c **** /* Definitions for Head */
  92:Core/Src/freertos.c **** osThreadId_t HeadHandle;
  93:Core/Src/freertos.c **** const osThreadAttr_t Head_attributes = {
  94:Core/Src/freertos.c ****     .name = "Head",
  95:Core/Src/freertos.c ****     .stack_size = 128 * 4,
ARM GAS  C:\Users\Administrator\AppData\Local\Temp\ccCE0hkT.s 			page 7


  96:Core/Src/freertos.c ****     .priority = (osPriority_t)osPriorityHigh3,
  97:Core/Src/freertos.c **** };
  98:Core/Src/freertos.c **** /* Definitions for Arm_update */
  99:Core/Src/freertos.c **** osThreadId_t Arm_updateHandle;
 100:Core/Src/freertos.c **** const osThreadAttr_t Arm_update_attributes = {
 101:Core/Src/freertos.c ****     .name = "Arm_update",
 102:Core/Src/freertos.c ****     .stack_size = 512 * 4,
 103:Core/Src/freertos.c ****     .priority = (osPriority_t)osPriorityHigh2,
 104:Core/Src/freertos.c **** };
 105:Core/Src/freertos.c **** /* Definitions for Log_and_debug */
 106:Core/Src/freertos.c **** osThreadId_t Log_and_debugHandle;
 107:Core/Src/freertos.c **** const osThreadAttr_t Log_and_debug_attributes = {
 108:Core/Src/freertos.c ****     .name = "Log_and_debug",
 109:Core/Src/freertos.c ****     .stack_size = 256 * 4,
 110:Core/Src/freertos.c ****     .priority = (osPriority_t)osPriorityLow3,
 111:Core/Src/freertos.c **** };
 112:Core/Src/freertos.c **** /* Definitions for Arm_SV */
 113:Core/Src/freertos.c **** osThreadId_t Arm_SVHandle;
 114:Core/Src/freertos.c **** const osThreadAttr_t Arm_SV_attributes = {
 115:Core/Src/freertos.c ****     .name = "Arm_SV",
 116:Core/Src/freertos.c ****     .stack_size = 128 * 4,
 117:Core/Src/freertos.c ****     .priority = (osPriority_t)osPriorityLow2,
 118:Core/Src/freertos.c **** };
 119:Core/Src/freertos.c **** /* Definitions for PC_Comm */
 120:Core/Src/freertos.c **** osThreadId_t PC_CommHandle;
 121:Core/Src/freertos.c **** const osThreadAttr_t PC_Comm_attributes = {
 122:Core/Src/freertos.c ****     .name = "PC_Comm",
 123:Core/Src/freertos.c ****     .stack_size = 256 * 4,
 124:Core/Src/freertos.c ****     .priority = (osPriority_t)osPriorityRealtime,
 125:Core/Src/freertos.c **** };
 126:Core/Src/freertos.c **** 
 127:Core/Src/freertos.c **** /* Private function prototypes -----------------------------------------------*/
 128:Core/Src/freertos.c **** /* USER CODE BEGIN FunctionPrototypes */
 129:Core/Src/freertos.c **** 
 130:Core/Src/freertos.c **** /* USER CODE END FunctionPrototypes */
 131:Core/Src/freertos.c **** 
 132:Core/Src/freertos.c **** void Remote_control_Task(void *argument);
 133:Core/Src/freertos.c **** void Arm_MT_Task(void *argument);
 134:Core/Src/freertos.c **** void Lift_control_Task(void *argument);
 135:Core/Src/freertos.c **** void Motor_control_Task(void *argument);
 136:Core/Src/freertos.c **** void Head_Task(void *argument);
 137:Core/Src/freertos.c **** void Arm_update_Task(void *argument);
 138:Core/Src/freertos.c **** void Log_and_debug_Task(void *argument);
 139:Core/Src/freertos.c **** void Arm_SV_Task(void *argument);
 140:Core/Src/freertos.c **** void PC_Comm_Task(void *argument);
 141:Core/Src/freertos.c **** 
 142:Core/Src/freertos.c **** extern void MX_USB_DEVICE_Init(void);
 143:Core/Src/freertos.c **** void MX_FREERTOS_Init(void); /* (MISRA C 2004 rule 8.1) */
 144:Core/Src/freertos.c **** 
 145:Core/Src/freertos.c **** /* Hook prototypes */
 146:Core/Src/freertos.c **** void vApplicationIdleHook(void);
 147:Core/Src/freertos.c **** 
 148:Core/Src/freertos.c **** /* USER CODE BEGIN 2 */
 149:Core/Src/freertos.c **** void vApplicationIdleHook(void)
 150:Core/Src/freertos.c **** {
 233              		.loc 1 150 1
 234              		.cfi_startproc
ARM GAS  C:\Users\Administrator\AppData\Local\Temp\ccCE0hkT.s 			page 8


 235              		@ args = 0, pretend = 0, frame = 0
 236              		@ frame_needed = 1, uses_anonymous_args = 0
 237              		@ link register save eliminated.
 238 0000 80B4     		push	{r7}
 239              	.LCFI0:
 240              		.cfi_def_cfa_offset 4
 241              		.cfi_offset 7, -4
 242 0002 00AF     		add	r7, sp, #0
 243              	.LCFI1:
 244              		.cfi_def_cfa_register 7
 151:Core/Src/freertos.c ****   /* vApplicationIdleHook() will only be called if configUSE_IDLE_HOOK is set
 152:Core/Src/freertos.c ****   to 1 in FreeRTOSConfig.h. It will be called on each iteration of the idle
 153:Core/Src/freertos.c ****   task. It is essential that code added to this hook function never attempts
 154:Core/Src/freertos.c ****   to block in any way (for example, call xQueueReceive() with a block time
 155:Core/Src/freertos.c ****   specified, or call vTaskDelay()). If the application makes use of the
 156:Core/Src/freertos.c ****   vTaskDelete() API function (as this demo application does) then it is also
 157:Core/Src/freertos.c ****   important that vApplicationIdleHook() is permitted to return to its calling
 158:Core/Src/freertos.c ****   function, because it is the responsibility of the idle task to clean up
 159:Core/Src/freertos.c ****   memory allocated by the kernel to any task that has since been deleted. */
 160:Core/Src/freertos.c **** }
 245              		.loc 1 160 1
 246 0004 00BF     		nop
 247 0006 BD46     		mov	sp, r7
 248              	.LCFI2:
 249              		.cfi_def_cfa_register 13
 250              		@ sp needed
 251 0008 5DF8047B 		ldr	r7, [sp], #4
 252              	.LCFI3:
 253              		.cfi_restore 7
 254              		.cfi_def_cfa_offset 0
 255 000c 7047     		bx	lr
 256              		.cfi_endproc
 257              	.LFE152:
 259              		.section	.text.MX_FREERTOS_Init,"ax",%progbits
 260              		.align	1
 261              		.global	MX_FREERTOS_Init
 262              		.syntax unified
 263              		.thumb
 264              		.thumb_func
 266              	MX_FREERTOS_Init:
 267              	.LFB153:
 161:Core/Src/freertos.c **** /* USER CODE END 2 */
 162:Core/Src/freertos.c **** 
 163:Core/Src/freertos.c **** /**
 164:Core/Src/freertos.c ****  * @brief  FreeRTOS initialization
 165:Core/Src/freertos.c ****  * @param  None
 166:Core/Src/freertos.c ****  * @retval None
 167:Core/Src/freertos.c ****  */
 168:Core/Src/freertos.c **** void MX_FREERTOS_Init(void)
 169:Core/Src/freertos.c **** {
 268              		.loc 1 169 1
 269              		.cfi_startproc
 270              		@ args = 0, pretend = 0, frame = 0
 271              		@ frame_needed = 1, uses_anonymous_args = 0
 272 0000 80B5     		push	{r7, lr}
 273              	.LCFI4:
 274              		.cfi_def_cfa_offset 8
ARM GAS  C:\Users\Administrator\AppData\Local\Temp\ccCE0hkT.s 			page 9


 275              		.cfi_offset 7, -8
 276              		.cfi_offset 14, -4
 277 0002 00AF     		add	r7, sp, #0
 278              	.LCFI5:
 279              		.cfi_def_cfa_register 7
 170:Core/Src/freertos.c ****   /* USER CODE BEGIN Init */
 171:Core/Src/freertos.c **** 
 172:Core/Src/freertos.c ****   /* USER CODE END Init */
 173:Core/Src/freertos.c **** 
 174:Core/Src/freertos.c ****   /* USER CODE BEGIN RTOS_MUTEX */
 175:Core/Src/freertos.c ****   /* add mutexes, ... */
 176:Core/Src/freertos.c ****   /* USER CODE END RTOS_MUTEX */
 177:Core/Src/freertos.c **** 
 178:Core/Src/freertos.c ****   /* USER CODE BEGIN RTOS_SEMAPHORES */
 179:Core/Src/freertos.c ****   /* add semaphores, ... */
 180:Core/Src/freertos.c ****   /* USER CODE END RTOS_SEMAPHORES */
 181:Core/Src/freertos.c **** 
 182:Core/Src/freertos.c ****   /* USER CODE BEGIN RTOS_TIMERS */
 183:Core/Src/freertos.c ****   /* start timers, add new ones, ... */
 184:Core/Src/freertos.c ****   /* USER CODE END RTOS_TIMERS */
 185:Core/Src/freertos.c **** 
 186:Core/Src/freertos.c ****   /* USER CODE BEGIN RTOS_QUEUES */
 187:Core/Src/freertos.c ****   /* add queues, ... */
 188:Core/Src/freertos.c ****   /* USER CODE END RTOS_QUEUES */
 189:Core/Src/freertos.c **** 
 190:Core/Src/freertos.c ****   /* Create the thread(s) */
 191:Core/Src/freertos.c ****   /* creation of Remote_control */
 192:Core/Src/freertos.c ****   Remote_controlHandle = osThreadNew(Remote_control_Task, NULL, &Remote_control_attributes);
 280              		.loc 1 192 26
 281 0004 244A     		ldr	r2, .L3
 282 0006 0021     		movs	r1, #0
 283 0008 2448     		ldr	r0, .L3+4
 284 000a FFF7FEFF 		bl	osThreadNew
 285 000e 0346     		mov	r3, r0
 286              		.loc 1 192 24 discriminator 1
 287 0010 234A     		ldr	r2, .L3+8
 288 0012 1360     		str	r3, [r2]
 193:Core/Src/freertos.c **** 
 194:Core/Src/freertos.c ****   /* creation of Arm_MT */
 195:Core/Src/freertos.c ****   Arm_MTHandle = osThreadNew(Arm_MT_Task, NULL, &Arm_MT_attributes);
 289              		.loc 1 195 18
 290 0014 234A     		ldr	r2, .L3+12
 291 0016 0021     		movs	r1, #0
 292 0018 2348     		ldr	r0, .L3+16
 293 001a FFF7FEFF 		bl	osThreadNew
 294 001e 0346     		mov	r3, r0
 295              		.loc 1 195 16 discriminator 1
 296 0020 224A     		ldr	r2, .L3+20
 297 0022 1360     		str	r3, [r2]
 196:Core/Src/freertos.c **** 
 197:Core/Src/freertos.c ****   /* creation of Lift_control */
 198:Core/Src/freertos.c ****   Lift_controlHandle = osThreadNew(Lift_control_Task, NULL, &Lift_control_attributes);
 298              		.loc 1 198 24
 299 0024 224A     		ldr	r2, .L3+24
 300 0026 0021     		movs	r1, #0
 301 0028 2248     		ldr	r0, .L3+28
 302 002a FFF7FEFF 		bl	osThreadNew
ARM GAS  C:\Users\Administrator\AppData\Local\Temp\ccCE0hkT.s 			page 10


 303 002e 0346     		mov	r3, r0
 304              		.loc 1 198 22 discriminator 1
 305 0030 214A     		ldr	r2, .L3+32
 306 0032 1360     		str	r3, [r2]
 199:Core/Src/freertos.c **** 
 200:Core/Src/freertos.c ****   /* creation of Motor_control */
 201:Core/Src/freertos.c ****   Motor_controlHandle = osThreadNew(Motor_control_Task, NULL, &Motor_control_attributes);
 307              		.loc 1 201 25
 308 0034 214A     		ldr	r2, .L3+36
 309 0036 0021     		movs	r1, #0
 310 0038 2148     		ldr	r0, .L3+40
 311 003a FFF7FEFF 		bl	osThreadNew
 312 003e 0346     		mov	r3, r0
 313              		.loc 1 201 23 discriminator 1
 314 0040 204A     		ldr	r2, .L3+44
 315 0042 1360     		str	r3, [r2]
 202:Core/Src/freertos.c **** 
 203:Core/Src/freertos.c ****   /* creation of Head */
 204:Core/Src/freertos.c ****   HeadHandle = osThreadNew(Head_Task, NULL, &Head_attributes);
 316              		.loc 1 204 16
 317 0044 204A     		ldr	r2, .L3+48
 318 0046 0021     		movs	r1, #0
 319 0048 2048     		ldr	r0, .L3+52
 320 004a FFF7FEFF 		bl	osThreadNew
 321 004e 0346     		mov	r3, r0
 322              		.loc 1 204 14 discriminator 1
 323 0050 1F4A     		ldr	r2, .L3+56
 324 0052 1360     		str	r3, [r2]
 205:Core/Src/freertos.c **** 
 206:Core/Src/freertos.c ****   /* creation of Arm_update */
 207:Core/Src/freertos.c ****   Arm_updateHandle = osThreadNew(Arm_update_Task, NULL, &Arm_update_attributes);
 325              		.loc 1 207 22
 326 0054 1F4A     		ldr	r2, .L3+60
 327 0056 0021     		movs	r1, #0
 328 0058 1F48     		ldr	r0, .L3+64
 329 005a FFF7FEFF 		bl	osThreadNew
 330 005e 0346     		mov	r3, r0
 331              		.loc 1 207 20 discriminator 1
 332 0060 1E4A     		ldr	r2, .L3+68
 333 0062 1360     		str	r3, [r2]
 208:Core/Src/freertos.c **** 
 209:Core/Src/freertos.c ****   /* creation of Log_and_debug */
 210:Core/Src/freertos.c ****   Log_and_debugHandle = osThreadNew(Log_and_debug_Task, NULL, &Log_and_debug_attributes);
 334              		.loc 1 210 25
 335 0064 1E4A     		ldr	r2, .L3+72
 336 0066 0021     		movs	r1, #0
 337 0068 1E48     		ldr	r0, .L3+76
 338 006a FFF7FEFF 		bl	osThreadNew
 339 006e 0346     		mov	r3, r0
 340              		.loc 1 210 23 discriminator 1
 341 0070 1D4A     		ldr	r2, .L3+80
 342 0072 1360     		str	r3, [r2]
 211:Core/Src/freertos.c **** 
 212:Core/Src/freertos.c ****   /* creation of Arm_SV */
 213:Core/Src/freertos.c ****   Arm_SVHandle = osThreadNew(Arm_SV_Task, NULL, &Arm_SV_attributes);
 343              		.loc 1 213 18
 344 0074 1D4A     		ldr	r2, .L3+84
ARM GAS  C:\Users\Administrator\AppData\Local\Temp\ccCE0hkT.s 			page 11


 345 0076 0021     		movs	r1, #0
 346 0078 1D48     		ldr	r0, .L3+88
 347 007a FFF7FEFF 		bl	osThreadNew
 348 007e 0346     		mov	r3, r0
 349              		.loc 1 213 16 discriminator 1
 350 0080 1C4A     		ldr	r2, .L3+92
 351 0082 1360     		str	r3, [r2]
 214:Core/Src/freertos.c **** 
 215:Core/Src/freertos.c ****   /* creation of PC_Comm */
 216:Core/Src/freertos.c ****   PC_CommHandle = osThreadNew(PC_Comm_Task, NULL, &PC_Comm_attributes);
 352              		.loc 1 216 19
 353 0084 1C4A     		ldr	r2, .L3+96
 354 0086 0021     		movs	r1, #0
 355 0088 1C48     		ldr	r0, .L3+100
 356 008a FFF7FEFF 		bl	osThreadNew
 357 008e 0346     		mov	r3, r0
 358              		.loc 1 216 17 discriminator 1
 359 0090 1B4A     		ldr	r2, .L3+104
 360 0092 1360     		str	r3, [r2]
 217:Core/Src/freertos.c **** 
 218:Core/Src/freertos.c ****   /* USER CODE BEGIN RTOS_THREADS */
 219:Core/Src/freertos.c ****   /* add threads, ... */
 220:Core/Src/freertos.c ****   /* USER CODE END RTOS_THREADS */
 221:Core/Src/freertos.c **** 
 222:Core/Src/freertos.c ****   /* USER CODE BEGIN RTOS_EVENTS */
 223:Core/Src/freertos.c ****   /* add events, ... */
 224:Core/Src/freertos.c ****   /* USER CODE END RTOS_EVENTS */
 225:Core/Src/freertos.c **** }
 361              		.loc 1 225 1
 362 0094 00BF     		nop
 363 0096 80BD     		pop	{r7, pc}
 364              	.L4:
 365              		.align	2
 366              	.L3:
 367 0098 00000000 		.word	Remote_control_attributes
 368 009c 00000000 		.word	Remote_control_Task
 369 00a0 00000000 		.word	Remote_controlHandle
 370 00a4 00000000 		.word	Arm_MT_attributes
 371 00a8 00000000 		.word	Arm_MT_Task
 372 00ac 00000000 		.word	Arm_MTHandle
 373 00b0 00000000 		.word	Lift_control_attributes
 374 00b4 00000000 		.word	Lift_control_Task
 375 00b8 00000000 		.word	Lift_controlHandle
 376 00bc 00000000 		.word	Motor_control_attributes
 377 00c0 00000000 		.word	Motor_control_Task
 378 00c4 00000000 		.word	Motor_controlHandle
 379 00c8 00000000 		.word	Head_attributes
 380 00cc 00000000 		.word	Head_Task
 381 00d0 00000000 		.word	HeadHandle
 382 00d4 00000000 		.word	Arm_update_attributes
 383 00d8 00000000 		.word	Arm_update_Task
 384 00dc 00000000 		.word	Arm_updateHandle
 385 00e0 00000000 		.word	Log_and_debug_attributes
 386 00e4 00000000 		.word	Log_and_debug_Task
 387 00e8 00000000 		.word	Log_and_debugHandle
 388 00ec 00000000 		.word	Arm_SV_attributes
 389 00f0 00000000 		.word	Arm_SV_Task
ARM GAS  C:\Users\Administrator\AppData\Local\Temp\ccCE0hkT.s 			page 12


 390 00f4 00000000 		.word	Arm_SVHandle
 391 00f8 00000000 		.word	PC_Comm_attributes
 392 00fc 00000000 		.word	PC_Comm_Task
 393 0100 00000000 		.word	PC_CommHandle
 394              		.cfi_endproc
 395              	.LFE153:
 397              		.section	.text.Remote_control_Task,"ax",%progbits
 398              		.align	1
 399              		.global	Remote_control_Task
 400              		.syntax unified
 401              		.thumb
 402              		.thumb_func
 404              	Remote_control_Task:
 405              	.LFB154:
 226:Core/Src/freertos.c **** 
 227:Core/Src/freertos.c **** /* USER CODE BEGIN Header_Remote_control_Task */
 228:Core/Src/freertos.c **** /**
 229:Core/Src/freertos.c ****  * @brief  Function implementing the Remote_control thread.
 230:Core/Src/freertos.c ****  * @param  argument: Not used
 231:Core/Src/freertos.c ****  * @retval None
 232:Core/Src/freertos.c ****  */
 233:Core/Src/freertos.c **** /* USER CODE END Header_Remote_control_Task */
 234:Core/Src/freertos.c **** void Remote_control_Task(void *argument)
 235:Core/Src/freertos.c **** {
 406              		.loc 1 235 1
 407              		.cfi_startproc
 408              		@ args = 0, pretend = 0, frame = 16
 409              		@ frame_needed = 1, uses_anonymous_args = 0
 410 0000 80B5     		push	{r7, lr}
 411              	.LCFI6:
 412              		.cfi_def_cfa_offset 8
 413              		.cfi_offset 7, -8
 414              		.cfi_offset 14, -4
 415 0002 84B0     		sub	sp, sp, #16
 416              	.LCFI7:
 417              		.cfi_def_cfa_offset 24
 418 0004 00AF     		add	r7, sp, #0
 419              	.LCFI8:
 420              		.cfi_def_cfa_register 7
 421 0006 7860     		str	r0, [r7, #4]
 236:Core/Src/freertos.c ****   /* init code for USB_DEVICE */
 237:Core/Src/freertos.c ****   MX_USB_DEVICE_Init();
 422              		.loc 1 237 3
 423 0008 FFF7FEFF 		bl	MX_USB_DEVICE_Init
 238:Core/Src/freertos.c ****   int control_mode = 1; // 0: йҒҘжҺ§жЁЎејҸ, 1: pcжЁЎејҸ
 424              		.loc 1 238 7
 425 000c 0123     		movs	r3, #1
 426 000e FB60     		str	r3, [r7, #12]
 427              	.L8:
 239:Core/Src/freertos.c ****   /* USER CODE BEGIN Remote_control_Task */
 240:Core/Src/freertos.c ****   /* Infinite loop */
 241:Core/Src/freertos.c ****   for (;;)
 242:Core/Src/freertos.c ****   {
 243:Core/Src/freertos.c ****     update_sbus(sbus_data_buffer, &SBUS_CH); // йҒҘй”ҹж–ӨжӢ·й”ҹж–ӨжӢ·й”ҹж–ӨжӢ·й”ҹжҚ·йқ©жӢ·й”ҹж–ӨжӢ·
 428              		.loc 1 243 5
 429 0010 1449     		ldr	r1, .L9
 430 0012 1548     		ldr	r0, .L9+4
ARM GAS  C:\Users\Administrator\AppData\Local\Temp\ccCE0hkT.s 			page 13


 431 0014 FFF7FEFF 		bl	update_sbus
 244:Core/Src/freertos.c ****     if (control_mode == 0)
 432              		.loc 1 244 8
 433 0018 FB68     		ldr	r3, [r7, #12]
 434 001a 002B     		cmp	r3, #0
 435 001c 0FD1     		bne	.L6
 245:Core/Src/freertos.c ****     {
 246:Core/Src/freertos.c ****       // йҒҘжҺ§жЁЎејҸ
 247:Core/Src/freertos.c ****       osDelay(1);
 436              		.loc 1 247 7
 437 001e 0120     		movs	r0, #1
 438 0020 FFF7FEFF 		bl	osDelay
 248:Core/Src/freertos.c ****       Pump_Control_Updata();
 439              		.loc 1 248 7
 440 0024 FFF7FEFF 		bl	Pump_Control_Updata
 249:Core/Src/freertos.c ****       osDelay(1);
 441              		.loc 1 249 7
 442 0028 0120     		movs	r0, #1
 443 002a FFF7FEFF 		bl	osDelay
 250:Core/Src/freertos.c ****       Head_Motor_Control_Updata();
 444              		.loc 1 250 7
 445 002e FFF7FEFF 		bl	Head_Motor_Control_Updata
 251:Core/Src/freertos.c ****       osDelay(1);
 446              		.loc 1 251 7
 447 0032 0120     		movs	r0, #1
 448 0034 FFF7FEFF 		bl	osDelay
 252:Core/Src/freertos.c ****       Up_Down_Motor_Control_Updata();
 449              		.loc 1 252 7
 450 0038 FFF7FEFF 		bl	Up_Down_Motor_Control_Updata
 451 003c 0EE0     		b	.L7
 452              	.L6:
 253:Core/Src/freertos.c ****     }
 254:Core/Src/freertos.c ****     else
 255:Core/Src/freertos.c ****     {
 256:Core/Src/freertos.c ****       // pcжЁЎејҸ
 257:Core/Src/freertos.c ****       osDelay(1);
 453              		.loc 1 257 7
 454 003e 0120     		movs	r0, #1
 455 0040 FFF7FEFF 		bl	osDelay
 258:Core/Src/freertos.c ****       PC_Pump_Control_Updata();
 456              		.loc 1 258 7
 457 0044 FFF7FEFF 		bl	PC_Pump_Control_Updata
 259:Core/Src/freertos.c ****       osDelay(1);
 458              		.loc 1 259 7
 459 0048 0120     		movs	r0, #1
 460 004a FFF7FEFF 		bl	osDelay
 260:Core/Src/freertos.c ****       PC_Head_Motor_Control_Updata();
 461              		.loc 1 260 7
 462 004e FFF7FEFF 		bl	PC_Head_Motor_Control_Updata
 261:Core/Src/freertos.c ****       osDelay(1);
 463              		.loc 1 261 7
 464 0052 0120     		movs	r0, #1
 465 0054 FFF7FEFF 		bl	osDelay
 262:Core/Src/freertos.c ****       PC_Up_Down_Motor_Control_Updata();
 466              		.loc 1 262 7
 467 0058 FFF7FEFF 		bl	PC_Up_Down_Motor_Control_Updata
 468              	.L7:
ARM GAS  C:\Users\Administrator\AppData\Local\Temp\ccCE0hkT.s 			page 14


 263:Core/Src/freertos.c ****     }
 264:Core/Src/freertos.c **** 
 265:Core/Src/freertos.c ****     osDelay(1);
 469              		.loc 1 265 5
 470 005c 0120     		movs	r0, #1
 471 005e FFF7FEFF 		bl	osDelay
 243:Core/Src/freertos.c ****     if (control_mode == 0)
 472              		.loc 1 243 5
 473 0062 D5E7     		b	.L8
 474              	.L10:
 475              		.align	2
 476              	.L9:
 477 0064 00000000 		.word	SBUS_CH
 478 0068 00000000 		.word	sbus_data_buffer
 479              		.cfi_endproc
 480              	.LFE154:
 482              		.section	.text.Arm_MT_Task,"ax",%progbits
 483              		.align	1
 484              		.global	Arm_MT_Task
 485              		.syntax unified
 486              		.thumb
 487              		.thumb_func
 489              	Arm_MT_Task:
 490              	.LFB155:
 266:Core/Src/freertos.c ****   }
 267:Core/Src/freertos.c ****   /* USER CODE END Remote_control_Task */
 268:Core/Src/freertos.c **** }
 269:Core/Src/freertos.c **** 
 270:Core/Src/freertos.c **** /* USER CODE BEGIN Header_Arm_MT_Task */
 271:Core/Src/freertos.c **** /**
 272:Core/Src/freertos.c ****  * @brief Function implementing the Arm_MT thread.
 273:Core/Src/freertos.c ****  * @param argument: Not used
 274:Core/Src/freertos.c ****  * @retval None
 275:Core/Src/freertos.c ****  */
 276:Core/Src/freertos.c **** /* USER CODE END Header_Arm_MT_Task */
 277:Core/Src/freertos.c **** void Arm_MT_Task(void *argument)
 278:Core/Src/freertos.c **** {
 491              		.loc 1 278 1
 492              		.cfi_startproc
 493              		@ args = 0, pretend = 0, frame = 8
 494              		@ frame_needed = 1, uses_anonymous_args = 0
 495 0000 80B5     		push	{r7, lr}
 496              	.LCFI9:
 497              		.cfi_def_cfa_offset 8
 498              		.cfi_offset 7, -8
 499              		.cfi_offset 14, -4
 500 0002 82B0     		sub	sp, sp, #8
 501              	.LCFI10:
 502              		.cfi_def_cfa_offset 16
 503 0004 00AF     		add	r7, sp, #0
 504              	.LCFI11:
 505              		.cfi_def_cfa_register 7
 506 0006 7860     		str	r0, [r7, #4]
 507              	.L12:
 279:Core/Src/freertos.c ****   /* USER CODE BEGIN Arm_MT_Task */
 280:Core/Src/freertos.c ****   /* Infinite loop */
 281:Core/Src/freertos.c ****   for (;;)
ARM GAS  C:\Users\Administrator\AppData\Local\Temp\ccCE0hkT.s 			page 15


 282:Core/Src/freertos.c ****   {
 283:Core/Src/freertos.c ****     osDelay(1);
 508              		.loc 1 283 5
 509 0008 0120     		movs	r0, #1
 510 000a FFF7FEFF 		bl	osDelay
 284:Core/Src/freertos.c ****     Arm_all_tx();
 511              		.loc 1 284 5 discriminator 1
 512 000e FFF7FEFF 		bl	Arm_all_tx
 283:Core/Src/freertos.c ****     Arm_all_tx();
 513              		.loc 1 283 5
 514 0012 00BF     		nop
 515 0014 F8E7     		b	.L12
 516              		.cfi_endproc
 517              	.LFE155:
 519              		.section	.text.Lift_control_Task,"ax",%progbits
 520              		.align	1
 521              		.global	Lift_control_Task
 522              		.syntax unified
 523              		.thumb
 524              		.thumb_func
 526              	Lift_control_Task:
 527              	.LFB156:
 285:Core/Src/freertos.c ****   }
 286:Core/Src/freertos.c ****   /* USER CODE END Arm_MT_Task */
 287:Core/Src/freertos.c **** }
 288:Core/Src/freertos.c **** 
 289:Core/Src/freertos.c **** /* USER CODE BEGIN Header_Lift_control_Task */
 290:Core/Src/freertos.c **** /**
 291:Core/Src/freertos.c ****  * @brief Function implementing the Lift_control thread.
 292:Core/Src/freertos.c ****  * @param argument: Not used
 293:Core/Src/freertos.c ****  * @retval None
 294:Core/Src/freertos.c ****  */
 295:Core/Src/freertos.c **** /* USER CODE END Header_Lift_control_Task */
 296:Core/Src/freertos.c **** void Lift_control_Task(void *argument)
 297:Core/Src/freertos.c **** {
 528              		.loc 1 297 1
 529              		.cfi_startproc
 530              		@ args = 0, pretend = 0, frame = 8
 531              		@ frame_needed = 1, uses_anonymous_args = 0
 532 0000 80B5     		push	{r7, lr}
 533              	.LCFI12:
 534              		.cfi_def_cfa_offset 8
 535              		.cfi_offset 7, -8
 536              		.cfi_offset 14, -4
 537 0002 82B0     		sub	sp, sp, #8
 538              	.LCFI13:
 539              		.cfi_def_cfa_offset 16
 540 0004 00AF     		add	r7, sp, #0
 541              	.LCFI14:
 542              		.cfi_def_cfa_register 7
 543 0006 7860     		str	r0, [r7, #4]
 544              	.L14:
 545              	.LBB2:
 298:Core/Src/freertos.c ****   /* USER CODE BEGIN Lift_control_Task */
 299:Core/Src/freertos.c ****   /* Infinite loop */
 300:Core/Src/freertos.c ****   for (;;)
 301:Core/Src/freertos.c ****   {
ARM GAS  C:\Users\Administrator\AppData\Local\Temp\ccCE0hkT.s 			page 16


 302:Core/Src/freertos.c ****     STP23L_ParseData(stp23l_raw_data, sizeof(stp23l_raw_data)); // и§Јжһҗж•°жҚ®еҢ…
 546              		.loc 1 302 5
 547 0008 4FF48071 		mov	r1, #256
 548 000c 0B48     		ldr	r0, .L15
 549 000e FFF7FEFF 		bl	STP23L_ParseData
 303:Core/Src/freertos.c ****     Lift_RefreshHeight();                                       // й«ҳеәҰж•°жҚ®еӨ„зҗҶпјҢеҫ—еҲ°еҪ“еү
 550              		.loc 1 303 5
 551 0012 FFF7FEFF 		bl	Lift_RefreshHeight
 304:Core/Src/freertos.c ****     Lift_GoToTarget(aim_tx_height);                             // ж №жҚ®зӣ®ж Үй«ҳеәҰпјҢжҺ§еҲ¶з”өжң
 552              		.loc 1 304 5
 553 0016 0A4B     		ldr	r3, .L15+4
 554 0018 B3F90030 		ldrsh	r3, [r3]
 555 001c 1846     		mov	r0, r3
 556 001e FFF7FEFF 		bl	Lift_GoToTarget
 305:Core/Src/freertos.c ****     osDelay(1);
 557              		.loc 1 305 5
 558 0022 0120     		movs	r0, #1
 559 0024 FFF7FEFF 		bl	osDelay
 306:Core/Src/freertos.c ****     Pump_Update(); // жӣҙж–°ж°”жіөзҠ¶жҖҒ
 560              		.loc 1 306 5
 561 0028 FFF7FEFF 		bl	Pump_Update
 307:Core/Src/freertos.c ****     osDelay(1);
 562              		.loc 1 307 5
 563 002c 0120     		movs	r0, #1
 564 002e FFF7FEFF 		bl	osDelay
 308:Core/Src/freertos.c ****     Lift_UpdateMotor(); // еҸ‘з”ҹеҚҮйҷҚжҺ§еҲ¶дҝЎжҒҜ
 565              		.loc 1 308 5 discriminator 1
 566 0032 FFF7FEFF 		bl	Lift_UpdateMotor
 567              	.LBE2:
 301:Core/Src/freertos.c ****     STP23L_ParseData(stp23l_raw_data, sizeof(stp23l_raw_data)); // и§Јжһҗж•°жҚ®еҢ…
 568              		.loc 1 301 3
 569 0036 00BF     		nop
 570 0038 E6E7     		b	.L14
 571              	.L16:
 572 003a 00BF     		.align	2
 573              	.L15:
 574 003c 00000000 		.word	stp23l_raw_data
 575 0040 00000000 		.word	aim_tx_height
 576              		.cfi_endproc
 577              	.LFE156:
 579              		.section	.text.Motor_control_Task,"ax",%progbits
 580              		.align	1
 581              		.global	Motor_control_Task
 582              		.syntax unified
 583              		.thumb
 584              		.thumb_func
 586              	Motor_control_Task:
 587              	.LFB157:
 309:Core/Src/freertos.c ****   }
 310:Core/Src/freertos.c ****   /* USER CODE END Lift_control_Task */
 311:Core/Src/freertos.c **** }
 312:Core/Src/freertos.c **** 
 313:Core/Src/freertos.c **** /* USER CODE BEGIN Header_Motor_control_Task */
 314:Core/Src/freertos.c **** /**
 315:Core/Src/freertos.c ****  * @brief Function implementing the Motor_control thread.
 316:Core/Src/freertos.c ****  * @param argument: Not used
 317:Core/Src/freertos.c ****  * @retval None
ARM GAS  C:\Users\Administrator\AppData\Local\Temp\ccCE0hkT.s 			page 17


 318:Core/Src/freertos.c ****  */
 319:Core/Src/freertos.c **** /* USER CODE END Header_Motor_control_Task */
 320:Core/Src/freertos.c **** void Motor_control_Task(void *argument)
 321:Core/Src/freertos.c **** {
 588              		.loc 1 321 1
 589              		.cfi_startproc
 590              		@ args = 0, pretend = 0, frame = 8
 591              		@ frame_needed = 1, uses_anonymous_args = 0
 592 0000 80B5     		push	{r7, lr}
 593              	.LCFI15:
 594              		.cfi_def_cfa_offset 8
 595              		.cfi_offset 7, -8
 596              		.cfi_offset 14, -4
 597 0002 82B0     		sub	sp, sp, #8
 598              	.LCFI16:
 599              		.cfi_def_cfa_offset 16
 600 0004 00AF     		add	r7, sp, #0
 601              	.LCFI17:
 602              		.cfi_def_cfa_register 7
 603 0006 7860     		str	r0, [r7, #4]
 604              	.L18:
 322:Core/Src/freertos.c ****   /* USER CODE BEGIN Motor_control_Task */
 323:Core/Src/freertos.c ****   /* Infinite loop */
 324:Core/Src/freertos.c ****   for (;;)
 325:Core/Src/freertos.c ****   {
 326:Core/Src/freertos.c **** 
 327:Core/Src/freertos.c ****     osDelay(1);
 605              		.loc 1 327 5 discriminator 1
 606 0008 0120     		movs	r0, #1
 607 000a FFF7FEFF 		bl	osDelay
 608 000e FBE7     		b	.L18
 609              		.cfi_endproc
 610              	.LFE157:
 612              		.section	.text.Head_Task,"ax",%progbits
 613              		.align	1
 614              		.global	Head_Task
 615              		.syntax unified
 616              		.thumb
 617              		.thumb_func
 619              	Head_Task:
 620              	.LFB158:
 328:Core/Src/freertos.c ****   }
 329:Core/Src/freertos.c ****   /* USER CODE END Motor_control_Task */
 330:Core/Src/freertos.c **** }
 331:Core/Src/freertos.c **** 
 332:Core/Src/freertos.c **** /* USER CODE BEGIN Header_Head_Task */
 333:Core/Src/freertos.c **** /**
 334:Core/Src/freertos.c ****  * @brief Function implementing the Head thread.
 335:Core/Src/freertos.c ****  * @param argument: Not used
 336:Core/Src/freertos.c ****  * @retval None
 337:Core/Src/freertos.c ****  */
 338:Core/Src/freertos.c **** /* USER CODE END Header_Head_Task */
 339:Core/Src/freertos.c **** void Head_Task(void *argument)
 340:Core/Src/freertos.c **** {
 621              		.loc 1 340 1
 622              		.cfi_startproc
 623              		@ args = 0, pretend = 0, frame = 8
ARM GAS  C:\Users\Administrator\AppData\Local\Temp\ccCE0hkT.s 			page 18


 624              		@ frame_needed = 1, uses_anonymous_args = 0
 625 0000 80B5     		push	{r7, lr}
 626              	.LCFI18:
 627              		.cfi_def_cfa_offset 8
 628              		.cfi_offset 7, -8
 629              		.cfi_offset 14, -4
 630 0002 82B0     		sub	sp, sp, #8
 631              	.LCFI19:
 632              		.cfi_def_cfa_offset 16
 633 0004 00AF     		add	r7, sp, #0
 634              	.LCFI20:
 635              		.cfi_def_cfa_register 7
 636 0006 7860     		str	r0, [r7, #4]
 637              	.L20:
 341:Core/Src/freertos.c ****   /* USER CODE BEGIN Head_Task */
 342:Core/Src/freertos.c ****   /* Infinite loop */
 343:Core/Src/freertos.c ****   for (;;)
 344:Core/Src/freertos.c ****   {
 345:Core/Src/freertos.c ****     Head_all_tx();
 638              		.loc 1 345 5
 639 0008 FFF7FEFF 		bl	Head_all_tx
 346:Core/Src/freertos.c **** 
 347:Core/Src/freertos.c ****     Head_Lk_Data_update();
 640              		.loc 1 347 5
 641 000c FFF7FEFF 		bl	Head_Lk_Data_update
 348:Core/Src/freertos.c **** 
 349:Core/Src/freertos.c ****     osDelay(1);
 642              		.loc 1 349 5 discriminator 1
 643 0010 0120     		movs	r0, #1
 644 0012 FFF7FEFF 		bl	osDelay
 345:Core/Src/freertos.c **** 
 645              		.loc 1 345 5
 646 0016 00BF     		nop
 647 0018 F6E7     		b	.L20
 648              		.cfi_endproc
 649              	.LFE158:
 651              		.section	.text.Arm_update_Task,"ax",%progbits
 652              		.align	1
 653              		.global	Arm_update_Task
 654              		.syntax unified
 655              		.thumb
 656              		.thumb_func
 658              	Arm_update_Task:
 659              	.LFB159:
 350:Core/Src/freertos.c ****   }
 351:Core/Src/freertos.c ****   /* USER CODE END Head_Task */
 352:Core/Src/freertos.c **** }
 353:Core/Src/freertos.c **** 
 354:Core/Src/freertos.c **** /* USER CODE BEGIN Header_Arm_update_Task */
 355:Core/Src/freertos.c **** /**
 356:Core/Src/freertos.c ****  * @brief Function implementing the Arm_update thread.
 357:Core/Src/freertos.c ****  * @param argument: Not used
 358:Core/Src/freertos.c ****  * @retval None
 359:Core/Src/freertos.c ****  */
 360:Core/Src/freertos.c **** /* USER CODE END Header_Arm_update_Task */
 361:Core/Src/freertos.c **** void Arm_update_Task(void *argument)
 362:Core/Src/freertos.c **** {
ARM GAS  C:\Users\Administrator\AppData\Local\Temp\ccCE0hkT.s 			page 19


 660              		.loc 1 362 1
 661              		.cfi_startproc
 662              		@ args = 0, pretend = 0, frame = 8
 663              		@ frame_needed = 1, uses_anonymous_args = 0
 664 0000 80B5     		push	{r7, lr}
 665              	.LCFI21:
 666              		.cfi_def_cfa_offset 8
 667              		.cfi_offset 7, -8
 668              		.cfi_offset 14, -4
 669 0002 82B0     		sub	sp, sp, #8
 670              	.LCFI22:
 671              		.cfi_def_cfa_offset 16
 672 0004 00AF     		add	r7, sp, #0
 673              	.LCFI23:
 674              		.cfi_def_cfa_register 7
 675 0006 7860     		str	r0, [r7, #4]
 676              	.L22:
 363:Core/Src/freertos.c ****   /* USER CODE BEGIN Arm_update_Task */
 364:Core/Src/freertos.c ****   /* Infinite loop */
 365:Core/Src/freertos.c ****   for (;;)
 366:Core/Src/freertos.c ****   {
 367:Core/Src/freertos.c ****     Arm_All_Data_update();
 677              		.loc 1 367 5
 678 0008 FFF7FEFF 		bl	Arm_All_Data_update
 368:Core/Src/freertos.c ****     osDelay(1);
 679              		.loc 1 368 5 discriminator 1
 680 000c 0120     		movs	r0, #1
 681 000e FFF7FEFF 		bl	osDelay
 367:Core/Src/freertos.c ****     osDelay(1);
 682              		.loc 1 367 5
 683 0012 00BF     		nop
 684 0014 F8E7     		b	.L22
 685              		.cfi_endproc
 686              	.LFE159:
 688              		.section	.text.Log_and_debug_Task,"ax",%progbits
 689              		.align	1
 690              		.global	Log_and_debug_Task
 691              		.syntax unified
 692              		.thumb
 693              		.thumb_func
 695              	Log_and_debug_Task:
 696              	.LFB160:
 369:Core/Src/freertos.c ****   }
 370:Core/Src/freertos.c ****   /* USER CODE END Arm_update_Task */
 371:Core/Src/freertos.c **** }
 372:Core/Src/freertos.c **** 
 373:Core/Src/freertos.c **** /* USER CODE BEGIN Header_Log_and_debug_Task */
 374:Core/Src/freertos.c **** /**
 375:Core/Src/freertos.c ****  * @brief Function implementing the Log_and_debug thread.
 376:Core/Src/freertos.c ****  * @param argument: Not used
 377:Core/Src/freertos.c ****  * @retval None
 378:Core/Src/freertos.c ****  */
 379:Core/Src/freertos.c **** /* USER CODE END Header_Log_and_debug_Task */
 380:Core/Src/freertos.c **** void Log_and_debug_Task(void *argument)
 381:Core/Src/freertos.c **** {
 697              		.loc 1 381 1
 698              		.cfi_startproc
ARM GAS  C:\Users\Administrator\AppData\Local\Temp\ccCE0hkT.s 			page 20


 699              		@ args = 0, pretend = 0, frame = 8
 700              		@ frame_needed = 1, uses_anonymous_args = 0
 701 0000 80B5     		push	{r7, lr}
 702              	.LCFI24:
 703              		.cfi_def_cfa_offset 8
 704              		.cfi_offset 7, -8
 705              		.cfi_offset 14, -4
 706 0002 82B0     		sub	sp, sp, #8
 707              	.LCFI25:
 708              		.cfi_def_cfa_offset 16
 709 0004 00AF     		add	r7, sp, #0
 710              	.LCFI26:
 711              		.cfi_def_cfa_register 7
 712 0006 7860     		str	r0, [r7, #4]
 382:Core/Src/freertos.c ****   /* USER CODE BEGIN Log_and_debug_Task */
 383:Core/Src/freertos.c ****   LEDshowcolor(RED);
 713              		.loc 1 383 3
 714 0008 4FF47F00 		mov	r0, #16711680
 715 000c FFF7FEFF 		bl	LEDshowcolor
 384:Core/Src/freertos.c ****   osDelay(50);
 716              		.loc 1 384 3
 717 0010 3220     		movs	r0, #50
 718 0012 FFF7FEFF 		bl	osDelay
 385:Core/Src/freertos.c ****   LEDshowcolor(BLUE);
 719              		.loc 1 385 3
 720 0016 FF20     		movs	r0, #255
 721 0018 FFF7FEFF 		bl	LEDshowcolor
 386:Core/Src/freertos.c ****   osDelay(50);
 722              		.loc 1 386 3
 723 001c 3220     		movs	r0, #50
 724 001e FFF7FEFF 		bl	osDelay
 387:Core/Src/freertos.c ****   LEDshowcolor(GREEN);
 725              		.loc 1 387 3
 726 0022 4FF47F40 		mov	r0, #65280
 727 0026 FFF7FEFF 		bl	LEDshowcolor
 388:Core/Src/freertos.c ****   osDelay(50);
 728              		.loc 1 388 3
 729 002a 3220     		movs	r0, #50
 730 002c FFF7FEFF 		bl	osDelay
 731              	.L24:
 389:Core/Src/freertos.c ****   /* Infinite loop */
 390:Core/Src/freertos.c ****   for (;;)
 391:Core/Src/freertos.c ****   {
 392:Core/Src/freertos.c ****     // Music_play(melody);
 393:Core/Src/freertos.c ****     // printf("hello\n");
 394:Core/Src/freertos.c ****     osDelay(1);
 732              		.loc 1 394 5 discriminator 1
 733 0030 0120     		movs	r0, #1
 734 0032 FFF7FEFF 		bl	osDelay
 735 0036 FBE7     		b	.L24
 736              		.cfi_endproc
 737              	.LFE160:
 739              		.section	.text.Arm_SV_Task,"ax",%progbits
 740              		.align	1
 741              		.global	Arm_SV_Task
 742              		.syntax unified
 743              		.thumb
ARM GAS  C:\Users\Administrator\AppData\Local\Temp\ccCE0hkT.s 			page 21


 744              		.thumb_func
 746              	Arm_SV_Task:
 747              	.LFB161:
 395:Core/Src/freertos.c ****   }
 396:Core/Src/freertos.c ****   /* USER CODE END Log_and_debug_Task */
 397:Core/Src/freertos.c **** }
 398:Core/Src/freertos.c **** 
 399:Core/Src/freertos.c **** /* USER CODE BEGIN Header_Arm_SV_Task */
 400:Core/Src/freertos.c **** /**
 401:Core/Src/freertos.c ****  * @brief Function implementing the Arm_SV thread.
 402:Core/Src/freertos.c ****  * @param argument: Not used
 403:Core/Src/freertos.c ****  * @retval None
 404:Core/Src/freertos.c ****  */
 405:Core/Src/freertos.c **** /* USER CODE END Header_Arm_SV_Task */
 406:Core/Src/freertos.c **** void Arm_SV_Task(void *argument)
 407:Core/Src/freertos.c **** {
 748              		.loc 1 407 1
 749              		.cfi_startproc
 750              		@ args = 0, pretend = 0, frame = 8
 751              		@ frame_needed = 1, uses_anonymous_args = 0
 752 0000 80B5     		push	{r7, lr}
 753              	.LCFI27:
 754              		.cfi_def_cfa_offset 8
 755              		.cfi_offset 7, -8
 756              		.cfi_offset 14, -4
 757 0002 82B0     		sub	sp, sp, #8
 758              	.LCFI28:
 759              		.cfi_def_cfa_offset 16
 760 0004 00AF     		add	r7, sp, #0
 761              	.LCFI29:
 762              		.cfi_def_cfa_register 7
 763 0006 7860     		str	r0, [r7, #4]
 764              	.L26:
 408:Core/Src/freertos.c ****   /* USER CODE BEGIN Arm_SV_Task */
 409:Core/Src/freertos.c ****   /* Infinite loop */
 410:Core/Src/freertos.c **** 
 411:Core/Src/freertos.c ****   for (;;)
 412:Core/Src/freertos.c ****   {
 413:Core/Src/freertos.c ****     ARM_SV_Tx_Rx();
 765              		.loc 1 413 5
 766 0008 FFF7FEFF 		bl	ARM_SV_Tx_Rx
 414:Core/Src/freertos.c ****     osDelay(1);
 767              		.loc 1 414 5 discriminator 1
 768 000c 0120     		movs	r0, #1
 769 000e FFF7FEFF 		bl	osDelay
 413:Core/Src/freertos.c ****     osDelay(1);
 770              		.loc 1 413 5
 771 0012 00BF     		nop
 772 0014 F8E7     		b	.L26
 773              		.cfi_endproc
 774              	.LFE161:
 776              		.section	.text.PC_Comm_Task,"ax",%progbits
 777              		.align	1
 778              		.global	PC_Comm_Task
 779              		.syntax unified
 780              		.thumb
 781              		.thumb_func
ARM GAS  C:\Users\Administrator\AppData\Local\Temp\ccCE0hkT.s 			page 22


 783              	PC_Comm_Task:
 784              	.LFB162:
 415:Core/Src/freertos.c ****   }
 416:Core/Src/freertos.c ****   /* USER CODE END Arm_SV_Task */
 417:Core/Src/freertos.c **** }
 418:Core/Src/freertos.c **** 
 419:Core/Src/freertos.c **** /* USER CODE BEGIN Header_PC_Comm_Task */
 420:Core/Src/freertos.c **** /**
 421:Core/Src/freertos.c ****  * @brief Function implementing the PC_Comm thread.
 422:Core/Src/freertos.c ****  * @param argument: Not used
 423:Core/Src/freertos.c ****  * @retval None
 424:Core/Src/freertos.c ****  */
 425:Core/Src/freertos.c **** /* USER CODE END Header_PC_Comm_Task */
 426:Core/Src/freertos.c **** void PC_Comm_Task(void *argument)
 427:Core/Src/freertos.c **** {
 785              		.loc 1 427 1
 786              		.cfi_startproc
 787              		@ args = 0, pretend = 0, frame = 8
 788              		@ frame_needed = 1, uses_anonymous_args = 0
 789 0000 80B5     		push	{r7, lr}
 790              	.LCFI30:
 791              		.cfi_def_cfa_offset 8
 792              		.cfi_offset 7, -8
 793              		.cfi_offset 14, -4
 794 0002 82B0     		sub	sp, sp, #8
 795              	.LCFI31:
 796              		.cfi_def_cfa_offset 16
 797 0004 00AF     		add	r7, sp, #0
 798              	.LCFI32:
 799              		.cfi_def_cfa_register 7
 800 0006 7860     		str	r0, [r7, #4]
 801              	.L28:
 428:Core/Src/freertos.c ****   /* USER CODE BEGIN PC_Comm_Task */
 429:Core/Src/freertos.c ****   /* Infinite loop */
 430:Core/Src/freertos.c ****   for (;;)
 431:Core/Src/freertos.c ****   {
 432:Core/Src/freertos.c ****     //
 433:Core/Src/freertos.c ****     unpack_dn_frame(uart_protocol_raw_data, &pc_dn_data);
 802              		.loc 1 433 5
 803 0008 0549     		ldr	r1, .L29
 804 000a 0648     		ldr	r0, .L29+4
 805 000c FFF7FEFF 		bl	unpack_dn_frame
 434:Core/Src/freertos.c ****     osDelay(1);
 806              		.loc 1 434 5
 807 0010 0120     		movs	r0, #1
 808 0012 FFF7FEFF 		bl	osDelay
 435:Core/Src/freertos.c ****     HAL_IWDG_Refresh(&hiwdg1);
 809              		.loc 1 435 5 discriminator 1
 810 0016 0448     		ldr	r0, .L29+8
 811 0018 FFF7FEFF 		bl	HAL_IWDG_Refresh
 433:Core/Src/freertos.c ****     osDelay(1);
 812              		.loc 1 433 5
 813 001c 00BF     		nop
 814 001e F3E7     		b	.L28
 815              	.L30:
 816              		.align	2
 817              	.L29:
ARM GAS  C:\Users\Administrator\AppData\Local\Temp\ccCE0hkT.s 			page 23


 818 0020 00000000 		.word	pc_dn_data
 819 0024 00000000 		.word	uart_protocol_raw_data
 820 0028 00000000 		.word	hiwdg1
 821              		.cfi_endproc
 822              	.LFE162:
 824              		.text
 825              	.Letext0:
 826              		.file 2 "C:/arm-toolchain/arm-gnu-toolchain-13.3.rel1-mingw-w64-i686-arm-none-eabi/arm-none-eabi/i
 827              		.file 3 "C:/arm-toolchain/arm-gnu-toolchain-13.3.rel1-mingw-w64-i686-arm-none-eabi/arm-none-eabi/i
 828              		.file 4 "Drivers/CMSIS/Device/ST/STM32H7xx/Include/stm32h723xx.h"
 829              		.file 5 "Drivers/STM32H7xx_HAL_Driver/Inc/stm32h7xx_hal_def.h"
 830              		.file 6 "Drivers/STM32H7xx_HAL_Driver/Inc/stm32h7xx_hal_iwdg.h"
 831              		.file 7 "Middlewares/Third_Party/FreeRTOS/Source/CMSIS_RTOS_V2/cmsis_os2.h"
 832              		.file 8 "User/Hardware/LED.h"
 833              		.file 9 "User/Drive/dm4310_drv.h"
 834              		.file 10 "Core/Inc/iwdg.h"
 835              		.file 11 "User/Hardware/lift_control.h"
 836              		.file 12 "User/Drive/Sbus.h"
 837              		.file 13 "User/Drive/stp23l.h"
 838              		.file 14 "User/Hardware/uart_protocol.h"
 839              		.file 15 "User/Hardware/arm_sv.h"
 840              		.file 16 "User/Hardware/arm.h"
 841              		.file 17 "User/Hardware/head.h"
 842              		.file 18 "User/Software/remote_control.h"
ARM GAS  C:\Users\Administrator\AppData\Local\Temp\ccCE0hkT.s 			page 24

