ARM GAS  C:\Users\Godwin\AppData\Local\Temp\ccZkHFP1.s 			page 1


   1              		.cpu cortex-m7
   2              		.arch armv7e-m
   3              		.fpu fpv5-d16
   4              		.eabi_attribute 28, 1
   5              		.eabi_attribute 20, 1
   6              		.eabi_attribute 21, 1
   7              		.eabi_attribute 23, 3
   8              		.eabi_attribute 24, 1
   9              		.eabi_attribute 25, 1
  10              		.eabi_attribute 26, 1
  11              		.eabi_attribute 30, 6
  12              		.eabi_attribute 34, 1
  13              		.eabi_attribute 18, 4
  14              		.file	"i2c.c"
  15              		.text
  16              	.Ltext0:
  17              		.cfi_sections	.debug_frame
  18              		.file 1 "Core/Src/i2c.c"
  19              		.global	hi2c2
  20              		.section	.bss.hi2c2,"aw",%nobits
  21              		.align	2
  24              	hi2c2:
  25 0000 00000000 		.space	84
  25      00000000 
  25      00000000 
  25      00000000 
  25      00000000 
  26              		.section	.text.MX_I2C2_Init,"ax",%progbits
  27              		.align	1
  28              		.global	MX_I2C2_Init
  29              		.syntax unified
  30              		.thumb
  31              		.thumb_func
  33              	MX_I2C2_Init:
  34              	.LFB144:
   1:Core/Src/i2c.c **** /* USER CODE BEGIN Header */
   2:Core/Src/i2c.c **** /**
   3:Core/Src/i2c.c ****   ******************************************************************************
   4:Core/Src/i2c.c ****   * @file    i2c.c
   5:Core/Src/i2c.c ****   * @brief   This file provides code for the configuration
   6:Core/Src/i2c.c ****   *          of the I2C instances.
   7:Core/Src/i2c.c ****   ******************************************************************************
   8:Core/Src/i2c.c ****   * @attention
   9:Core/Src/i2c.c ****   *
  10:Core/Src/i2c.c ****   * Copyright (c) 2026 STMicroelectronics.
  11:Core/Src/i2c.c ****   * All rights reserved.
  12:Core/Src/i2c.c ****   *
  13:Core/Src/i2c.c ****   * This software is licensed under terms that can be found in the LICENSE file
  14:Core/Src/i2c.c ****   * in the root directory of this software component.
  15:Core/Src/i2c.c ****   * If no LICENSE file comes with this software, it is provided AS-IS.
  16:Core/Src/i2c.c ****   *
  17:Core/Src/i2c.c ****   ******************************************************************************
  18:Core/Src/i2c.c ****   */
  19:Core/Src/i2c.c **** /* USER CODE END Header */
  20:Core/Src/i2c.c **** /* Includes ------------------------------------------------------------------*/
  21:Core/Src/i2c.c **** #include "i2c.h"
  22:Core/Src/i2c.c **** 
ARM GAS  C:\Users\Godwin\AppData\Local\Temp\ccZkHFP1.s 			page 2


  23:Core/Src/i2c.c **** /* USER CODE BEGIN 0 */
  24:Core/Src/i2c.c **** 
  25:Core/Src/i2c.c **** /* USER CODE END 0 */
  26:Core/Src/i2c.c **** 
  27:Core/Src/i2c.c **** I2C_HandleTypeDef hi2c2;
  28:Core/Src/i2c.c **** 
  29:Core/Src/i2c.c **** /* I2C2 init function */
  30:Core/Src/i2c.c **** void MX_I2C2_Init(void)
  31:Core/Src/i2c.c **** {
  35              		.loc 1 31 1
  36              		.cfi_startproc
  37              		@ args = 0, pretend = 0, frame = 0
  38              		@ frame_needed = 1, uses_anonymous_args = 0
  39 0000 80B5     		push	{r7, lr}
  40              	.LCFI0:
  41              		.cfi_def_cfa_offset 8
  42              		.cfi_offset 7, -8
  43              		.cfi_offset 14, -4
  44 0002 00AF     		add	r7, sp, #0
  45              	.LCFI1:
  46              		.cfi_def_cfa_register 7
  32:Core/Src/i2c.c **** 
  33:Core/Src/i2c.c ****   /* USER CODE BEGIN I2C2_Init 0 */
  34:Core/Src/i2c.c **** 
  35:Core/Src/i2c.c ****   /* USER CODE END I2C2_Init 0 */
  36:Core/Src/i2c.c **** 
  37:Core/Src/i2c.c ****   /* USER CODE BEGIN I2C2_Init 1 */
  38:Core/Src/i2c.c **** 
  39:Core/Src/i2c.c ****   /* USER CODE END I2C2_Init 1 */
  40:Core/Src/i2c.c ****   hi2c2.Instance = I2C2;
  47              		.loc 1 40 18
  48 0004 1B4B     		ldr	r3, .L6
  49 0006 1C4A     		ldr	r2, .L6+4
  50 0008 1A60     		str	r2, [r3]
  41:Core/Src/i2c.c ****   hi2c2.Init.Timing = 0x307075B1;
  51              		.loc 1 41 21
  52 000a 1A4B     		ldr	r3, .L6
  53 000c 1B4A     		ldr	r2, .L6+8
  54 000e 5A60     		str	r2, [r3, #4]
  42:Core/Src/i2c.c ****   hi2c2.Init.OwnAddress1 = 0;
  55              		.loc 1 42 26
  56 0010 184B     		ldr	r3, .L6
  57 0012 0022     		movs	r2, #0
  58 0014 9A60     		str	r2, [r3, #8]
  43:Core/Src/i2c.c ****   hi2c2.Init.AddressingMode = I2C_ADDRESSINGMODE_7BIT;
  59              		.loc 1 43 29
  60 0016 174B     		ldr	r3, .L6
  61 0018 0122     		movs	r2, #1
  62 001a DA60     		str	r2, [r3, #12]
  44:Core/Src/i2c.c ****   hi2c2.Init.DualAddressMode = I2C_DUALADDRESS_DISABLE;
  63              		.loc 1 44 30
  64 001c 154B     		ldr	r3, .L6
  65 001e 0022     		movs	r2, #0
  66 0020 1A61     		str	r2, [r3, #16]
  45:Core/Src/i2c.c ****   hi2c2.Init.OwnAddress2 = 0;
  67              		.loc 1 45 26
  68 0022 144B     		ldr	r3, .L6
ARM GAS  C:\Users\Godwin\AppData\Local\Temp\ccZkHFP1.s 			page 3


  69 0024 0022     		movs	r2, #0
  70 0026 5A61     		str	r2, [r3, #20]
  46:Core/Src/i2c.c ****   hi2c2.Init.OwnAddress2Masks = I2C_OA2_NOMASK;
  71              		.loc 1 46 31
  72 0028 124B     		ldr	r3, .L6
  73 002a 0022     		movs	r2, #0
  74 002c 9A61     		str	r2, [r3, #24]
  47:Core/Src/i2c.c ****   hi2c2.Init.GeneralCallMode = I2C_GENERALCALL_DISABLE;
  75              		.loc 1 47 30
  76 002e 114B     		ldr	r3, .L6
  77 0030 0022     		movs	r2, #0
  78 0032 DA61     		str	r2, [r3, #28]
  48:Core/Src/i2c.c ****   hi2c2.Init.NoStretchMode = I2C_NOSTRETCH_DISABLE;
  79              		.loc 1 48 28
  80 0034 0F4B     		ldr	r3, .L6
  81 0036 0022     		movs	r2, #0
  82 0038 1A62     		str	r2, [r3, #32]
  49:Core/Src/i2c.c ****   if (HAL_I2C_Init(&hi2c2) != HAL_OK)
  83              		.loc 1 49 7
  84 003a 0E48     		ldr	r0, .L6
  85 003c FFF7FEFF 		bl	HAL_I2C_Init
  86 0040 0346     		mov	r3, r0
  87              		.loc 1 49 6 discriminator 1
  88 0042 002B     		cmp	r3, #0
  89 0044 01D0     		beq	.L2
  50:Core/Src/i2c.c ****   {
  51:Core/Src/i2c.c ****     Error_Handler();
  90              		.loc 1 51 5
  91 0046 FFF7FEFF 		bl	Error_Handler
  92              	.L2:
  52:Core/Src/i2c.c ****   }
  53:Core/Src/i2c.c **** 
  54:Core/Src/i2c.c ****   /** Configure Analogue filter
  55:Core/Src/i2c.c ****   */
  56:Core/Src/i2c.c ****   if (HAL_I2CEx_ConfigAnalogFilter(&hi2c2, I2C_ANALOGFILTER_ENABLE) != HAL_OK)
  93              		.loc 1 56 7
  94 004a 0021     		movs	r1, #0
  95 004c 0948     		ldr	r0, .L6
  96 004e FFF7FEFF 		bl	HAL_I2CEx_ConfigAnalogFilter
  97 0052 0346     		mov	r3, r0
  98              		.loc 1 56 6 discriminator 1
  99 0054 002B     		cmp	r3, #0
 100 0056 01D0     		beq	.L3
  57:Core/Src/i2c.c ****   {
  58:Core/Src/i2c.c ****     Error_Handler();
 101              		.loc 1 58 5
 102 0058 FFF7FEFF 		bl	Error_Handler
 103              	.L3:
  59:Core/Src/i2c.c ****   }
  60:Core/Src/i2c.c **** 
  61:Core/Src/i2c.c ****   /** Configure Digital filter
  62:Core/Src/i2c.c ****   */
  63:Core/Src/i2c.c ****   if (HAL_I2CEx_ConfigDigitalFilter(&hi2c2, 0) != HAL_OK)
 104              		.loc 1 63 7
 105 005c 0021     		movs	r1, #0
 106 005e 0548     		ldr	r0, .L6
 107 0060 FFF7FEFF 		bl	HAL_I2CEx_ConfigDigitalFilter
ARM GAS  C:\Users\Godwin\AppData\Local\Temp\ccZkHFP1.s 			page 4


 108 0064 0346     		mov	r3, r0
 109              		.loc 1 63 6 discriminator 1
 110 0066 002B     		cmp	r3, #0
 111 0068 01D0     		beq	.L5
  64:Core/Src/i2c.c ****   {
  65:Core/Src/i2c.c ****     Error_Handler();
 112              		.loc 1 65 5
 113 006a FFF7FEFF 		bl	Error_Handler
 114              	.L5:
  66:Core/Src/i2c.c ****   }
  67:Core/Src/i2c.c ****   /* USER CODE BEGIN I2C2_Init 2 */
  68:Core/Src/i2c.c **** 
  69:Core/Src/i2c.c ****   /* USER CODE END I2C2_Init 2 */
  70:Core/Src/i2c.c **** 
  71:Core/Src/i2c.c **** }
 115              		.loc 1 71 1
 116 006e 00BF     		nop
 117 0070 80BD     		pop	{r7, pc}
 118              	.L7:
 119 0072 00BF     		.align	2
 120              	.L6:
 121 0074 00000000 		.word	hi2c2
 122 0078 00580040 		.word	1073764352
 123 007c B1757030 		.word	812676529
 124              		.cfi_endproc
 125              	.LFE144:
 127              		.section	.text.HAL_I2C_MspInit,"ax",%progbits
 128              		.align	1
 129              		.global	HAL_I2C_MspInit
 130              		.syntax unified
 131              		.thumb
 132              		.thumb_func
 134              	HAL_I2C_MspInit:
 135              	.LFB145:
  72:Core/Src/i2c.c **** 
  73:Core/Src/i2c.c **** void HAL_I2C_MspInit(I2C_HandleTypeDef* i2cHandle)
  74:Core/Src/i2c.c **** {
 136              		.loc 1 74 1
 137              		.cfi_startproc
 138              		@ args = 0, pretend = 0, frame = 224
 139              		@ frame_needed = 1, uses_anonymous_args = 0
 140 0000 80B5     		push	{r7, lr}
 141              	.LCFI2:
 142              		.cfi_def_cfa_offset 8
 143              		.cfi_offset 7, -8
 144              		.cfi_offset 14, -4
 145 0002 B8B0     		sub	sp, sp, #224
 146              	.LCFI3:
 147              		.cfi_def_cfa_offset 232
 148 0004 00AF     		add	r7, sp, #0
 149              	.LCFI4:
 150              		.cfi_def_cfa_register 7
 151 0006 7860     		str	r0, [r7, #4]
  75:Core/Src/i2c.c **** 
  76:Core/Src/i2c.c ****   GPIO_InitTypeDef GPIO_InitStruct = {0};
 152              		.loc 1 76 20
 153 0008 07F1CC03 		add	r3, r7, #204
ARM GAS  C:\Users\Godwin\AppData\Local\Temp\ccZkHFP1.s 			page 5


 154 000c 0022     		movs	r2, #0
 155 000e 1A60     		str	r2, [r3]
 156 0010 5A60     		str	r2, [r3, #4]
 157 0012 9A60     		str	r2, [r3, #8]
 158 0014 DA60     		str	r2, [r3, #12]
 159 0016 1A61     		str	r2, [r3, #16]
  77:Core/Src/i2c.c ****   RCC_PeriphCLKInitTypeDef PeriphClkInitStruct = {0};
 160              		.loc 1 77 28
 161 0018 07F11003 		add	r3, r7, #16
 162 001c B822     		movs	r2, #184
 163 001e 0021     		movs	r1, #0
 164 0020 1846     		mov	r0, r3
 165 0022 FFF7FEFF 		bl	memset
  78:Core/Src/i2c.c ****   if(i2cHandle->Instance==I2C2)
 166              		.loc 1 78 15
 167 0026 7B68     		ldr	r3, [r7, #4]
 168 0028 1B68     		ldr	r3, [r3]
 169              		.loc 1 78 5
 170 002a 274A     		ldr	r2, .L12
 171 002c 9342     		cmp	r3, r2
 172 002e 46D1     		bne	.L11
  79:Core/Src/i2c.c ****   {
  80:Core/Src/i2c.c ****   /* USER CODE BEGIN I2C2_MspInit 0 */
  81:Core/Src/i2c.c **** 
  82:Core/Src/i2c.c ****   /* USER CODE END I2C2_MspInit 0 */
  83:Core/Src/i2c.c **** 
  84:Core/Src/i2c.c ****   /** Initializes the peripherals clock
  85:Core/Src/i2c.c ****   */
  86:Core/Src/i2c.c ****     PeriphClkInitStruct.PeriphClockSelection = RCC_PERIPHCLK_I2C2;
 173              		.loc 1 86 46
 174 0030 4FF00802 		mov	r2, #8
 175 0034 4FF00003 		mov	r3, #0
 176 0038 C7E90423 		strd	r2, [r7, #16]
  87:Core/Src/i2c.c ****     PeriphClkInitStruct.I2c123ClockSelection = RCC_I2C1235CLKSOURCE_D2PCLK1;
 177              		.loc 1 87 46
 178 003c 0023     		movs	r3, #0
 179 003e C7F89030 		str	r3, [r7, #144]
  88:Core/Src/i2c.c ****     if (HAL_RCCEx_PeriphCLKConfig(&PeriphClkInitStruct) != HAL_OK)
 180              		.loc 1 88 9
 181 0042 07F11003 		add	r3, r7, #16
 182 0046 1846     		mov	r0, r3
 183 0048 FFF7FEFF 		bl	HAL_RCCEx_PeriphCLKConfig
 184 004c 0346     		mov	r3, r0
 185              		.loc 1 88 8 discriminator 1
 186 004e 002B     		cmp	r3, #0
 187 0050 01D0     		beq	.L10
  89:Core/Src/i2c.c ****     {
  90:Core/Src/i2c.c ****       Error_Handler();
 188              		.loc 1 90 7
 189 0052 FFF7FEFF 		bl	Error_Handler
 190              	.L10:
 191              	.LBB2:
  91:Core/Src/i2c.c ****     }
  92:Core/Src/i2c.c **** 
  93:Core/Src/i2c.c ****     __HAL_RCC_GPIOB_CLK_ENABLE();
 192              		.loc 1 93 5
 193 0056 1D4B     		ldr	r3, .L12+4
ARM GAS  C:\Users\Godwin\AppData\Local\Temp\ccZkHFP1.s 			page 6


 194 0058 D3F8E030 		ldr	r3, [r3, #224]
 195 005c 1B4A     		ldr	r2, .L12+4
 196 005e 43F00203 		orr	r3, r3, #2
 197 0062 C2F8E030 		str	r3, [r2, #224]
 198 0066 194B     		ldr	r3, .L12+4
 199 0068 D3F8E030 		ldr	r3, [r3, #224]
 200 006c 03F00203 		and	r3, r3, #2
 201 0070 FB60     		str	r3, [r7, #12]
 202 0072 FB68     		ldr	r3, [r7, #12]
 203              	.LBE2:
  94:Core/Src/i2c.c ****     /**I2C2 GPIO Configuration
  95:Core/Src/i2c.c ****     PB10     ------> I2C2_SCL
  96:Core/Src/i2c.c ****     PB11     ------> I2C2_SDA
  97:Core/Src/i2c.c ****     */
  98:Core/Src/i2c.c ****     GPIO_InitStruct.Pin = GPIO_PIN_10|GPIO_PIN_11;
 204              		.loc 1 98 25
 205 0074 4FF44063 		mov	r3, #3072
 206 0078 C7F8CC30 		str	r3, [r7, #204]
  99:Core/Src/i2c.c ****     GPIO_InitStruct.Mode = GPIO_MODE_AF_OD;
 207              		.loc 1 99 26
 208 007c 1223     		movs	r3, #18
 209 007e C7F8D030 		str	r3, [r7, #208]
 100:Core/Src/i2c.c ****     GPIO_InitStruct.Pull = GPIO_NOPULL;
 210              		.loc 1 100 26
 211 0082 0023     		movs	r3, #0
 212 0084 C7F8D430 		str	r3, [r7, #212]
 101:Core/Src/i2c.c ****     GPIO_InitStruct.Speed = GPIO_SPEED_FREQ_LOW;
 213              		.loc 1 101 27
 214 0088 0023     		movs	r3, #0
 215 008a C7F8D830 		str	r3, [r7, #216]
 102:Core/Src/i2c.c ****     GPIO_InitStruct.Alternate = GPIO_AF4_I2C2;
 216              		.loc 1 102 31
 217 008e 0423     		movs	r3, #4
 218 0090 C7F8DC30 		str	r3, [r7, #220]
 103:Core/Src/i2c.c ****     HAL_GPIO_Init(GPIOB, &GPIO_InitStruct);
 219              		.loc 1 103 5
 220 0094 07F1CC03 		add	r3, r7, #204
 221 0098 1946     		mov	r1, r3
 222 009a 0D48     		ldr	r0, .L12+8
 223 009c FFF7FEFF 		bl	HAL_GPIO_Init
 224              	.LBB3:
 104:Core/Src/i2c.c **** 
 105:Core/Src/i2c.c ****     /* I2C2 clock enable */
 106:Core/Src/i2c.c ****     __HAL_RCC_I2C2_CLK_ENABLE();
 225              		.loc 1 106 5
 226 00a0 0A4B     		ldr	r3, .L12+4
 227 00a2 D3F8E830 		ldr	r3, [r3, #232]
 228 00a6 094A     		ldr	r2, .L12+4
 229 00a8 43F48003 		orr	r3, r3, #4194304
 230 00ac C2F8E830 		str	r3, [r2, #232]
 231 00b0 064B     		ldr	r3, .L12+4
 232 00b2 D3F8E830 		ldr	r3, [r3, #232]
 233 00b6 03F48003 		and	r3, r3, #4194304
 234 00ba BB60     		str	r3, [r7, #8]
 235 00bc BB68     		ldr	r3, [r7, #8]
 236              	.L11:
 237              	.LBE3:
ARM GAS  C:\Users\Godwin\AppData\Local\Temp\ccZkHFP1.s 			page 7


 107:Core/Src/i2c.c ****   /* USER CODE BEGIN I2C2_MspInit 1 */
 108:Core/Src/i2c.c **** 
 109:Core/Src/i2c.c ****   /* USER CODE END I2C2_MspInit 1 */
 110:Core/Src/i2c.c ****   }
 111:Core/Src/i2c.c **** }
 238              		.loc 1 111 1
 239 00be 00BF     		nop
 240 00c0 E037     		adds	r7, r7, #224
 241              	.LCFI5:
 242              		.cfi_def_cfa_offset 8
 243 00c2 BD46     		mov	sp, r7
 244              	.LCFI6:
 245              		.cfi_def_cfa_register 13
 246              		@ sp needed
 247 00c4 80BD     		pop	{r7, pc}
 248              	.L13:
 249 00c6 00BF     		.align	2
 250              	.L12:
 251 00c8 00580040 		.word	1073764352
 252 00cc 00440258 		.word	1476543488
 253 00d0 00040258 		.word	1476527104
 254              		.cfi_endproc
 255              	.LFE145:
 257              		.section	.text.HAL_I2C_MspDeInit,"ax",%progbits
 258              		.align	1
 259              		.global	HAL_I2C_MspDeInit
 260              		.syntax unified
 261              		.thumb
 262              		.thumb_func
 264              	HAL_I2C_MspDeInit:
 265              	.LFB146:
 112:Core/Src/i2c.c **** 
 113:Core/Src/i2c.c **** void HAL_I2C_MspDeInit(I2C_HandleTypeDef* i2cHandle)
 114:Core/Src/i2c.c **** {
 266              		.loc 1 114 1
 267              		.cfi_startproc
 268              		@ args = 0, pretend = 0, frame = 8
 269              		@ frame_needed = 1, uses_anonymous_args = 0
 270 0000 80B5     		push	{r7, lr}
 271              	.LCFI7:
 272              		.cfi_def_cfa_offset 8
 273              		.cfi_offset 7, -8
 274              		.cfi_offset 14, -4
 275 0002 82B0     		sub	sp, sp, #8
 276              	.LCFI8:
 277              		.cfi_def_cfa_offset 16
 278 0004 00AF     		add	r7, sp, #0
 279              	.LCFI9:
 280              		.cfi_def_cfa_register 7
 281 0006 7860     		str	r0, [r7, #4]
 115:Core/Src/i2c.c **** 
 116:Core/Src/i2c.c ****   if(i2cHandle->Instance==I2C2)
 282              		.loc 1 116 15
 283 0008 7B68     		ldr	r3, [r7, #4]
 284 000a 1B68     		ldr	r3, [r3]
 285              		.loc 1 116 5
 286 000c 0C4A     		ldr	r2, .L17
ARM GAS  C:\Users\Godwin\AppData\Local\Temp\ccZkHFP1.s 			page 8


 287 000e 9342     		cmp	r3, r2
 288 0010 11D1     		bne	.L16
 117:Core/Src/i2c.c ****   {
 118:Core/Src/i2c.c ****   /* USER CODE BEGIN I2C2_MspDeInit 0 */
 119:Core/Src/i2c.c **** 
 120:Core/Src/i2c.c ****   /* USER CODE END I2C2_MspDeInit 0 */
 121:Core/Src/i2c.c ****     /* Peripheral clock disable */
 122:Core/Src/i2c.c ****     __HAL_RCC_I2C2_CLK_DISABLE();
 289              		.loc 1 122 5
 290 0012 0C4B     		ldr	r3, .L17+4
 291 0014 D3F8E830 		ldr	r3, [r3, #232]
 292 0018 0A4A     		ldr	r2, .L17+4
 293 001a 23F48003 		bic	r3, r3, #4194304
 294 001e C2F8E830 		str	r3, [r2, #232]
 123:Core/Src/i2c.c **** 
 124:Core/Src/i2c.c ****     /**I2C2 GPIO Configuration
 125:Core/Src/i2c.c ****     PB10     ------> I2C2_SCL
 126:Core/Src/i2c.c ****     PB11     ------> I2C2_SDA
 127:Core/Src/i2c.c ****     */
 128:Core/Src/i2c.c ****     HAL_GPIO_DeInit(GPIOB, GPIO_PIN_10);
 295              		.loc 1 128 5
 296 0022 4FF48061 		mov	r1, #1024
 297 0026 0848     		ldr	r0, .L17+8
 298 0028 FFF7FEFF 		bl	HAL_GPIO_DeInit
 129:Core/Src/i2c.c **** 
 130:Core/Src/i2c.c ****     HAL_GPIO_DeInit(GPIOB, GPIO_PIN_11);
 299              		.loc 1 130 5
 300 002c 4FF40061 		mov	r1, #2048
 301 0030 0548     		ldr	r0, .L17+8
 302 0032 FFF7FEFF 		bl	HAL_GPIO_DeInit
 303              	.L16:
 131:Core/Src/i2c.c **** 
 132:Core/Src/i2c.c ****   /* USER CODE BEGIN I2C2_MspDeInit 1 */
 133:Core/Src/i2c.c **** 
 134:Core/Src/i2c.c ****   /* USER CODE END I2C2_MspDeInit 1 */
 135:Core/Src/i2c.c ****   }
 136:Core/Src/i2c.c **** }
 304              		.loc 1 136 1
 305 0036 00BF     		nop
 306 0038 0837     		adds	r7, r7, #8
 307              	.LCFI10:
 308              		.cfi_def_cfa_offset 8
 309 003a BD46     		mov	sp, r7
 310              	.LCFI11:
 311              		.cfi_def_cfa_register 13
 312              		@ sp needed
 313 003c 80BD     		pop	{r7, pc}
 314              	.L18:
 315 003e 00BF     		.align	2
 316              	.L17:
 317 0040 00580040 		.word	1073764352
 318 0044 00440258 		.word	1476543488
 319 0048 00040258 		.word	1476527104
 320              		.cfi_endproc
 321              	.LFE146:
 323              		.text
 324              	.Letext0:
ARM GAS  C:\Users\Godwin\AppData\Local\Temp\ccZkHFP1.s 			page 9


 325              		.file 2 "C:/Users/Godwin/13.2 Rel1/arm-none-eabi/include/machine/_default_types.h"
 326              		.file 3 "C:/Users/Godwin/13.2 Rel1/arm-none-eabi/include/sys/_stdint.h"
 327              		.file 4 "Drivers/CMSIS/Device/ST/STM32H7xx/Include/stm32h723xx.h"
 328              		.file 5 "Drivers/STM32H7xx_HAL_Driver/Inc/stm32h7xx_hal_def.h"
 329              		.file 6 "Drivers/STM32H7xx_HAL_Driver/Inc/stm32h7xx_hal_rcc_ex.h"
 330              		.file 7 "Drivers/STM32H7xx_HAL_Driver/Inc/stm32h7xx_hal_gpio.h"
 331              		.file 8 "Drivers/STM32H7xx_HAL_Driver/Inc/stm32h7xx_hal_dma.h"
 332              		.file 9 "Drivers/STM32H7xx_HAL_Driver/Inc/stm32h7xx_hal_i2c.h"
 333              		.file 10 "Drivers/STM32H7xx_HAL_Driver/Inc/stm32h7xx_hal_i2c_ex.h"
 334              		.file 11 "Core/Inc/i2c.h"
 335              		.file 12 "Core/Inc/main.h"
ARM GAS  C:\Users\Godwin\AppData\Local\Temp\ccZkHFP1.s 			page 10

