ARM GAS  C:\Users\Godwin\AppData\Local\Temp\cch6NnWd.s 			page 1


   1              		.cpu cortex-m7
   2              		.arch armv7e-m
   3              		.fpu fpv5-d16
   4              		.eabi_attribute 28, 1
   5              		.eabi_attribute 20, 1
   6              		.eabi_attribute 21, 1
   7              		.eabi_attribute 23, 3
   8              		.eabi_attribute 24, 1
   9              		.eabi_attribute 25, 1
  10              		.eabi_attribute 26, 1
  11              		.eabi_attribute 30, 6
  12              		.eabi_attribute 34, 1
  13              		.eabi_attribute 18, 4
  14              		.file	"pump_control.c"
  15              		.text
  16              	.Ltext0:
  17              		.cfi_sections	.debug_frame
  18              		.file 1 "User/Hardware/pump_control.c"
  19              		.global	pump_state
  20              		.section	.bss.pump_state,"aw",%nobits
  23              	pump_state:
  24 0000 00       		.space	1
  25              		.section	.text.Pump_Init,"ax",%progbits
  26              		.align	1
  27              		.global	Pump_Init
  28              		.syntax unified
  29              		.thumb
  30              		.thumb_func
  32              	Pump_Init:
  33              	.LFB144:
   1:User/Hardware/pump_control.c **** #include "pump_control.h"
   2:User/Hardware/pump_control.c **** #include "gpio.h"
   3:User/Hardware/pump_control.c **** #include "stm32h7xx_hal.h"
   4:User/Hardware/pump_control.c **** // ¶¨ŇĺČ«ľÖ±äÁż
   5:User/Hardware/pump_control.c **** PUMP_State pump_state = PUMP_OFF;   // łőĘĽÎŞąŘ±Ő
   6:User/Hardware/pump_control.c **** 
   7:User/Hardware/pump_control.c **** /**
   8:User/Hardware/pump_control.c ****  * @brief  łőĘĽ»ŻĆř±ĂżŘÖĆ
   9:User/Hardware/pump_control.c ****  * @note   Č·±ŁĆř±ĂąŘ±ŐŁ¬Ňý˝ĹłőĘĽ»ŻÍ¨łŁÔÚÓ˛ĽţłőĘĽ»ŻÖĐÍęłÉ
  10:User/Hardware/pump_control.c ****  * @param  ÎŢ
  11:User/Hardware/pump_control.c ****  * @retval ÎŢ
  12:User/Hardware/pump_control.c ****  */
  13:User/Hardware/pump_control.c **** void Pump_Init(void)
  14:User/Hardware/pump_control.c **** {
  34              		.loc 1 14 1
  35              		.cfi_startproc
  36              		@ args = 0, pretend = 0, frame = 0
  37              		@ frame_needed = 1, uses_anonymous_args = 0
  38 0000 80B5     		push	{r7, lr}
  39              	.LCFI0:
  40              		.cfi_def_cfa_offset 8
  41              		.cfi_offset 7, -8
  42              		.cfi_offset 14, -4
  43 0002 00AF     		add	r7, sp, #0
  44              	.LCFI1:
  45              		.cfi_def_cfa_register 7
  15:User/Hardware/pump_control.c ****     HAL_GPIO_WritePin(GPIOD, GPIO_PIN_14, GPIO_PIN_RESET); // PD14//Ćř±Ă1
ARM GAS  C:\Users\Godwin\AppData\Local\Temp\cch6NnWd.s 			page 2


  46              		.loc 1 15 5
  47 0004 0022     		movs	r2, #0
  48 0006 4FF48041 		mov	r1, #16384
  49 000a 1C48     		ldr	r0, .L2
  50 000c FFF7FEFF 		bl	HAL_GPIO_WritePin
  16:User/Hardware/pump_control.c **** 
  17:User/Hardware/pump_control.c ****     HAL_GPIO_WritePin(GPIOD, GPIO_PIN_15, GPIO_PIN_RESET); // PD15//µç´Ĺ·§2
  51              		.loc 1 17 5
  52 0010 0022     		movs	r2, #0
  53 0012 4FF40041 		mov	r1, #32768
  54 0016 1948     		ldr	r0, .L2
  55 0018 FFF7FEFF 		bl	HAL_GPIO_WritePin
  18:User/Hardware/pump_control.c **** 
  19:User/Hardware/pump_control.c ****     HAL_GPIO_WritePin(GPIOB, GPIO_PIN_8, GPIO_PIN_RESET); // PB8
  56              		.loc 1 19 5
  57 001c 0022     		movs	r2, #0
  58 001e 4FF48071 		mov	r1, #256
  59 0022 1748     		ldr	r0, .L2+4
  60 0024 FFF7FEFF 		bl	HAL_GPIO_WritePin
  20:User/Hardware/pump_control.c **** 
  21:User/Hardware/pump_control.c ****     HAL_GPIO_WritePin(GPIOB, GPIO_PIN_9, GPIO_PIN_RESET); // PB9
  61              		.loc 1 21 5
  62 0028 0022     		movs	r2, #0
  63 002a 4FF40071 		mov	r1, #512
  64 002e 1448     		ldr	r0, .L2+4
  65 0030 FFF7FEFF 		bl	HAL_GPIO_WritePin
  22:User/Hardware/pump_control.c **** 
  23:User/Hardware/pump_control.c ****     HAL_GPIO_WritePin(GPIOE, GPIO_PIN_14, GPIO_PIN_RESET); // PE14
  66              		.loc 1 23 5
  67 0034 0022     		movs	r2, #0
  68 0036 4FF48041 		mov	r1, #16384
  69 003a 1248     		ldr	r0, .L2+8
  70 003c FFF7FEFF 		bl	HAL_GPIO_WritePin
  24:User/Hardware/pump_control.c **** 
  25:User/Hardware/pump_control.c ****     HAL_GPIO_WritePin(GPIOE, GPIO_PIN_0, GPIO_PIN_RESET); // PE0Ł¬×ó´˘żó
  71              		.loc 1 25 5
  72 0040 0022     		movs	r2, #0
  73 0042 0121     		movs	r1, #1
  74 0044 0F48     		ldr	r0, .L2+8
  75 0046 FFF7FEFF 		bl	HAL_GPIO_WritePin
  26:User/Hardware/pump_control.c **** 
  27:User/Hardware/pump_control.c ****     HAL_GPIO_WritePin(GPIOE, GPIO_PIN_1, GPIO_PIN_RESET); // PE1
  76              		.loc 1 27 5
  77 004a 0022     		movs	r2, #0
  78 004c 0221     		movs	r1, #2
  79 004e 0D48     		ldr	r0, .L2+8
  80 0050 FFF7FEFF 		bl	HAL_GPIO_WritePin
  28:User/Hardware/pump_control.c **** 
  29:User/Hardware/pump_control.c ****     HAL_GPIO_WritePin(GPIOC, GPIO_PIN_10, GPIO_PIN_RESET); // PC10 Ćř±Ă
  81              		.loc 1 29 5
  82 0054 0022     		movs	r2, #0
  83 0056 4FF48061 		mov	r1, #1024
  84 005a 0B48     		ldr	r0, .L2+12
  85 005c FFF7FEFF 		bl	HAL_GPIO_WritePin
  30:User/Hardware/pump_control.c **** 
  31:User/Hardware/pump_control.c ****     HAL_GPIO_WritePin(GPIOC, GPIO_PIN_11, GPIO_PIN_RESET); // PC11Ł¬ÓŇ´˘żó
  86              		.loc 1 31 5
ARM GAS  C:\Users\Godwin\AppData\Local\Temp\cch6NnWd.s 			page 3


  87 0060 0022     		movs	r2, #0
  88 0062 4FF40061 		mov	r1, #2048
  89 0066 0848     		ldr	r0, .L2+12
  90 0068 FFF7FEFF 		bl	HAL_GPIO_WritePin
  32:User/Hardware/pump_control.c ****     Pump_Off();                     // ąŘ±ŐĆř±Ă
  91              		.loc 1 32 5
  92 006c FFF7FEFF 		bl	Pump_Off
  33:User/Hardware/pump_control.c ****     pump_state = PUMP_OFF;
  93              		.loc 1 33 16
  94 0070 064B     		ldr	r3, .L2+16
  95 0072 0022     		movs	r2, #0
  96 0074 1A70     		strb	r2, [r3]
  34:User/Hardware/pump_control.c **** }
  97              		.loc 1 34 1
  98 0076 00BF     		nop
  99 0078 80BD     		pop	{r7, pc}
 100              	.L3:
 101 007a 00BF     		.align	2
 102              	.L2:
 103 007c 000C0258 		.word	1476529152
 104 0080 00040258 		.word	1476527104
 105 0084 00100258 		.word	1476530176
 106 0088 00080258 		.word	1476528128
 107 008c 00000000 		.word	pump_state
 108              		.cfi_endproc
 109              	.LFE144:
 111              		.section	.text.Pump_On,"ax",%progbits
 112              		.align	1
 113              		.global	Pump_On
 114              		.syntax unified
 115              		.thumb
 116              		.thumb_func
 118              	Pump_On:
 119              	.LFB145:
  35:User/Hardware/pump_control.c **** 
  36:User/Hardware/pump_control.c **** /**
  37:User/Hardware/pump_control.c ****  * @brief  żŞĆôĆř±Ă
  38:User/Hardware/pump_control.c ****  * @note   Ö±˝ÓÉčÖĂ×´Ě¬˛˘Á˘Ľ´żŘÖĆĽĚµçĆ÷
  39:User/Hardware/pump_control.c ****  * @param  ÎŢ
  40:User/Hardware/pump_control.c ****  * @retval ÎŢ
  41:User/Hardware/pump_control.c ****  */
  42:User/Hardware/pump_control.c **** void Pump_On(void)
  43:User/Hardware/pump_control.c **** {
 120              		.loc 1 43 1
 121              		.cfi_startproc
 122              		@ args = 0, pretend = 0, frame = 0
 123              		@ frame_needed = 1, uses_anonymous_args = 0
 124 0000 80B5     		push	{r7, lr}
 125              	.LCFI2:
 126              		.cfi_def_cfa_offset 8
 127              		.cfi_offset 7, -8
 128              		.cfi_offset 14, -4
 129 0002 00AF     		add	r7, sp, #0
 130              	.LCFI3:
 131              		.cfi_def_cfa_register 7
  44:User/Hardware/pump_control.c ****     pump_state = PUMP_ON;
 132              		.loc 1 44 16
ARM GAS  C:\Users\Godwin\AppData\Local\Temp\cch6NnWd.s 			page 4


 133 0004 054B     		ldr	r3, .L5
 134 0006 0122     		movs	r2, #1
 135 0008 1A70     		strb	r2, [r3]
  45:User/Hardware/pump_control.c ****     // Á˘Ľ´Ö´ĐĐ¶Ż×÷Ł¬Č·±ŁĎěÓ¦Ń¸ËŮ
  46:User/Hardware/pump_control.c ****     HAL_GPIO_WritePin(PUMP_RELAY_PORT, PUMP_RELAY_PIN, RELAY_ON);
 136              		.loc 1 46 5
 137 000a 0022     		movs	r2, #0
 138 000c 4FF40051 		mov	r1, #8192
 139 0010 0348     		ldr	r0, .L5+4
 140 0012 FFF7FEFF 		bl	HAL_GPIO_WritePin
  47:User/Hardware/pump_control.c **** }
 141              		.loc 1 47 1
 142 0016 00BF     		nop
 143 0018 80BD     		pop	{r7, pc}
 144              	.L6:
 145 001a 00BF     		.align	2
 146              	.L5:
 147 001c 00000000 		.word	pump_state
 148 0020 00100258 		.word	1476530176
 149              		.cfi_endproc
 150              	.LFE145:
 152              		.section	.text.Pump_Off,"ax",%progbits
 153              		.align	1
 154              		.global	Pump_Off
 155              		.syntax unified
 156              		.thumb
 157              		.thumb_func
 159              	Pump_Off:
 160              	.LFB146:
  48:User/Hardware/pump_control.c **** 
  49:User/Hardware/pump_control.c **** /**
  50:User/Hardware/pump_control.c ****  * @brief  ąŘ±ŐĆř±Ă
  51:User/Hardware/pump_control.c ****  * @param  ÎŢ
  52:User/Hardware/pump_control.c ****  * @retval ÎŢ
  53:User/Hardware/pump_control.c ****  */
  54:User/Hardware/pump_control.c **** void Pump_Off(void)
  55:User/Hardware/pump_control.c **** {
 161              		.loc 1 55 1
 162              		.cfi_startproc
 163              		@ args = 0, pretend = 0, frame = 0
 164              		@ frame_needed = 1, uses_anonymous_args = 0
 165 0000 80B5     		push	{r7, lr}
 166              	.LCFI4:
 167              		.cfi_def_cfa_offset 8
 168              		.cfi_offset 7, -8
 169              		.cfi_offset 14, -4
 170 0002 00AF     		add	r7, sp, #0
 171              	.LCFI5:
 172              		.cfi_def_cfa_register 7
  56:User/Hardware/pump_control.c ****     pump_state = PUMP_OFF;
 173              		.loc 1 56 16
 174 0004 054B     		ldr	r3, .L8
 175 0006 0022     		movs	r2, #0
 176 0008 1A70     		strb	r2, [r3]
  57:User/Hardware/pump_control.c ****     HAL_GPIO_WritePin(PUMP_RELAY_PORT, PUMP_RELAY_PIN, RELAY_OFF);
 177              		.loc 1 57 5
 178 000a 0122     		movs	r2, #1
ARM GAS  C:\Users\Godwin\AppData\Local\Temp\cch6NnWd.s 			page 5


 179 000c 4FF40051 		mov	r1, #8192
 180 0010 0348     		ldr	r0, .L8+4
 181 0012 FFF7FEFF 		bl	HAL_GPIO_WritePin
  58:User/Hardware/pump_control.c **** }
 182              		.loc 1 58 1
 183 0016 00BF     		nop
 184 0018 80BD     		pop	{r7, pc}
 185              	.L9:
 186 001a 00BF     		.align	2
 187              	.L8:
 188 001c 00000000 		.word	pump_state
 189 0020 00100258 		.word	1476530176
 190              		.cfi_endproc
 191              	.LFE146:
 193              		.section	.text.Pump_SetState,"ax",%progbits
 194              		.align	1
 195              		.global	Pump_SetState
 196              		.syntax unified
 197              		.thumb
 198              		.thumb_func
 200              	Pump_SetState:
 201              	.LFB147:
  59:User/Hardware/pump_control.c **** 
  60:User/Hardware/pump_control.c **** /**
  61:User/Hardware/pump_control.c ****  * @brief  ÉčÖĂÖ¸¶¨×´Ě¬
  62:User/Hardware/pump_control.c ****  * @note   ˝öĐŢ¸Ä×´Ě¬Ł¬˛»Á˘Ľ´Ö´ĐĐŁ»ĐčĹäşĎ Pump_Update ĘąÓĂŇÔĘµĎÖÍłŇ»Ë˘ĐÂ
  63:User/Hardware/pump_control.c ****  * @param  state ŇŞÉčÖĂµÄ×´Ě¬Ł¨PUMP_ON / PUMP_OFFŁ©
  64:User/Hardware/pump_control.c ****  * @retval ÎŢ
  65:User/Hardware/pump_control.c ****  */
  66:User/Hardware/pump_control.c **** void Pump_SetState(PUMP_State state)
  67:User/Hardware/pump_control.c **** {
 202              		.loc 1 67 1
 203              		.cfi_startproc
 204              		@ args = 0, pretend = 0, frame = 8
 205              		@ frame_needed = 1, uses_anonymous_args = 0
 206              		@ link register save eliminated.
 207 0000 80B4     		push	{r7}
 208              	.LCFI6:
 209              		.cfi_def_cfa_offset 4
 210              		.cfi_offset 7, -4
 211 0002 83B0     		sub	sp, sp, #12
 212              	.LCFI7:
 213              		.cfi_def_cfa_offset 16
 214 0004 00AF     		add	r7, sp, #0
 215              	.LCFI8:
 216              		.cfi_def_cfa_register 7
 217 0006 0346     		mov	r3, r0
 218 0008 FB71     		strb	r3, [r7, #7]
  68:User/Hardware/pump_control.c ****     pump_state = state;
 219              		.loc 1 68 16
 220 000a 044A     		ldr	r2, .L11
 221 000c FB79     		ldrb	r3, [r7, #7]
 222 000e 1370     		strb	r3, [r2]
  69:User/Hardware/pump_control.c **** }
 223              		.loc 1 69 1
 224 0010 00BF     		nop
 225 0012 0C37     		adds	r7, r7, #12
ARM GAS  C:\Users\Godwin\AppData\Local\Temp\cch6NnWd.s 			page 6


 226              	.LCFI9:
 227              		.cfi_def_cfa_offset 4
 228 0014 BD46     		mov	sp, r7
 229              	.LCFI10:
 230              		.cfi_def_cfa_register 13
 231              		@ sp needed
 232 0016 5DF8047B 		ldr	r7, [sp], #4
 233              	.LCFI11:
 234              		.cfi_restore 7
 235              		.cfi_def_cfa_offset 0
 236 001a 7047     		bx	lr
 237              	.L12:
 238              		.align	2
 239              	.L11:
 240 001c 00000000 		.word	pump_state
 241              		.cfi_endproc
 242              	.LFE147:
 244              		.section	.text.Pump_GetState,"ax",%progbits
 245              		.align	1
 246              		.global	Pump_GetState
 247              		.syntax unified
 248              		.thumb
 249              		.thumb_func
 251              	Pump_GetState:
 252              	.LFB148:
  70:User/Hardware/pump_control.c **** 
  71:User/Hardware/pump_control.c **** /**
  72:User/Hardware/pump_control.c ****  * @brief  »ńČˇµ±Ç°×´Ě¬
  73:User/Hardware/pump_control.c ****  * @retval µ±Ç°×´Ě¬
  74:User/Hardware/pump_control.c ****  */
  75:User/Hardware/pump_control.c **** PUMP_State Pump_GetState(void)
  76:User/Hardware/pump_control.c **** {
 253              		.loc 1 76 1
 254              		.cfi_startproc
 255              		@ args = 0, pretend = 0, frame = 0
 256              		@ frame_needed = 1, uses_anonymous_args = 0
 257              		@ link register save eliminated.
 258 0000 80B4     		push	{r7}
 259              	.LCFI12:
 260              		.cfi_def_cfa_offset 4
 261              		.cfi_offset 7, -4
 262 0002 00AF     		add	r7, sp, #0
 263              	.LCFI13:
 264              		.cfi_def_cfa_register 7
  77:User/Hardware/pump_control.c ****     return pump_state;
 265              		.loc 1 77 12
 266 0004 034B     		ldr	r3, .L15
 267 0006 1B78     		ldrb	r3, [r3]	@ zero_extendqisi2
  78:User/Hardware/pump_control.c **** }
 268              		.loc 1 78 1
 269 0008 1846     		mov	r0, r3
 270 000a BD46     		mov	sp, r7
 271              	.LCFI14:
 272              		.cfi_def_cfa_register 13
 273              		@ sp needed
 274 000c 5DF8047B 		ldr	r7, [sp], #4
 275              	.LCFI15:
ARM GAS  C:\Users\Godwin\AppData\Local\Temp\cch6NnWd.s 			page 7


 276              		.cfi_restore 7
 277              		.cfi_def_cfa_offset 0
 278 0010 7047     		bx	lr
 279              	.L16:
 280 0012 00BF     		.align	2
 281              	.L15:
 282 0014 00000000 		.word	pump_state
 283              		.cfi_endproc
 284              	.LFE148:
 286              		.section	.text.Pump_Update,"ax",%progbits
 287              		.align	1
 288              		.global	Pump_Update
 289              		.syntax unified
 290              		.thumb
 291              		.thumb_func
 293              	Pump_Update:
 294              	.LFB149:
  79:User/Hardware/pump_control.c **** 
  80:User/Hardware/pump_control.c **** /**
  81:User/Hardware/pump_control.c ****  * @brief  ¸ůľÝµ±Ç°×´Ě¬¸üĐÂĽĚµçĆ÷
  82:User/Hardware/pump_control.c ****  * @note   ´ËşŻĘýĐčÖÜĆÚĐÔµ÷ÓĂŁ¨ŔýČçĂż10msŁ©Ł¬ŇÔĘµĎÖ×´Ě¬ÓëÓ˛ĽţµÄÍ¬˛˝ˇŁ
  83:User/Hardware/pump_control.c ****  *        ČôĘąÓĂÁË Pump_On/Off Ö±˝Ó˛Ů×÷Ł¬Ôň´ËşŻĘýżÉĘˇÂÔŁ»µ«ÎŞÍłŇ»ąÜŔíŁ¬˝¨Ňé±ŁÁôˇŁ
  84:User/Hardware/pump_control.c ****  * @param  ÎŢ
  85:User/Hardware/pump_control.c ****  * @retval ÎŢ
  86:User/Hardware/pump_control.c ****  */
  87:User/Hardware/pump_control.c **** void Pump_Update(void)
  88:User/Hardware/pump_control.c **** {
 295              		.loc 1 88 1
 296              		.cfi_startproc
 297              		@ args = 0, pretend = 0, frame = 0
 298              		@ frame_needed = 1, uses_anonymous_args = 0
 299 0000 80B5     		push	{r7, lr}
 300              	.LCFI16:
 301              		.cfi_def_cfa_offset 8
 302              		.cfi_offset 7, -8
 303              		.cfi_offset 14, -4
 304 0002 00AF     		add	r7, sp, #0
 305              	.LCFI17:
 306              		.cfi_def_cfa_register 7
  89:User/Hardware/pump_control.c ****     switch (pump_state)
 307              		.loc 1 89 5
 308 0004 094B     		ldr	r3, .L20
 309 0006 1B78     		ldrb	r3, [r3]	@ zero_extendqisi2
 310 0008 012B     		cmp	r3, #1
 311 000a 06D1     		bne	.L18
  90:User/Hardware/pump_control.c ****     {
  91:User/Hardware/pump_control.c ****     case PUMP_ON:
  92:User/Hardware/pump_control.c ****         HAL_GPIO_WritePin(PUMP_RELAY_PORT, PUMP_RELAY_PIN, RELAY_ON);
 312              		.loc 1 92 9
 313 000c 0022     		movs	r2, #0
 314 000e 4FF40051 		mov	r1, #8192
 315 0012 0748     		ldr	r0, .L20+4
 316 0014 FFF7FEFF 		bl	HAL_GPIO_WritePin
  93:User/Hardware/pump_control.c ****         break;
 317              		.loc 1 93 9
 318 0018 06E0     		b	.L19
 319              	.L18:
ARM GAS  C:\Users\Godwin\AppData\Local\Temp\cch6NnWd.s 			page 8


  94:User/Hardware/pump_control.c ****     case PUMP_OFF:
  95:User/Hardware/pump_control.c ****     default:
  96:User/Hardware/pump_control.c ****         HAL_GPIO_WritePin(PUMP_RELAY_PORT, PUMP_RELAY_PIN, RELAY_OFF);
 320              		.loc 1 96 9
 321 001a 0122     		movs	r2, #1
 322 001c 4FF40051 		mov	r1, #8192
 323 0020 0348     		ldr	r0, .L20+4
 324 0022 FFF7FEFF 		bl	HAL_GPIO_WritePin
  97:User/Hardware/pump_control.c ****         break;
 325              		.loc 1 97 9
 326 0026 00BF     		nop
 327              	.L19:
  98:User/Hardware/pump_control.c ****     }
  99:User/Hardware/pump_control.c **** }...
 328              		.loc 1 99 1
 329 0028 00BF     		nop
 330 002a 80BD     		pop	{r7, pc}
 331              	.L21:
 332              		.align	2
 333              	.L20:
 334 002c 00000000 		.word	pump_state
 335 0030 00100258 		.word	1476530176
 336              		.cfi_endproc
 337              	.LFE149:
 339              		.text
 340              	.Letext0:
 341              		.file 2 "User/Hardware/pump_control.h"
 342              		.file 3 "C:/Users/Godwin/13.2 Rel1/arm-none-eabi/include/machine/_default_types.h"
 343              		.file 4 "C:/Users/Godwin/13.2 Rel1/arm-none-eabi/include/sys/_stdint.h"
 344              		.file 5 "Drivers/CMSIS/Device/ST/STM32H7xx/Include/stm32h723xx.h"
 345              		.file 6 "Drivers/STM32H7xx_HAL_Driver/Inc/stm32h7xx_hal_gpio.h"
ARM GAS  C:\Users\Godwin\AppData\Local\Temp\cch6NnWd.s 			page 9

