ARM GAS  C:\Users\Godwin\AppData\Local\Temp\cc7eGPMH.s 			page 1


   1              		.cpu cortex-m7
   2              		.arch armv7e-m
   3              		.fpu fpv5-d16
   4              		.eabi_attribute 28, 1
   5              		.eabi_attribute 20, 1
   6              		.eabi_attribute 21, 1
   7              		.eabi_attribute 23, 3
   8              		.eabi_attribute 24, 1
   9              		.eabi_attribute 25, 1
  10              		.eabi_attribute 26, 1
  11              		.eabi_attribute 30, 6
  12              		.eabi_attribute 34, 1
  13              		.eabi_attribute 18, 4
  14              		.file	"remote_control.c"
  15              		.text
  16              	.Ltext0:
  17              		.cfi_sections	.debug_frame
  18              		.file 1 "User/Software/remote_control.c"
  19              		.global	boom_arm_status
  20              		.section	.bss.boom_arm_status,"aw",%nobits
  23              	boom_arm_status:
  24 0000 00       		.space	1
  25              		.global	lift_state
  26              		.section	.bss.lift_state,"aw",%nobits
  29              	lift_state:
  30 0000 00       		.space	1
  31              		.section	.text.Motor_Forward,"ax",%progbits
  32              		.align	1
  33              		.global	Motor_Forward
  34              		.syntax unified
  35              		.thumb
  36              		.thumb_func
  38              	Motor_Forward:
  39              	.LFB144:
   1:User/Software/remote_control.c **** #include "remote_control.h"
   2:User/Software/remote_control.c **** #include "ramp_generator.h"
   3:User/Software/remote_control.c **** #include "IMU_updata.h"
   4:User/Software/remote_control.c **** #include "Stm32_time.h"
   5:User/Software/remote_control.c **** #include <tim.h>
   6:User/Software/remote_control.c **** #include "pid.h"
   7:User/Software/remote_control.c **** #include "UART_data_txrx.h"
   8:User/Software/remote_control.c **** #include "Sbus.h"
   9:User/Software/remote_control.c **** // 劭陣匂峙
  10:User/Software/remote_control.c **** #define LOW_VALUE 353
  11:User/Software/remote_control.c **** #define MID_VALUE 1024
  12:User/Software/remote_control.c **** #define HIGH_VALUE 1694
  13:User/Software/remote_control.c **** #define RANGE 50
  14:User/Software/remote_control.c **** // 幅週写窮匂窮峠協吶⦿詰窮峠乾窟簾栽⇧互窮峠僅蝕陣崙哈重
  15:User/Software/remote_control.c **** #define RELAY1_PIN GPIO_PIN_0
  16:User/Software/remote_control.c **** #define RELAY1_PORT GPIOA
  17:User/Software/remote_control.c **** #define RELAY2_PIN GPIO_PIN_2
  18:User/Software/remote_control.c **** #define RELAY2_PORT GPIOA
  19:User/Software/remote_control.c **** //
  20:User/Software/remote_control.c **** #define RELAY_ON GPIO_PIN_RESET // 写窮匂簾栽↙詰窮峠⇄
  21:User/Software/remote_control.c **** #define RELAY_OFF GPIO_PIN_SET  // 写窮匂僅蝕↙互窮峠⇄
  22:User/Software/remote_control.c **** 
  23:User/Software/remote_control.c **** BOOM_ARM_Stats boom_arm_status; // 字亠越賑叡彜蓑
ARM GAS  C:\Users\Godwin\AppData\Local\Temp\cc7eGPMH.s 			page 2


  24:User/Software/remote_control.c **** LIFT_State lift_state;          // 阜週庫彜蓑
  25:User/Software/remote_control.c **** 
  26:User/Software/remote_control.c **** /**
  27:User/Software/remote_control.c ****  * @brief  陣崙窮字屎廬
  28:User/Software/remote_control.c ****  * @note   IN1(PA0)=詰窮峠↙簾栽⇄、IN2(PA1)=互窮峠↙僅蝕⇄
  29:User/Software/remote_control.c ****  *         窮字A極俊24V+⇧B極俊24V-⇧屎﨑廬強
  30:User/Software/remote_control.c ****  * @param  涙
  31:User/Software/remote_control.c ****  * @retval 涙
  32:User/Software/remote_control.c ****  */
  33:User/Software/remote_control.c **** void Motor_Forward(void)
  34:User/Software/remote_control.c **** {
  40              		.loc 1 34 1
  41              		.cfi_startproc
  42              		@ args = 0, pretend = 0, frame = 0
  43              		@ frame_needed = 1, uses_anonymous_args = 0
  44 0000 80B5     		push	{r7, lr}
  45              	.LCFI0:
  46              		.cfi_def_cfa_offset 8
  47              		.cfi_offset 7, -8
  48              		.cfi_offset 14, -4
  49 0002 00AF     		add	r7, sp, #0
  50              	.LCFI1:
  51              		.cfi_def_cfa_register 7
  35:User/Software/remote_control.c ****     // 及匯揃写窮匂簾栽↙詰窮峠⇄
  36:User/Software/remote_control.c ****     HAL_GPIO_WritePin(RELAY1_PORT, RELAY1_PIN, RELAY_ON);
  52              		.loc 1 36 5
  53 0004 0022     		movs	r2, #0
  54 0006 0121     		movs	r1, #1
  55 0008 0448     		ldr	r0, .L2
  56 000a FFF7FEFF 		bl	HAL_GPIO_WritePin
  37:User/Software/remote_control.c ****     // 及屈揃写窮匂僅蝕↙互窮峠⇄
  38:User/Software/remote_control.c ****     HAL_GPIO_WritePin(RELAY2_PORT, RELAY2_PIN, RELAY_OFF);
  57              		.loc 1 38 5
  58 000e 0122     		movs	r2, #1
  59 0010 0421     		movs	r1, #4
  60 0012 0248     		ldr	r0, .L2
  61 0014 FFF7FEFF 		bl	HAL_GPIO_WritePin
  39:User/Software/remote_control.c **** }
  62              		.loc 1 39 1
  63 0018 00BF     		nop
  64 001a 80BD     		pop	{r7, pc}
  65              	.L3:
  66              		.align	2
  67              	.L2:
  68 001c 00000258 		.word	1476526080
  69              		.cfi_endproc
  70              	.LFE144:
  72              		.section	.text.Motor_Reverse,"ax",%progbits
  73              		.align	1
  74              		.global	Motor_Reverse
  75              		.syntax unified
  76              		.thumb
  77              		.thumb_func
  79              	Motor_Reverse:
  80              	.LFB145:
  40:User/Software/remote_control.c **** 
  41:User/Software/remote_control.c **** /**
ARM GAS  C:\Users\Godwin\AppData\Local\Temp\cc7eGPMH.s 			page 3


  42:User/Software/remote_control.c ****  * @brief  陣崙窮字郡廬
  43:User/Software/remote_control.c ****  * @note   IN1(PA0)=互窮峠↙僅蝕⇄、IN2(PA1)=詰窮峠↙簾栽⇄
  44:User/Software/remote_control.c ****  *         窮字A極俊24V-⇧B極俊24V+⇧郡﨑廬強
  45:User/Software/remote_control.c ****  * @param  涙
  46:User/Software/remote_control.c ****  * @retval 涙
  47:User/Software/remote_control.c ****  */
  48:User/Software/remote_control.c **** void Motor_Reverse(void)
  49:User/Software/remote_control.c **** {
  81              		.loc 1 49 1
  82              		.cfi_startproc
  83              		@ args = 0, pretend = 0, frame = 0
  84              		@ frame_needed = 1, uses_anonymous_args = 0
  85 0000 80B5     		push	{r7, lr}
  86              	.LCFI2:
  87              		.cfi_def_cfa_offset 8
  88              		.cfi_offset 7, -8
  89              		.cfi_offset 14, -4
  90 0002 00AF     		add	r7, sp, #0
  91              	.LCFI3:
  92              		.cfi_def_cfa_register 7
  50:User/Software/remote_control.c ****     // 及匯揃写窮匂僅蝕↙互窮峠⇄
  51:User/Software/remote_control.c ****     HAL_GPIO_WritePin(RELAY1_PORT, RELAY1_PIN, RELAY_OFF);
  93              		.loc 1 51 5
  94 0004 0122     		movs	r2, #1
  95 0006 0121     		movs	r1, #1
  96 0008 0448     		ldr	r0, .L5
  97 000a FFF7FEFF 		bl	HAL_GPIO_WritePin
  52:User/Software/remote_control.c ****     // 及屈揃写窮匂簾栽↙詰窮峠⇄
  53:User/Software/remote_control.c ****     HAL_GPIO_WritePin(RELAY2_PORT, RELAY2_PIN, RELAY_ON);
  98              		.loc 1 53 5
  99 000e 0022     		movs	r2, #0
 100 0010 0421     		movs	r1, #4
 101 0012 0248     		ldr	r0, .L5
 102 0014 FFF7FEFF 		bl	HAL_GPIO_WritePin
  54:User/Software/remote_control.c **** }
 103              		.loc 1 54 1
 104 0018 00BF     		nop
 105 001a 80BD     		pop	{r7, pc}
 106              	.L6:
 107              		.align	2
 108              	.L5:
 109 001c 00000258 		.word	1476526080
 110              		.cfi_endproc
 111              	.LFE145:
 113              		.section	.text.Motor_Stop,"ax",%progbits
 114              		.align	1
 115              		.global	Motor_Stop
 116              		.syntax unified
 117              		.thumb
 118              		.thumb_func
 120              	Motor_Stop:
 121              	.LFB146:
  55:User/Software/remote_control.c **** 
  56:User/Software/remote_control.c **** /**
  57:User/Software/remote_control.c ****  * @brief  陣崙窮字唯峭
  58:User/Software/remote_control.c ****  * @note   IN1才IN2脅葎互窮峠⇧曾揃写窮匂脅僅蝕⇧窮字曾極傅腎⇧唯峭廬強
  59:User/Software/remote_control.c ****  * @param  涙
ARM GAS  C:\Users\Godwin\AppData\Local\Temp\cc7eGPMH.s 			page 4


  60:User/Software/remote_control.c ****  * @retval 涙
  61:User/Software/remote_control.c ****  */
  62:User/Software/remote_control.c **** void Motor_Stop(void)
  63:User/Software/remote_control.c **** {
 122              		.loc 1 63 1
 123              		.cfi_startproc
 124              		@ args = 0, pretend = 0, frame = 0
 125              		@ frame_needed = 1, uses_anonymous_args = 0
 126 0000 80B5     		push	{r7, lr}
 127              	.LCFI4:
 128              		.cfi_def_cfa_offset 8
 129              		.cfi_offset 7, -8
 130              		.cfi_offset 14, -4
 131 0002 00AF     		add	r7, sp, #0
 132              	.LCFI5:
 133              		.cfi_def_cfa_register 7
  64:User/Software/remote_control.c ****     // 曾揃写窮匂脅僅蝕↙互窮峠⇄
  65:User/Software/remote_control.c ****     HAL_GPIO_WritePin(RELAY1_PORT, RELAY1_PIN, RELAY_OFF);
 134              		.loc 1 65 5
 135 0004 0122     		movs	r2, #1
 136 0006 0121     		movs	r1, #1
 137 0008 0448     		ldr	r0, .L8
 138 000a FFF7FEFF 		bl	HAL_GPIO_WritePin
  66:User/Software/remote_control.c ****     HAL_GPIO_WritePin(RELAY2_PORT, RELAY2_PIN, RELAY_OFF);
 139              		.loc 1 66 5
 140 000e 0122     		movs	r2, #1
 141 0010 0421     		movs	r1, #4
 142 0012 0248     		ldr	r0, .L8
 143 0014 FFF7FEFF 		bl	HAL_GPIO_WritePin
  67:User/Software/remote_control.c **** }
 144              		.loc 1 67 1
 145 0018 00BF     		nop
 146 001a 80BD     		pop	{r7, pc}
 147              	.L9:
 148              		.align	2
 149              	.L8:
 150 001c 00000258 		.word	1476526080
 151              		.cfi_endproc
 152              	.LFE146:
 154              		.section	.text.Up_Down_Motor_Control_Updata,"ax",%progbits
 155              		.align	1
 156              		.global	Up_Down_Motor_Control_Updata
 157              		.syntax unified
 158              		.thumb
 159              		.thumb_func
 161              	Up_Down_Motor_Control_Updata:
 162              	.LFB147:
  68:User/Software/remote_control.c **** void Up_Down_Motor_Control_Updata(void)
  69:User/Software/remote_control.c **** {
 163              		.loc 1 69 1
 164              		.cfi_startproc
 165              		@ args = 0, pretend = 0, frame = 0
 166              		@ frame_needed = 1, uses_anonymous_args = 0
 167 0000 80B5     		push	{r7, lr}
 168              	.LCFI6:
 169              		.cfi_def_cfa_offset 8
 170              		.cfi_offset 7, -8
ARM GAS  C:\Users\Godwin\AppData\Local\Temp\cc7eGPMH.s 			page 5


 171              		.cfi_offset 14, -4
 172 0002 00AF     		add	r7, sp, #0
 173              	.LCFI7:
 174              		.cfi_def_cfa_register 7
  70:User/Software/remote_control.c ****     switch (lift_state)
 175              		.loc 1 70 5
 176 0004 084B     		ldr	r3, .L16
 177 0006 1B78     		ldrb	r3, [r3]	@ zero_extendqisi2
 178 0008 002B     		cmp	r3, #0
 179 000a 02D0     		beq	.L11
 180 000c 012B     		cmp	r3, #1
 181 000e 03D0     		beq	.L12
 182 0010 05E0     		b	.L15
 183              	.L11:
  71:User/Software/remote_control.c ****     {
  72:User/Software/remote_control.c ****     case 0:
  73:User/Software/remote_control.c ****         Motor_Forward();
 184              		.loc 1 73 9
 185 0012 FFF7FEFF 		bl	Motor_Forward
  74:User/Software/remote_control.c ****         break;
 186              		.loc 1 74 9
 187 0016 05E0     		b	.L14
 188              	.L12:
  75:User/Software/remote_control.c ****     case 1:
  76:User/Software/remote_control.c ****         Motor_Reverse();
 189              		.loc 1 76 9
 190 0018 FFF7FEFF 		bl	Motor_Reverse
  77:User/Software/remote_control.c ****         break;
 191              		.loc 1 77 9
 192 001c 02E0     		b	.L14
 193              	.L15:
  78:User/Software/remote_control.c ****     case 2:
  79:User/Software/remote_control.c ****     default: // 教久⇧鳩隠販採秤趨脅嗤侃尖
  80:User/Software/remote_control.c ****         Motor_Stop();
 194              		.loc 1 80 9
 195 001e FFF7FEFF 		bl	Motor_Stop
  81:User/Software/remote_control.c ****         break;
 196              		.loc 1 81 9
 197 0022 00BF     		nop
 198              	.L14:
  82:User/Software/remote_control.c ****     }
  83:User/Software/remote_control.c **** }
 199              		.loc 1 83 1
 200 0024 00BF     		nop
 201 0026 80BD     		pop	{r7, pc}
 202              	.L17:
 203              		.align	2
 204              	.L16:
 205 0028 00000000 		.word	lift_state
 206              		.cfi_endproc
 207              	.LFE147:
 209              		.section	.text.Up_Down_Motor_Control,"ax",%progbits
 210              		.align	1
 211              		.global	Up_Down_Motor_Control
 212              		.syntax unified
 213              		.thumb
 214              		.thumb_func
ARM GAS  C:\Users\Godwin\AppData\Local\Temp\cc7eGPMH.s 			page 6


 216              	Up_Down_Motor_Control:
 217              	.LFB148:
  84:User/Software/remote_control.c **** void Up_Down_Motor_Control(void)
  85:User/Software/remote_control.c **** {
 218              		.loc 1 85 1
 219              		.cfi_startproc
 220              		@ args = 0, pretend = 0, frame = 0
 221              		@ frame_needed = 1, uses_anonymous_args = 0
 222              		@ link register save eliminated.
 223 0000 80B4     		push	{r7}
 224              	.LCFI8:
 225              		.cfi_def_cfa_offset 4
 226              		.cfi_offset 7, -4
 227 0002 00AF     		add	r7, sp, #0
 228              	.LCFI9:
 229              		.cfi_def_cfa_register 7
  86:User/Software/remote_control.c **** 
  87:User/Software/remote_control.c ****     switch (SBUS_CH.CH7)
 230              		.loc 1 87 20
 231 0004 0D4B     		ldr	r3, .L22
 232 0006 9B89     		ldrh	r3, [r3, #12]
 233              		.loc 1 87 5
 234 0008 40F26112 		movw	r2, #353
 235 000c 9342     		cmp	r3, r2
 236 000e 07D0     		beq	.L19
 237 0010 40F29E62 		movw	r2, #1694
 238 0014 9342     		cmp	r3, r2
 239 0016 07D1     		bne	.L20
  88:User/Software/remote_control.c ****     {
  89:User/Software/remote_control.c ****     case HIGH_VALUE:
  90:User/Software/remote_control.c ****         lift_state = LIFT_UP;
 240              		.loc 1 90 20
 241 0018 094B     		ldr	r3, .L22+4
 242 001a 0022     		movs	r2, #0
 243 001c 1A70     		strb	r2, [r3]
  91:User/Software/remote_control.c ****         break;
 244              		.loc 1 91 9
 245 001e 07E0     		b	.L21
 246              	.L19:
  92:User/Software/remote_control.c ****     case LOW_VALUE:
  93:User/Software/remote_control.c ****         lift_state = LIFT_DOWN;
 247              		.loc 1 93 20
 248 0020 074B     		ldr	r3, .L22+4
 249 0022 0122     		movs	r2, #1
 250 0024 1A70     		strb	r2, [r3]
  94:User/Software/remote_control.c ****          break;
 251              		.loc 1 94 10
 252 0026 03E0     		b	.L21
 253              	.L20:
  95:User/Software/remote_control.c ****     case MID_VALUE:
  96:User/Software/remote_control.c ****     default: // 教久⇧鳩隠販採秤趨脅嗤侃尖
  97:User/Software/remote_control.c ****         lift_state = LIFT_STOP;
 254              		.loc 1 97 20
 255 0028 054B     		ldr	r3, .L22+4
 256 002a 0222     		movs	r2, #2
 257 002c 1A70     		strb	r2, [r3]
  98:User/Software/remote_control.c ****         break;
ARM GAS  C:\Users\Godwin\AppData\Local\Temp\cc7eGPMH.s 			page 7


 258              		.loc 1 98 9
 259 002e 00BF     		nop
 260              	.L21:
  99:User/Software/remote_control.c ****     }
 100:User/Software/remote_control.c **** }
 261              		.loc 1 100 1
 262 0030 00BF     		nop
 263 0032 BD46     		mov	sp, r7
 264              	.LCFI10:
 265              		.cfi_def_cfa_register 13
 266              		@ sp needed
 267 0034 5DF8047B 		ldr	r7, [sp], #4
 268              	.LCFI11:
 269              		.cfi_restore 7
 270              		.cfi_def_cfa_offset 0
 271 0038 7047     		bx	lr
 272              	.L23:
 273 003a 00BF     		.align	2
 274              	.L22:
 275 003c 00000000 		.word	SBUS_CH
 276 0040 00000000 		.word	lift_state
 277              		.cfi_endproc
 278              	.LFE148:
 280              		.section	.text.remote_control_init,"ax",%progbits
 281              		.align	1
 282              		.global	remote_control_init
 283              		.syntax unified
 284              		.thumb
 285              		.thumb_func
 287              	remote_control_init:
 288              	.LFB149:
 101:User/Software/remote_control.c **** 
 102:User/Software/remote_control.c **** void remote_control_init()
 103:User/Software/remote_control.c **** {
 289              		.loc 1 103 1
 290              		.cfi_startproc
 291              		@ args = 0, pretend = 0, frame = 0
 292              		@ frame_needed = 1, uses_anonymous_args = 0
 293 0000 80B5     		push	{r7, lr}
 294              	.LCFI12:
 295              		.cfi_def_cfa_offset 8
 296              		.cfi_offset 7, -8
 297              		.cfi_offset 14, -4
 298 0002 00AF     		add	r7, sp, #0
 299              	.LCFI13:
 300              		.cfi_def_cfa_register 7
 104:User/Software/remote_control.c ****     GPIO_init();
 301              		.loc 1 104 5
 302 0004 FFF7FEFF 		bl	GPIO_init
 105:User/Software/remote_control.c **** 
 106:User/Software/remote_control.c ****     boom_arm_status = ARM_BOOM_OFF; // 字亠越
 303              		.loc 1 106 21
 304 0008 024B     		ldr	r3, .L25
 305 000a 0122     		movs	r2, #1
 306 000c 1A70     		strb	r2, [r3]
 107:User/Software/remote_control.c **** }
 307              		.loc 1 107 1
ARM GAS  C:\Users\Godwin\AppData\Local\Temp\cc7eGPMH.s 			page 8


 308 000e 00BF     		nop
 309 0010 80BD     		pop	{r7, pc}
 310              	.L26:
 311 0012 00BF     		.align	2
 312              	.L25:
 313 0014 00000000 		.word	boom_arm_status
 314              		.cfi_endproc
 315              	.LFE149:
 317              		.section	.text.GPIO_init,"ax",%progbits
 318              		.align	1
 319              		.global	GPIO_init
 320              		.syntax unified
 321              		.thumb
 322              		.thumb_func
 324              	GPIO_init:
 325              	.LFB150:
 108:User/Software/remote_control.c **** 
 109:User/Software/remote_control.c **** void GPIO_init() // 窮徨蝕購兜兵晒
 110:User/Software/remote_control.c **** {
 326              		.loc 1 110 1
 327              		.cfi_startproc
 328              		@ args = 0, pretend = 0, frame = 0
 329              		@ frame_needed = 1, uses_anonymous_args = 0
 330 0000 80B5     		push	{r7, lr}
 331              	.LCFI14:
 332              		.cfi_def_cfa_offset 8
 333              		.cfi_offset 7, -8
 334              		.cfi_offset 14, -4
 335 0002 00AF     		add	r7, sp, #0
 336              	.LCFI15:
 337              		.cfi_def_cfa_register 7
 111:User/Software/remote_control.c ****     HAL_GPIO_WritePin(GPIOD, GPIO_PIN_14, GPIO_PIN_RESET); // PD14//賑叡1
 338              		.loc 1 111 5
 339 0004 0022     		movs	r2, #0
 340 0006 4FF48041 		mov	r1, #16384
 341 000a 1948     		ldr	r0, .L28
 342 000c FFF7FEFF 		bl	HAL_GPIO_WritePin
 112:User/Software/remote_control.c **** 
 113:User/Software/remote_control.c ****     HAL_GPIO_WritePin(GPIOD, GPIO_PIN_15, GPIO_PIN_RESET); // PD15//窮甘熊2
 343              		.loc 1 113 5
 344 0010 0022     		movs	r2, #0
 345 0012 4FF40041 		mov	r1, #32768
 346 0016 1648     		ldr	r0, .L28
 347 0018 FFF7FEFF 		bl	HAL_GPIO_WritePin
 114:User/Software/remote_control.c **** 
 115:User/Software/remote_control.c ****     HAL_GPIO_WritePin(GPIOB, GPIO_PIN_8, GPIO_PIN_RESET); // PB8
 348              		.loc 1 115 5
 349 001c 0022     		movs	r2, #0
 350 001e 4FF48071 		mov	r1, #256
 351 0022 1448     		ldr	r0, .L28+4
 352 0024 FFF7FEFF 		bl	HAL_GPIO_WritePin
 116:User/Software/remote_control.c **** 
 117:User/Software/remote_control.c ****     HAL_GPIO_WritePin(GPIOB, GPIO_PIN_9, GPIO_PIN_RESET); // PB9
 353              		.loc 1 117 5
 354 0028 0022     		movs	r2, #0
 355 002a 4FF40071 		mov	r1, #512
 356 002e 1148     		ldr	r0, .L28+4
ARM GAS  C:\Users\Godwin\AppData\Local\Temp\cc7eGPMH.s 			page 9


 357 0030 FFF7FEFF 		bl	HAL_GPIO_WritePin
 118:User/Software/remote_control.c **** 
 119:User/Software/remote_control.c ****     HAL_GPIO_WritePin(GPIOE, GPIO_PIN_14, GPIO_PIN_RESET); // PE14
 358              		.loc 1 119 5
 359 0034 0022     		movs	r2, #0
 360 0036 4FF48041 		mov	r1, #16384
 361 003a 0F48     		ldr	r0, .L28+8
 362 003c FFF7FEFF 		bl	HAL_GPIO_WritePin
 120:User/Software/remote_control.c **** 
 121:User/Software/remote_control.c ****     HAL_GPIO_WritePin(GPIOE, GPIO_PIN_0, GPIO_PIN_RESET); // PE0⇧恣刈嵩
 363              		.loc 1 121 5
 364 0040 0022     		movs	r2, #0
 365 0042 0121     		movs	r1, #1
 366 0044 0C48     		ldr	r0, .L28+8
 367 0046 FFF7FEFF 		bl	HAL_GPIO_WritePin
 122:User/Software/remote_control.c **** 
 123:User/Software/remote_control.c ****     HAL_GPIO_WritePin(GPIOE, GPIO_PIN_1, GPIO_PIN_RESET); // PE1
 368              		.loc 1 123 5
 369 004a 0022     		movs	r2, #0
 370 004c 0221     		movs	r1, #2
 371 004e 0A48     		ldr	r0, .L28+8
 372 0050 FFF7FEFF 		bl	HAL_GPIO_WritePin
 124:User/Software/remote_control.c **** 
 125:User/Software/remote_control.c ****     HAL_GPIO_WritePin(GPIOC, GPIO_PIN_10, GPIO_PIN_RESET); // PC10 賑叡
 373              		.loc 1 125 5
 374 0054 0022     		movs	r2, #0
 375 0056 4FF48061 		mov	r1, #1024
 376 005a 0848     		ldr	r0, .L28+12
 377 005c FFF7FEFF 		bl	HAL_GPIO_WritePin
 126:User/Software/remote_control.c **** 
 127:User/Software/remote_control.c ****     HAL_GPIO_WritePin(GPIOC, GPIO_PIN_11, GPIO_PIN_RESET); // PC11⇧嘔刈嵩
 378              		.loc 1 127 5
 379 0060 0022     		movs	r2, #0
 380 0062 4FF40061 		mov	r1, #2048
 381 0066 0548     		ldr	r0, .L28+12
 382 0068 FFF7FEFF 		bl	HAL_GPIO_WritePin
 128:User/Software/remote_control.c **** }
 383              		.loc 1 128 1
 384 006c 00BF     		nop
 385 006e 80BD     		pop	{r7, pc}
 386              	.L29:
 387              		.align	2
 388              	.L28:
 389 0070 000C0258 		.word	1476529152
 390 0074 00040258 		.word	1476527104
 391 0078 00100258 		.word	1476530176
 392 007c 00080258 		.word	1476528128
 393              		.cfi_endproc
 394              	.LFE150:
 396              		.text
 397              	.Letext0:
 398              		.file 2 "C:/Users/Godwin/13.2 Rel1/arm-none-eabi/include/machine/_default_types.h"
 399              		.file 3 "C:/Users/Godwin/13.2 Rel1/arm-none-eabi/include/sys/_stdint.h"
 400              		.file 4 "Drivers/CMSIS/Device/ST/STM32H7xx/Include/stm32h723xx.h"
 401              		.file 5 "Drivers/STM32H7xx_HAL_Driver/Inc/stm32h7xx_hal_gpio.h"
 402              		.file 6 "User/Software/remote_control.h"
 403              		.file 7 "User/Hardware/Sbus.h"
ARM GAS  C:\Users\Godwin\AppData\Local\Temp\cc7eGPMH.s 			page 10


ARM GAS  C:\Users\Godwin\AppData\Local\Temp\cc7eGPMH.s 			page 11


DEFINED SYMBOLS
                            *ABS*:00000000 remote_control.c
C:\Users\Godwin\AppData\Local\Temp\cc7eGPMH.s:23     .bss.boom_arm_status:00000000 boom_arm_status
C:\Users\Godwin\AppData\Local\Temp\cc7eGPMH.s:24     .bss.boom_arm_status:00000000 $d
C:\Users\Godwin\AppData\Local\Temp\cc7eGPMH.s:29     .bss.lift_state:00000000 lift_state
C:\Users\Godwin\AppData\Local\Temp\cc7eGPMH.s:30     .bss.lift_state:00000000 $d
C:\Users\Godwin\AppData\Local\Temp\cc7eGPMH.s:32     .text.Motor_Forward:00000000 $t
C:\Users\Godwin\AppData\Local\Temp\cc7eGPMH.s:38     .text.Motor_Forward:00000000 Motor_Forward
C:\Users\Godwin\AppData\Local\Temp\cc7eGPMH.s:68     .text.Motor_Forward:0000001c $d
C:\Users\Godwin\AppData\Local\Temp\cc7eGPMH.s:73     .text.Motor_Reverse:00000000 $t
C:\Users\Godwin\AppData\Local\Temp\cc7eGPMH.s:79     .text.Motor_Reverse:00000000 Motor_Reverse
C:\Users\Godwin\AppData\Local\Temp\cc7eGPMH.s:109    .text.Motor_Reverse:0000001c $d
C:\Users\Godwin\AppData\Local\Temp\cc7eGPMH.s:114    .text.Motor_Stop:00000000 $t
C:\Users\Godwin\AppData\Local\Temp\cc7eGPMH.s:120    .text.Motor_Stop:00000000 Motor_Stop
C:\Users\Godwin\AppData\Local\Temp\cc7eGPMH.s:150    .text.Motor_Stop:0000001c $d
C:\Users\Godwin\AppData\Local\Temp\cc7eGPMH.s:155    .text.Up_Down_Motor_Control_Updata:00000000 $t
C:\Users\Godwin\AppData\Local\Temp\cc7eGPMH.s:161    .text.Up_Down_Motor_Control_Updata:00000000 Up_Down_Motor_Control_Updata
C:\Users\Godwin\AppData\Local\Temp\cc7eGPMH.s:205    .text.Up_Down_Motor_Control_Updata:00000028 $d
C:\Users\Godwin\AppData\Local\Temp\cc7eGPMH.s:210    .text.Up_Down_Motor_Control:00000000 $t
C:\Users\Godwin\AppData\Local\Temp\cc7eGPMH.s:216    .text.Up_Down_Motor_Control:00000000 Up_Down_Motor_Control
C:\Users\Godwin\AppData\Local\Temp\cc7eGPMH.s:275    .text.Up_Down_Motor_Control:0000003c $d
C:\Users\Godwin\AppData\Local\Temp\cc7eGPMH.s:281    .text.remote_control_init:00000000 $t
C:\Users\Godwin\AppData\Local\Temp\cc7eGPMH.s:287    .text.remote_control_init:00000000 remote_control_init
C:\Users\Godwin\AppData\Local\Temp\cc7eGPMH.s:324    .text.GPIO_init:00000000 GPIO_init
C:\Users\Godwin\AppData\Local\Temp\cc7eGPMH.s:313    .text.remote_control_init:00000014 $d
C:\Users\Godwin\AppData\Local\Temp\cc7eGPMH.s:318    .text.GPIO_init:00000000 $t
C:\Users\Godwin\AppData\Local\Temp\cc7eGPMH.s:389    .text.GPIO_init:00000070 $d

UNDEFINED SYMBOLS
HAL_GPIO_WritePin
SBUS_CH
