ARM GAS  C:\Users\Godwin\AppData\Local\Temp\cc96pJU4.s 			page 1


   1              		.cpu cortex-m7
   2              		.arch armv7e-m
   3              		.fpu fpv5-d16
   4              		.eabi_attribute 28, 1
   5              		.eabi_attribute 20, 1
   6              		.eabi_attribute 21, 1
   7              		.eabi_attribute 23, 3
   8              		.eabi_attribute 24, 1
   9              		.eabi_attribute 25, 1
  10              		.eabi_attribute 26, 1
  11              		.eabi_attribute 30, 6
  12              		.eabi_attribute 34, 1
  13              		.eabi_attribute 18, 4
  14              		.file	"remote_control.c"
  15              		.text
  16              	.Ltext0:
  17              		.cfi_sections	.debug_frame
  18              		.file 1 "User/Software/remote_control.c"
  19              		.global	arm_connect_status
  20              		.section	.bss.arm_connect_status,"aw",%nobits
  23              	arm_connect_status:
  24 0000 00       		.space	1
  25              		.global	boom_arm_status
  26              		.section	.bss.boom_arm_status,"aw",%nobits
  29              	boom_arm_status:
  30 0000 00       		.space	1
  31              		.global	boom_storage_status
  32              		.section	.bss.boom_storage_status,"aw",%nobits
  35              	boom_storage_status:
  36 0000 00       		.space	1
  37              		.global	total_angle
  38              		.section	.bss.total_angle,"aw",%nobits
  39              		.align	2
  42              	total_angle:
  43 0000 00000000 		.space	4
  44              		.global	prev_angle
  45              		.section	.bss.prev_angle,"aw",%nobits
  46              		.align	2
  49              	prev_angle:
  50 0000 00000000 		.space	4
  51              		.global	current_angle
  52              		.section	.bss.current_angle,"aw",%nobits
  53              		.align	2
  56              	current_angle:
  57 0000 00000000 		.space	4
  58              		.global	angle_range
  59              		.section	.data.angle_range,"aw"
  60              		.align	2
  63              	angle_range:
  64 0000 0000B443 		.word	1135869952
  65              		.global	sum_arm
  66              		.section	.bss.sum_arm,"aw",%nobits
  67              		.align	2
  70              	sum_arm:
  71 0000 00000000 		.space	4
  72              		.section	.text.Motor_Forward,"ax",%progbits
  73              		.align	1
ARM GAS  C:\Users\Godwin\AppData\Local\Temp\cc96pJU4.s 			page 2


  74              		.global	Motor_Forward
  75              		.syntax unified
  76              		.thumb
  77              		.thumb_func
  79              	Motor_Forward:
  80              	.LFB144:
   1:User/Software/remote_control.c **** #include "remote_control.h"
   2:User/Software/remote_control.c **** #include "ramp_generator.h"
   3:User/Software/remote_control.c **** #include "IMU_updata.h"
   4:User/Software/remote_control.c **** #include "Stm32_time.h"
   5:User/Software/remote_control.c **** #include <tim.h>
   6:User/Software/remote_control.c **** #include "pid.h"
   7:User/Software/remote_control.c **** #include "UART_data_txrx.h"
   8:User/Software/remote_control.c **** 
   9:User/Software/remote_control.c **** 
  10:User/Software/remote_control.c **** #define RELAY1_PIN    GPIO_PIN_0
  11:User/Software/remote_control.c **** #define RELAY1_PORT   GPIOA
  12:User/Software/remote_control.c **** #define RELAY2_PIN    GPIO_PIN_2
  13:User/Software/remote_control.c **** #define RELAY2_PORT   GPIOA
  14:User/Software/remote_control.c **** 
  15:User/Software/remote_control.c **** // 셨든포든틱땍屢：됴든틱뇰랙俱북，멕든틱뙤역
  16:User/Software/remote_control.c **** #define RELAY_ON      GPIO_PIN_RESET  // 셨든포俱북（됴든틱）
  17:User/Software/remote_control.c **** #define RELAY_OFF     GPIO_PIN_SET    // 셨든포뙤역（멕든틱）
  18:User/Software/remote_control.c **** 
  19:User/Software/remote_control.c **** 
  20:User/Software/remote_control.c **** 
  21:User/Software/remote_control.c **** ARM_CONNECT_STATUS arm_connect_status;
  22:User/Software/remote_control.c **** BOOM_ARM_Stats boom_arm_status;         // 샙筠글폭궁榴檄
  23:User/Software/remote_control.c **** BOOM_STORAGE_Stats boom_storage_status; // 뇨웁폭궁榴檄
  24:User/Software/remote_control.c **** #define MOVE_SENSITIVITY 10.0f          // 盧땡쥣츌똑，
  25:User/Software/remote_control.c **** #define PITCH_SENSITIVITY 0.008f        // pitch菉쥣츌똑
  26:User/Software/remote_control.c **** #define YAW_SENSITIVITY 0.005f          // yaw菉쥣츌똑
  27:User/Software/remote_control.c ****                                         // DAMIAO실똑뗍令
  28:User/Software/remote_control.c **** float total_angle = 0.0;                // 悧작생실똑
  29:User/Software/remote_control.c **** float prev_angle = 0.0;                 // 품寧늴뗍혤돨실똑
  30:User/Software/remote_control.c **** float current_angle = 0.0;
  31:User/Software/remote_control.c **** float angle_range = 360.0; // 긍쯤포좆넋
  32:User/Software/remote_control.c **** int sum_arm = 0;
  33:User/Software/remote_control.c **** 
  34:User/Software/remote_control.c **** /**
  35:User/Software/remote_control.c ****  * @brief  왠齡든샙攣瘻
  36:User/Software/remote_control.c ****  * @note   IN1(PA0)=됴든틱（俱북）、IN2(PA1)=멕든틱（뙤역）
  37:User/Software/remote_control.c ****  *         든샙A똥쌈24V+，B똥쌈24V-，攣蕨瘻땡
  38:User/Software/remote_control.c ****  * @param  轟
  39:User/Software/remote_control.c ****  * @retval 轟
  40:User/Software/remote_control.c ****  */
  41:User/Software/remote_control.c **** void Motor_Forward(void)
  42:User/Software/remote_control.c **** {
  81              		.loc 1 42 1
  82              		.cfi_startproc
  83              		@ args = 0, pretend = 0, frame = 0
  84              		@ frame_needed = 1, uses_anonymous_args = 0
  85 0000 80B5     		push	{r7, lr}
  86              	.LCFI0:
  87              		.cfi_def_cfa_offset 8
  88              		.cfi_offset 7, -8
  89              		.cfi_offset 14, -4
ARM GAS  C:\Users\Godwin\AppData\Local\Temp\cc96pJU4.s 			page 3


  90 0002 00AF     		add	r7, sp, #0
  91              	.LCFI1:
  92              		.cfi_def_cfa_register 7
  43:User/Software/remote_control.c ****     // 뒤寧쨌셨든포俱북（됴든틱）
  44:User/Software/remote_control.c ****     HAL_GPIO_WritePin(RELAY1_PORT, RELAY1_PIN, RELAY_ON);
  93              		.loc 1 44 5
  94 0004 0022     		movs	r2, #0
  95 0006 0121     		movs	r1, #1
  96 0008 0448     		ldr	r0, .L2
  97 000a FFF7FEFF 		bl	HAL_GPIO_WritePin
  45:User/Software/remote_control.c ****     // 뒤랗쨌셨든포뙤역（멕든틱）
  46:User/Software/remote_control.c ****     HAL_GPIO_WritePin(RELAY2_PORT, RELAY2_PIN, RELAY_OFF);
  98              		.loc 1 46 5
  99 000e 0122     		movs	r2, #1
 100 0010 0421     		movs	r1, #4
 101 0012 0248     		ldr	r0, .L2
 102 0014 FFF7FEFF 		bl	HAL_GPIO_WritePin
  47:User/Software/remote_control.c **** }
 103              		.loc 1 47 1
 104 0018 00BF     		nop
 105 001a 80BD     		pop	{r7, pc}
 106              	.L3:
 107              		.align	2
 108              	.L2:
 109 001c 00000258 		.word	1476526080
 110              		.cfi_endproc
 111              	.LFE144:
 113              		.section	.text.Motor_Reverse,"ax",%progbits
 114              		.align	1
 115              		.global	Motor_Reverse
 116              		.syntax unified
 117              		.thumb
 118              		.thumb_func
 120              	Motor_Reverse:
 121              	.LFB145:
  48:User/Software/remote_control.c **** 
  49:User/Software/remote_control.c **** /**
  50:User/Software/remote_control.c ****  * @brief  왠齡든샙럽瘻
  51:User/Software/remote_control.c ****  * @note   IN1(PA0)=멕든틱（뙤역）、IN2(PA1)=됴든틱（俱북）
  52:User/Software/remote_control.c ****  *         든샙A똥쌈24V-，B똥쌈24V+，럽蕨瘻땡
  53:User/Software/remote_control.c ****  * @param  轟
  54:User/Software/remote_control.c ****  * @retval 轟
  55:User/Software/remote_control.c ****  */
  56:User/Software/remote_control.c **** void Motor_Reverse(void)
  57:User/Software/remote_control.c **** {
 122              		.loc 1 57 1
 123              		.cfi_startproc
 124              		@ args = 0, pretend = 0, frame = 0
 125              		@ frame_needed = 1, uses_anonymous_args = 0
 126 0000 80B5     		push	{r7, lr}
 127              	.LCFI2:
 128              		.cfi_def_cfa_offset 8
 129              		.cfi_offset 7, -8
 130              		.cfi_offset 14, -4
 131 0002 00AF     		add	r7, sp, #0
 132              	.LCFI3:
 133              		.cfi_def_cfa_register 7
ARM GAS  C:\Users\Godwin\AppData\Local\Temp\cc96pJU4.s 			page 4


  58:User/Software/remote_control.c ****     // 뒤寧쨌셨든포뙤역（멕든틱）
  59:User/Software/remote_control.c ****     HAL_GPIO_WritePin(RELAY1_PORT, RELAY1_PIN, RELAY_OFF);
 134              		.loc 1 59 5
 135 0004 0122     		movs	r2, #1
 136 0006 0121     		movs	r1, #1
 137 0008 0448     		ldr	r0, .L5
 138 000a FFF7FEFF 		bl	HAL_GPIO_WritePin
  60:User/Software/remote_control.c ****     // 뒤랗쨌셨든포俱북（됴든틱）
  61:User/Software/remote_control.c ****     HAL_GPIO_WritePin(RELAY2_PORT, RELAY2_PIN, RELAY_ON);
 139              		.loc 1 61 5
 140 000e 0022     		movs	r2, #0
 141 0010 0421     		movs	r1, #4
 142 0012 0248     		ldr	r0, .L5
 143 0014 FFF7FEFF 		bl	HAL_GPIO_WritePin
  62:User/Software/remote_control.c **** }
 144              		.loc 1 62 1
 145 0018 00BF     		nop
 146 001a 80BD     		pop	{r7, pc}
 147              	.L6:
 148              		.align	2
 149              	.L5:
 150 001c 00000258 		.word	1476526080
 151              		.cfi_endproc
 152              	.LFE145:
 154              		.section	.text.Motor_Stop,"ax",%progbits
 155              		.align	1
 156              		.global	Motor_Stop
 157              		.syntax unified
 158              		.thumb
 159              		.thumb_func
 161              	Motor_Stop:
 162              	.LFB146:
  63:User/Software/remote_control.c **** 
  64:User/Software/remote_control.c **** 
  65:User/Software/remote_control.c **** /**
  66:User/Software/remote_control.c ****  * @brief  왠齡든샙界岺
  67:User/Software/remote_control.c ****  * @note   IN1뵨IN2떼槨멕든틱，좃쨌셨든포떼뙤역，든샙좃똥技왕，界岺瘻땡
  68:User/Software/remote_control.c ****  * @param  轟
  69:User/Software/remote_control.c ****  * @retval 轟
  70:User/Software/remote_control.c ****  */
  71:User/Software/remote_control.c **** void Motor_Stop(void)
  72:User/Software/remote_control.c **** {
 163              		.loc 1 72 1
 164              		.cfi_startproc
 165              		@ args = 0, pretend = 0, frame = 0
 166              		@ frame_needed = 1, uses_anonymous_args = 0
 167 0000 80B5     		push	{r7, lr}
 168              	.LCFI4:
 169              		.cfi_def_cfa_offset 8
 170              		.cfi_offset 7, -8
 171              		.cfi_offset 14, -4
 172 0002 00AF     		add	r7, sp, #0
 173              	.LCFI5:
 174              		.cfi_def_cfa_register 7
  73:User/Software/remote_control.c ****     // 좃쨌셨든포떼뙤역（멕든틱）
  74:User/Software/remote_control.c ****     HAL_GPIO_WritePin(RELAY1_PORT, RELAY1_PIN, RELAY_OFF);
 175              		.loc 1 74 5
ARM GAS  C:\Users\Godwin\AppData\Local\Temp\cc96pJU4.s 			page 5


 176 0004 0122     		movs	r2, #1
 177 0006 0121     		movs	r1, #1
 178 0008 0448     		ldr	r0, .L8
 179 000a FFF7FEFF 		bl	HAL_GPIO_WritePin
  75:User/Software/remote_control.c ****     HAL_GPIO_WritePin(RELAY2_PORT, RELAY2_PIN, RELAY_OFF);
 180              		.loc 1 75 5
 181 000e 0122     		movs	r2, #1
 182 0010 0421     		movs	r1, #4
 183 0012 0248     		ldr	r0, .L8
 184 0014 FFF7FEFF 		bl	HAL_GPIO_WritePin
  76:User/Software/remote_control.c **** }
 185              		.loc 1 76 1
 186 0018 00BF     		nop
 187 001a 80BD     		pop	{r7, pc}
 188              	.L9:
 189              		.align	2
 190              	.L8:
 191 001c 00000258 		.word	1476526080
 192              		.cfi_endproc
 193              	.LFE146:
 195              		.section	.text.Wait,"ax",%progbits
 196              		.align	1
 197              		.global	Wait
 198              		.syntax unified
 199              		.thumb
 200              		.thumb_func
 202              	Wait:
 203              	.LFB147:
  77:User/Software/remote_control.c **** 
  78:User/Software/remote_control.c **** 
  79:User/Software/remote_control.c **** 
  80:User/Software/remote_control.c **** 
  81:User/Software/remote_control.c **** 
  82:User/Software/remote_control.c **** /**
  83:User/Software/remote_control.c ****  * @brief 固寧句떰
  84:User/Software/remote_control.c ****  *
  85:User/Software/remote_control.c ****  * @param key 객숩브
  86:User/Software/remote_control.c ****  * @return uint8_t 0灌돕珂쇌，1돕珂쇌
  87:User/Software/remote_control.c ****  */
  88:User/Software/remote_control.c **** uint8_t Wait(uint8_t key)
  89:User/Software/remote_control.c **** {
 204              		.loc 1 89 1
 205              		.cfi_startproc
 206              		@ args = 0, pretend = 0, frame = 8
 207              		@ frame_needed = 1, uses_anonymous_args = 0
 208              		@ link register save eliminated.
 209 0000 80B4     		push	{r7}
 210              	.LCFI6:
 211              		.cfi_def_cfa_offset 4
 212              		.cfi_offset 7, -4
 213 0002 83B0     		sub	sp, sp, #12
 214              	.LCFI7:
 215              		.cfi_def_cfa_offset 16
 216 0004 00AF     		add	r7, sp, #0
 217              	.LCFI8:
 218              		.cfi_def_cfa_register 7
 219 0006 0346     		mov	r3, r0
ARM GAS  C:\Users\Godwin\AppData\Local\Temp\cc96pJU4.s 			page 6


 220 0008 FB71     		strb	r3, [r7, #7]
  90:User/Software/remote_control.c **** 
  91:User/Software/remote_control.c **** }
 221              		.loc 1 91 1
 222 000a 00BF     		nop
 223 000c 1846     		mov	r0, r3
 224 000e 0C37     		adds	r7, r7, #12
 225              	.LCFI9:
 226              		.cfi_def_cfa_offset 4
 227 0010 BD46     		mov	sp, r7
 228              	.LCFI10:
 229              		.cfi_def_cfa_register 13
 230              		@ sp needed
 231 0012 5DF8047B 		ldr	r7, [sp], #4
 232              	.LCFI11:
 233              		.cfi_restore 7
 234              		.cfi_def_cfa_offset 0
 235 0016 7047     		bx	lr
 236              		.cfi_endproc
 237              	.LFE147:
 239              		.section	.text.remote_control_init,"ax",%progbits
 240              		.align	1
 241              		.global	remote_control_init
 242              		.syntax unified
 243              		.thumb
 244              		.thumb_func
 246              	remote_control_init:
 247              	.LFB148:
  92:User/Software/remote_control.c **** void remote_control_init()
  93:User/Software/remote_control.c **** {
 248              		.loc 1 93 1
 249              		.cfi_startproc
 250              		@ args = 0, pretend = 0, frame = 0
 251              		@ frame_needed = 1, uses_anonymous_args = 0
 252 0000 80B5     		push	{r7, lr}
 253              	.LCFI12:
 254              		.cfi_def_cfa_offset 8
 255              		.cfi_offset 7, -8
 256              		.cfi_offset 14, -4
 257 0002 00AF     		add	r7, sp, #0
 258              	.LCFI13:
 259              		.cfi_def_cfa_register 7
  94:User/Software/remote_control.c ****     GPIO_init();
 260              		.loc 1 94 5
 261 0004 FFF7FEFF 		bl	GPIO_init
  95:User/Software/remote_control.c ****     PWM_control_init();
 262              		.loc 1 95 5
 263 0008 FFF7FEFF 		bl	PWM_control_init
  96:User/Software/remote_control.c ****     boom_storage_status = STORAGE_OFF; // 폭궁
 264              		.loc 1 96 25
 265 000c 034B     		ldr	r3, .L12
 266 000e 0022     		movs	r2, #0
 267 0010 1A70     		strb	r2, [r3]
  97:User/Software/remote_control.c ****     boom_arm_status = ARM_BOOM_OFF;    // 샙筠글
 268              		.loc 1 97 21
 269 0012 034B     		ldr	r3, .L12+4
 270 0014 0122     		movs	r2, #1
ARM GAS  C:\Users\Godwin\AppData\Local\Temp\cc96pJU4.s 			page 7


 271 0016 1A70     		strb	r2, [r3]
  98:User/Software/remote_control.c **** }
 272              		.loc 1 98 1
 273 0018 00BF     		nop
 274 001a 80BD     		pop	{r7, pc}
 275              	.L13:
 276              		.align	2
 277              	.L12:
 278 001c 00000000 		.word	boom_storage_status
 279 0020 00000000 		.word	boom_arm_status
 280              		.cfi_endproc
 281              	.LFE148:
 283              		.section	.text.GPIO_init,"ax",%progbits
 284              		.align	1
 285              		.global	GPIO_init
 286              		.syntax unified
 287              		.thumb
 288              		.thumb_func
 290              	GPIO_init:
 291              	.LFB149:
  99:User/Software/remote_control.c **** 
 100:User/Software/remote_control.c **** void GPIO_init() // 든綾역밑놓迦뺏
 101:User/Software/remote_control.c **** {
 292              		.loc 1 101 1
 293              		.cfi_startproc
 294              		@ args = 0, pretend = 0, frame = 0
 295              		@ frame_needed = 1, uses_anonymous_args = 0
 296 0000 80B5     		push	{r7, lr}
 297              	.LCFI14:
 298              		.cfi_def_cfa_offset 8
 299              		.cfi_offset 7, -8
 300              		.cfi_offset 14, -4
 301 0002 00AF     		add	r7, sp, #0
 302              	.LCFI15:
 303              		.cfi_def_cfa_register 7
 102:User/Software/remote_control.c ****     HAL_GPIO_WritePin(GPIOD, GPIO_PIN_14, GPIO_PIN_RESET); // PD14//폭궁1
 304              		.loc 1 102 5
 305 0004 0022     		movs	r2, #0
 306 0006 4FF48041 		mov	r1, #16384
 307 000a 1E48     		ldr	r0, .L15
 308 000c FFF7FEFF 		bl	HAL_GPIO_WritePin
 103:User/Software/remote_control.c **** 
 104:User/Software/remote_control.c ****     HAL_GPIO_WritePin(GPIOD, GPIO_PIN_15, GPIO_PIN_RESET); // PD15//든늚랫2
 309              		.loc 1 104 5
 310 0010 0022     		movs	r2, #0
 311 0012 4FF40041 		mov	r1, #32768
 312 0016 1B48     		ldr	r0, .L15
 313 0018 FFF7FEFF 		bl	HAL_GPIO_WritePin
 105:User/Software/remote_control.c **** 
 106:User/Software/remote_control.c ****     HAL_GPIO_WritePin(GPIOB, GPIO_PIN_8, GPIO_PIN_RESET); // PB8
 314              		.loc 1 106 5
 315 001c 0022     		movs	r2, #0
 316 001e 4FF48071 		mov	r1, #256
 317 0022 1948     		ldr	r0, .L15+4
 318 0024 FFF7FEFF 		bl	HAL_GPIO_WritePin
 107:User/Software/remote_control.c **** 
 108:User/Software/remote_control.c ****     HAL_GPIO_WritePin(GPIOB, GPIO_PIN_9, GPIO_PIN_RESET); // PB9
ARM GAS  C:\Users\Godwin\AppData\Local\Temp\cc96pJU4.s 			page 8


 319              		.loc 1 108 5
 320 0028 0022     		movs	r2, #0
 321 002a 4FF40071 		mov	r1, #512
 322 002e 1648     		ldr	r0, .L15+4
 323 0030 FFF7FEFF 		bl	HAL_GPIO_WritePin
 109:User/Software/remote_control.c **** 
 110:User/Software/remote_control.c ****     HAL_GPIO_WritePin(GPIOE, GPIO_PIN_14, GPIO_PIN_RESET); // PE14
 324              		.loc 1 110 5
 325 0034 0022     		movs	r2, #0
 326 0036 4FF48041 		mov	r1, #16384
 327 003a 1448     		ldr	r0, .L15+8
 328 003c FFF7FEFF 		bl	HAL_GPIO_WritePin
 111:User/Software/remote_control.c **** 
 112:User/Software/remote_control.c ****     HAL_GPIO_WritePin(GPIOE, GPIO_PIN_0, GPIO_PIN_RESET); // PE0，璘뇨웁
 329              		.loc 1 112 5
 330 0040 0022     		movs	r2, #0
 331 0042 0121     		movs	r1, #1
 332 0044 1148     		ldr	r0, .L15+8
 333 0046 FFF7FEFF 		bl	HAL_GPIO_WritePin
 113:User/Software/remote_control.c **** 
 114:User/Software/remote_control.c ****     HAL_GPIO_WritePin(GPIOE, GPIO_PIN_1, GPIO_PIN_RESET); // PE1
 334              		.loc 1 114 5
 335 004a 0022     		movs	r2, #0
 336 004c 0221     		movs	r1, #2
 337 004e 0F48     		ldr	r0, .L15+8
 338 0050 FFF7FEFF 		bl	HAL_GPIO_WritePin
 115:User/Software/remote_control.c **** 
 116:User/Software/remote_control.c ****     HAL_GPIO_WritePin(GPIOC, GPIO_PIN_10, GPIO_PIN_RESET); // PC10 폭궁
 339              		.loc 1 116 5
 340 0054 0022     		movs	r2, #0
 341 0056 4FF48061 		mov	r1, #1024
 342 005a 0D48     		ldr	r0, .L15+12
 343 005c FFF7FEFF 		bl	HAL_GPIO_WritePin
 117:User/Software/remote_control.c **** 
 118:User/Software/remote_control.c ****     HAL_GPIO_WritePin(GPIOC, GPIO_PIN_11, GPIO_PIN_RESET); // PC11，塘뇨웁
 344              		.loc 1 118 5
 345 0060 0022     		movs	r2, #0
 346 0062 4FF40061 		mov	r1, #2048
 347 0066 0A48     		ldr	r0, .L15+12
 348 0068 FFF7FEFF 		bl	HAL_GPIO_WritePin
 119:User/Software/remote_control.c **** 
 120:User/Software/remote_control.c ****     HAL_GPIO_WritePin (GPIOA,GPIO_PIN_0,GPIO_PIN_RESET);
 349              		.loc 1 120 5
 350 006c 0022     		movs	r2, #0
 351 006e 0121     		movs	r1, #1
 352 0070 0848     		ldr	r0, .L15+16
 353 0072 FFF7FEFF 		bl	HAL_GPIO_WritePin
 121:User/Software/remote_control.c ****     HAL_GPIO_WritePin (GPIOA,GPIO_PIN_1,GPIO_PIN_RESET);
 354              		.loc 1 121 5
 355 0076 0022     		movs	r2, #0
 356 0078 0221     		movs	r1, #2
 357 007a 0648     		ldr	r0, .L15+16
 358 007c FFF7FEFF 		bl	HAL_GPIO_WritePin
 122:User/Software/remote_control.c **** }
 359              		.loc 1 122 1
 360 0080 00BF     		nop
 361 0082 80BD     		pop	{r7, pc}
ARM GAS  C:\Users\Godwin\AppData\Local\Temp\cc96pJU4.s 			page 9


 362              	.L16:
 363              		.align	2
 364              	.L15:
 365 0084 000C0258 		.word	1476529152
 366 0088 00040258 		.word	1476527104
 367 008c 00100258 		.word	1476530176
 368 0090 00080258 		.word	1476528128
 369 0094 00000258 		.word	1476526080
 370              		.cfi_endproc
 371              	.LFE149:
 373              		.section	.text.PWM_control_init,"ax",%progbits
 374              		.align	1
 375              		.global	PWM_control_init
 376              		.syntax unified
 377              		.thumb
 378              		.thumb_func
 380              	PWM_control_init:
 381              	.LFB150:
 123:User/Software/remote_control.c **** 
 124:User/Software/remote_control.c **** void PWM_control_init() // 뜻샙暾憩놓迦뺏
 125:User/Software/remote_control.c **** {
 382              		.loc 1 125 1
 383              		.cfi_startproc
 384              		@ args = 0, pretend = 0, frame = 0
 385              		@ frame_needed = 1, uses_anonymous_args = 0
 386              		@ link register save eliminated.
 387 0000 80B4     		push	{r7}
 388              	.LCFI16:
 389              		.cfi_def_cfa_offset 4
 390              		.cfi_offset 7, -4
 391 0002 00AF     		add	r7, sp, #0
 392              	.LCFI17:
 393              		.cfi_def_cfa_register 7
 126:User/Software/remote_control.c **** 
 127:User/Software/remote_control.c **** }
 394              		.loc 1 127 1
 395 0004 00BF     		nop
 396 0006 BD46     		mov	sp, r7
 397              	.LCFI18:
 398              		.cfi_def_cfa_register 13
 399              		@ sp needed
 400 0008 5DF8047B 		ldr	r7, [sp], #4
 401              	.LCFI19:
 402              		.cfi_restore 7
 403              		.cfi_def_cfa_offset 0
 404 000c 7047     		bx	lr
 405              		.cfi_endproc
 406              	.LFE150:
 408              		.section	.text.VT13toRCdata,"ax",%progbits
 409              		.align	1
 410              		.global	VT13toRCdata
 411              		.syntax unified
 412              		.thumb
 413              		.thumb_func
 415              	VT13toRCdata:
 416              	.LFB151:
 128:User/Software/remote_control.c **** 
ARM GAS  C:\Users\Godwin\AppData\Local\Temp\cc96pJU4.s 			page 10


 129:User/Software/remote_control.c **** void VT13toRCdata()
 130:User/Software/remote_control.c **** {
 417              		.loc 1 130 1
 418              		.cfi_startproc
 419              		@ args = 0, pretend = 0, frame = 0
 420              		@ frame_needed = 1, uses_anonymous_args = 0
 421              		@ link register save eliminated.
 422 0000 80B4     		push	{r7}
 423              	.LCFI20:
 424              		.cfi_def_cfa_offset 4
 425              		.cfi_offset 7, -4
 426 0002 00AF     		add	r7, sp, #0
 427              	.LCFI21:
 428              		.cfi_def_cfa_register 7
 131:User/Software/remote_control.c **** 
 132:User/Software/remote_control.c **** 
 133:User/Software/remote_control.c **** }
 429              		.loc 1 133 1
 430 0004 00BF     		nop
 431 0006 BD46     		mov	sp, r7
 432              	.LCFI22:
 433              		.cfi_def_cfa_register 13
 434              		@ sp needed
 435 0008 5DF8047B 		ldr	r7, [sp], #4
 436              	.LCFI23:
 437              		.cfi_restore 7
 438              		.cfi_def_cfa_offset 0
 439 000c 7047     		bx	lr
 440              		.cfi_endproc
 441              	.LFE151:
 443              		.section	.text.key_mouse_control,"ax",%progbits
 444              		.align	1
 445              		.global	key_mouse_control
 446              		.syntax unified
 447              		.thumb
 448              		.thumb_func
 450              	key_mouse_control:
 451              	.LFB152:
 134:User/Software/remote_control.c **** void key_mouse_control() // 숩턍柑깃친駕+菱땍屢왠齡포
 135:User/Software/remote_control.c **** {
 452              		.loc 1 135 1
 453              		.cfi_startproc
 454              		@ args = 0, pretend = 0, frame = 0
 455              		@ frame_needed = 1, uses_anonymous_args = 0
 456              		@ link register save eliminated.
 457 0000 80B4     		push	{r7}
 458              	.LCFI24:
 459              		.cfi_def_cfa_offset 4
 460              		.cfi_offset 7, -4
 461 0002 00AF     		add	r7, sp, #0
 462              	.LCFI25:
 463              		.cfi_def_cfa_register 7
 136:User/Software/remote_control.c **** }
 464              		.loc 1 136 1
 465 0004 00BF     		nop
 466 0006 BD46     		mov	sp, r7
 467              	.LCFI26:
ARM GAS  C:\Users\Godwin\AppData\Local\Temp\cc96pJU4.s 			page 11


 468              		.cfi_def_cfa_register 13
 469              		@ sp needed
 470 0008 5DF8047B 		ldr	r7, [sp], #4
 471              	.LCFI27:
 472              		.cfi_restore 7
 473              		.cfi_def_cfa_offset 0
 474 000c 7047     		bx	lr
 475              		.cfi_endproc
 476              	.LFE152:
 478              		.section	.text.ARM_CONNECT_STATUS_UPDATA,"ax",%progbits
 479              		.align	1
 480              		.global	ARM_CONNECT_STATUS_UPDATA
 481              		.syntax unified
 482              		.thumb
 483              		.thumb_func
 485              	ARM_CONNECT_STATUS_UPDATA:
 486              	.LFB153:
 137:User/Software/remote_control.c **** void ARM_CONNECT_STATUS_UPDATA()
 138:User/Software/remote_control.c **** {
 487              		.loc 1 138 1
 488              		.cfi_startproc
 489              		@ args = 0, pretend = 0, frame = 0
 490              		@ frame_needed = 1, uses_anonymous_args = 0
 491              		@ link register save eliminated.
 492 0000 80B4     		push	{r7}
 493              	.LCFI28:
 494              		.cfi_def_cfa_offset 4
 495              		.cfi_offset 7, -4
 496 0002 00AF     		add	r7, sp, #0
 497              	.LCFI29:
 498              		.cfi_def_cfa_register 7
 139:User/Software/remote_control.c ****  
 140:User/Software/remote_control.c **** 
 141:User/Software/remote_control.c ****     
 142:User/Software/remote_control.c **** }
 499              		.loc 1 142 1
 500 0004 00BF     		nop
 501 0006 BD46     		mov	sp, r7
 502              	.LCFI30:
 503              		.cfi_def_cfa_register 13
 504              		@ sp needed
 505 0008 5DF8047B 		ldr	r7, [sp], #4
 506              	.LCFI31:
 507              		.cfi_restore 7
 508              		.cfi_def_cfa_offset 0
 509 000c 7047     		bx	lr
 510              		.cfi_endproc
 511              	.LFE153:
 513              		.section	.text.RC_Control,"ax",%progbits
 514              		.align	1
 515              		.global	RC_Control
 516              		.syntax unified
 517              		.thumb
 518              		.thumb_func
 520              	RC_Control:
 521              	.LFB154:
 143:User/Software/remote_control.c **** //////////蠟왠포왠齡////////////////
ARM GAS  C:\Users\Godwin\AppData\Local\Temp\cc96pJU4.s 			page 12


 144:User/Software/remote_control.c **** void RC_Control(void)
 145:User/Software/remote_control.c **** {
 522              		.loc 1 145 1
 523              		.cfi_startproc
 524              		@ args = 0, pretend = 0, frame = 0
 525              		@ frame_needed = 1, uses_anonymous_args = 0
 526              		@ link register save eliminated.
 527 0000 80B4     		push	{r7}
 528              	.LCFI32:
 529              		.cfi_def_cfa_offset 4
 530              		.cfi_offset 7, -4
 531 0002 00AF     		add	r7, sp, #0
 532              	.LCFI33:
 533              		.cfi_def_cfa_register 7
 146:User/Software/remote_control.c **** 
 147:User/Software/remote_control.c ****     
 148:User/Software/remote_control.c **** }
 534              		.loc 1 148 1
 535 0004 00BF     		nop
 536 0006 BD46     		mov	sp, r7
 537              	.LCFI34:
 538              		.cfi_def_cfa_register 13
 539              		@ sp needed
 540 0008 5DF8047B 		ldr	r7, [sp], #4
 541              	.LCFI35:
 542              		.cfi_restore 7
 543              		.cfi_def_cfa_offset 0
 544 000c 7047     		bx	lr
 545              		.cfi_endproc
 546              	.LFE154:
 548              		.section	.text.start,"ax",%progbits
 549              		.align	1
 550              		.global	start
 551              		.syntax unified
 552              		.thumb
 553              		.thumb_func
 555              	start:
 556              	.LFB155:
 149:User/Software/remote_control.c **** ///////////////////////////폘땡변鑒///////////////////////////
 150:User/Software/remote_control.c **** void start()
 151:User/Software/remote_control.c **** {
 557              		.loc 1 151 1
 558              		.cfi_startproc
 559              		@ args = 0, pretend = 0, frame = 0
 560              		@ frame_needed = 1, uses_anonymous_args = 0
 561              		@ link register save eliminated.
 562 0000 80B4     		push	{r7}
 563              	.LCFI36:
 564              		.cfi_def_cfa_offset 4
 565              		.cfi_offset 7, -4
 566 0002 00AF     		add	r7, sp, #0
 567              	.LCFI37:
 568              		.cfi_def_cfa_register 7
 152:User/Software/remote_control.c ****     
 153:User/Software/remote_control.c ****     // }
 154:User/Software/remote_control.c **** }
 569              		.loc 1 154 1
ARM GAS  C:\Users\Godwin\AppData\Local\Temp\cc96pJU4.s 			page 13


 570 0004 00BF     		nop
 571 0006 BD46     		mov	sp, r7
 572              	.LCFI38:
 573              		.cfi_def_cfa_register 13
 574              		@ sp needed
 575 0008 5DF8047B 		ldr	r7, [sp], #4
 576              	.LCFI39:
 577              		.cfi_restore 7
 578              		.cfi_def_cfa_offset 0
 579 000c 7047     		bx	lr
 580              		.cfi_endproc
 581              	.LFE155:
 583              		.section	.text.YAWFLOW_POS,"ax",%progbits
 584              		.align	1
 585              		.global	YAWFLOW_POS
 586              		.syntax unified
 587              		.thumb
 588              		.thumb_func
 590              	YAWFLOW_POS:
 591              	.LFB156:
 155:User/Software/remote_control.c **** 
 156:User/Software/remote_control.c **** void YAWFLOW_POS()
 157:User/Software/remote_control.c **** {
 592              		.loc 1 157 1
 593              		.cfi_startproc
 594              		@ args = 0, pretend = 0, frame = 0
 595              		@ frame_needed = 1, uses_anonymous_args = 0
 596              		@ link register save eliminated.
 597 0000 80B4     		push	{r7}
 598              	.LCFI40:
 599              		.cfi_def_cfa_offset 4
 600              		.cfi_offset 7, -4
 601 0002 00AF     		add	r7, sp, #0
 602              	.LCFI41:
 603              		.cfi_def_cfa_register 7
 158:User/Software/remote_control.c **** 
 159:User/Software/remote_control.c **** }
 604              		.loc 1 159 1
 605 0004 00BF     		nop
 606 0006 BD46     		mov	sp, r7
 607              	.LCFI42:
 608              		.cfi_def_cfa_register 13
 609              		@ sp needed
 610 0008 5DF8047B 		ldr	r7, [sp], #4
 611              	.LCFI43:
 612              		.cfi_restore 7
 613              		.cfi_def_cfa_offset 0
 614 000c 7047     		bx	lr
 615              		.cfi_endproc
 616              	.LFE156:
 618              		.section	.text.disable_all,"ax",%progbits
 619              		.align	1
 620              		.global	disable_all
 621              		.syntax unified
 622              		.thumb
 623              		.thumb_func
 625              	disable_all:
ARM GAS  C:\Users\Godwin\AppData\Local\Temp\cc96pJU4.s 			page 14


 626              	.LFB157:
 160:User/Software/remote_control.c **** 
 161:User/Software/remote_control.c **** //////////////////////홍꼬呵콘，렝岺룩났//////////////////////////////
 162:User/Software/remote_control.c **** void disable_all()
 163:User/Software/remote_control.c **** {
 627              		.loc 1 163 1
 628              		.cfi_startproc
 629              		@ args = 0, pretend = 0, frame = 0
 630              		@ frame_needed = 1, uses_anonymous_args = 0
 631              		@ link register save eliminated.
 632 0000 80B4     		push	{r7}
 633              	.LCFI44:
 634              		.cfi_def_cfa_offset 4
 635              		.cfi_offset 7, -4
 636 0002 00AF     		add	r7, sp, #0
 637              	.LCFI45:
 638              		.cfi_def_cfa_register 7
 164:User/Software/remote_control.c **** 
 165:User/Software/remote_control.c ****    
 166:User/Software/remote_control.c **** }
 639              		.loc 1 166 1
 640 0004 00BF     		nop
 641 0006 BD46     		mov	sp, r7
 642              	.LCFI46:
 643              		.cfi_def_cfa_register 13
 644              		@ sp needed
 645 0008 5DF8047B 		ldr	r7, [sp], #4
 646              	.LCFI47:
 647              		.cfi_restore 7
 648              		.cfi_def_cfa_offset 0
 649 000c 7047     		bx	lr
 650              		.cfi_endproc
 651              	.LFE157:
 653              		.section	.text.enable_all,"ax",%progbits
 654              		.align	1
 655              		.global	enable_all
 656              		.syntax unified
 657              		.thumb
 658              		.thumb_func
 660              	enable_all:
 661              	.LFB158:
 167:User/Software/remote_control.c **** 
 168:User/Software/remote_control.c **** 
 169:User/Software/remote_control.c **** void enable_all()
 170:User/Software/remote_control.c **** {
 662              		.loc 1 170 1
 663              		.cfi_startproc
 664              		@ args = 0, pretend = 0, frame = 0
 665              		@ frame_needed = 1, uses_anonymous_args = 0
 666              		@ link register save eliminated.
 667 0000 80B4     		push	{r7}
 668              	.LCFI48:
 669              		.cfi_def_cfa_offset 4
 670              		.cfi_offset 7, -4
 671 0002 00AF     		add	r7, sp, #0
 672              	.LCFI49:
 673              		.cfi_def_cfa_register 7
ARM GAS  C:\Users\Godwin\AppData\Local\Temp\cc96pJU4.s 			page 15


 171:User/Software/remote_control.c **** 
 172:User/Software/remote_control.c **** 
 173:User/Software/remote_control.c **** }
 674              		.loc 1 173 1
 675 0004 00BF     		nop
 676 0006 BD46     		mov	sp, r7
 677              	.LCFI50:
 678              		.cfi_def_cfa_register 13
 679              		@ sp needed
 680 0008 5DF8047B 		ldr	r7, [sp], #4
 681              	.LCFI51:
 682              		.cfi_restore 7
 683              		.cfi_def_cfa_offset 0
 684 000c 7047     		bx	lr
 685              		.cfi_endproc
 686              	.LFE158:
 688              		.section	.text.switch_servos,"ax",%progbits
 689              		.align	1
 690              		.global	switch_servos
 691              		.syntax unified
 692              		.thumb
 693              		.thumb_func
 695              	switch_servos:
 696              	.LFB159:
 174:User/Software/remote_control.c **** 
 175:User/Software/remote_control.c **** void switch_servos()
 176:User/Software/remote_control.c **** {
 697              		.loc 1 176 1
 698              		.cfi_startproc
 699              		@ args = 0, pretend = 0, frame = 0
 700              		@ frame_needed = 1, uses_anonymous_args = 0
 701              		@ link register save eliminated.
 702 0000 80B4     		push	{r7}
 703              	.LCFI52:
 704              		.cfi_def_cfa_offset 4
 705              		.cfi_offset 7, -4
 706 0002 00AF     		add	r7, sp, #0
 707              	.LCFI53:
 708              		.cfi_def_cfa_register 7
 177:User/Software/remote_control.c **** 
 178:User/Software/remote_control.c **** 
 179:User/Software/remote_control.c **** }...
 709              		.loc 1 179 1
 710 0004 00BF     		nop
 711 0006 BD46     		mov	sp, r7
 712              	.LCFI54:
 713              		.cfi_def_cfa_register 13
 714              		@ sp needed
 715 0008 5DF8047B 		ldr	r7, [sp], #4
 716              	.LCFI55:
 717              		.cfi_restore 7
 718              		.cfi_def_cfa_offset 0
 719 000c 7047     		bx	lr
 720              		.cfi_endproc
 721              	.LFE159:
 723              		.text
 724              	.Letext0:
ARM GAS  C:\Users\Godwin\AppData\Local\Temp\cc96pJU4.s 			page 16


 725              		.file 2 "C:/Users/Godwin/13.2 Rel1/arm-none-eabi/include/machine/_default_types.h"
 726              		.file 3 "C:/Users/Godwin/13.2 Rel1/arm-none-eabi/include/sys/_stdint.h"
 727              		.file 4 "Drivers/CMSIS/Device/ST/STM32H7xx/Include/stm32h723xx.h"
 728              		.file 5 "Drivers/STM32H7xx_HAL_Driver/Inc/stm32h7xx_hal_gpio.h"
 729              		.file 6 "User/Software/remote_control.h"
ARM GAS  C:\Users\Godwin\AppData\Local\Temp\cc96pJU4.s 			page 17


DEFINED SYMBOLS
                            *ABS*:00000000 remote_control.c
C:\Users\Godwin\AppData\Local\Temp\cc96pJU4.s:23     .bss.arm_connect_status:00000000 arm_connect_status
C:\Users\Godwin\AppData\Local\Temp\cc96pJU4.s:24     .bss.arm_connect_status:00000000 $d
C:\Users\Godwin\AppData\Local\Temp\cc96pJU4.s:29     .bss.boom_arm_status:00000000 boom_arm_status
C:\Users\Godwin\AppData\Local\Temp\cc96pJU4.s:30     .bss.boom_arm_status:00000000 $d
C:\Users\Godwin\AppData\Local\Temp\cc96pJU4.s:35     .bss.boom_storage_status:00000000 boom_storage_status
C:\Users\Godwin\AppData\Local\Temp\cc96pJU4.s:36     .bss.boom_storage_status:00000000 $d
C:\Users\Godwin\AppData\Local\Temp\cc96pJU4.s:42     .bss.total_angle:00000000 total_angle
C:\Users\Godwin\AppData\Local\Temp\cc96pJU4.s:39     .bss.total_angle:00000000 $d
C:\Users\Godwin\AppData\Local\Temp\cc96pJU4.s:49     .bss.prev_angle:00000000 prev_angle
C:\Users\Godwin\AppData\Local\Temp\cc96pJU4.s:46     .bss.prev_angle:00000000 $d
C:\Users\Godwin\AppData\Local\Temp\cc96pJU4.s:56     .bss.current_angle:00000000 current_angle
C:\Users\Godwin\AppData\Local\Temp\cc96pJU4.s:53     .bss.current_angle:00000000 $d
C:\Users\Godwin\AppData\Local\Temp\cc96pJU4.s:63     .data.angle_range:00000000 angle_range
C:\Users\Godwin\AppData\Local\Temp\cc96pJU4.s:60     .data.angle_range:00000000 $d
C:\Users\Godwin\AppData\Local\Temp\cc96pJU4.s:70     .bss.sum_arm:00000000 sum_arm
C:\Users\Godwin\AppData\Local\Temp\cc96pJU4.s:67     .bss.sum_arm:00000000 $d
C:\Users\Godwin\AppData\Local\Temp\cc96pJU4.s:73     .text.Motor_Forward:00000000 $t
C:\Users\Godwin\AppData\Local\Temp\cc96pJU4.s:79     .text.Motor_Forward:00000000 Motor_Forward
C:\Users\Godwin\AppData\Local\Temp\cc96pJU4.s:109    .text.Motor_Forward:0000001c $d
C:\Users\Godwin\AppData\Local\Temp\cc96pJU4.s:114    .text.Motor_Reverse:00000000 $t
C:\Users\Godwin\AppData\Local\Temp\cc96pJU4.s:120    .text.Motor_Reverse:00000000 Motor_Reverse
C:\Users\Godwin\AppData\Local\Temp\cc96pJU4.s:150    .text.Motor_Reverse:0000001c $d
C:\Users\Godwin\AppData\Local\Temp\cc96pJU4.s:155    .text.Motor_Stop:00000000 $t
C:\Users\Godwin\AppData\Local\Temp\cc96pJU4.s:161    .text.Motor_Stop:00000000 Motor_Stop
C:\Users\Godwin\AppData\Local\Temp\cc96pJU4.s:191    .text.Motor_Stop:0000001c $d
C:\Users\Godwin\AppData\Local\Temp\cc96pJU4.s:196    .text.Wait:00000000 $t
C:\Users\Godwin\AppData\Local\Temp\cc96pJU4.s:202    .text.Wait:00000000 Wait
C:\Users\Godwin\AppData\Local\Temp\cc96pJU4.s:240    .text.remote_control_init:00000000 $t
C:\Users\Godwin\AppData\Local\Temp\cc96pJU4.s:246    .text.remote_control_init:00000000 remote_control_init
C:\Users\Godwin\AppData\Local\Temp\cc96pJU4.s:290    .text.GPIO_init:00000000 GPIO_init
C:\Users\Godwin\AppData\Local\Temp\cc96pJU4.s:380    .text.PWM_control_init:00000000 PWM_control_init
C:\Users\Godwin\AppData\Local\Temp\cc96pJU4.s:278    .text.remote_control_init:0000001c $d
C:\Users\Godwin\AppData\Local\Temp\cc96pJU4.s:284    .text.GPIO_init:00000000 $t
C:\Users\Godwin\AppData\Local\Temp\cc96pJU4.s:365    .text.GPIO_init:00000084 $d
C:\Users\Godwin\AppData\Local\Temp\cc96pJU4.s:374    .text.PWM_control_init:00000000 $t
C:\Users\Godwin\AppData\Local\Temp\cc96pJU4.s:409    .text.VT13toRCdata:00000000 $t
C:\Users\Godwin\AppData\Local\Temp\cc96pJU4.s:415    .text.VT13toRCdata:00000000 VT13toRCdata
C:\Users\Godwin\AppData\Local\Temp\cc96pJU4.s:444    .text.key_mouse_control:00000000 $t
C:\Users\Godwin\AppData\Local\Temp\cc96pJU4.s:450    .text.key_mouse_control:00000000 key_mouse_control
C:\Users\Godwin\AppData\Local\Temp\cc96pJU4.s:479    .text.ARM_CONNECT_STATUS_UPDATA:00000000 $t
C:\Users\Godwin\AppData\Local\Temp\cc96pJU4.s:485    .text.ARM_CONNECT_STATUS_UPDATA:00000000 ARM_CONNECT_STATUS_UPDATA
C:\Users\Godwin\AppData\Local\Temp\cc96pJU4.s:514    .text.RC_Control:00000000 $t
C:\Users\Godwin\AppData\Local\Temp\cc96pJU4.s:520    .text.RC_Control:00000000 RC_Control
C:\Users\Godwin\AppData\Local\Temp\cc96pJU4.s:549    .text.start:00000000 $t
C:\Users\Godwin\AppData\Local\Temp\cc96pJU4.s:555    .text.start:00000000 start
C:\Users\Godwin\AppData\Local\Temp\cc96pJU4.s:584    .text.YAWFLOW_POS:00000000 $t
C:\Users\Godwin\AppData\Local\Temp\cc96pJU4.s:590    .text.YAWFLOW_POS:00000000 YAWFLOW_POS
C:\Users\Godwin\AppData\Local\Temp\cc96pJU4.s:619    .text.disable_all:00000000 $t
C:\Users\Godwin\AppData\Local\Temp\cc96pJU4.s:625    .text.disable_all:00000000 disable_all
C:\Users\Godwin\AppData\Local\Temp\cc96pJU4.s:654    .text.enable_all:00000000 $t
C:\Users\Godwin\AppData\Local\Temp\cc96pJU4.s:660    .text.enable_all:00000000 enable_all
C:\Users\Godwin\AppData\Local\Temp\cc96pJU4.s:689    .text.switch_servos:00000000 $t
C:\Users\Godwin\AppData\Local\Temp\cc96pJU4.s:695    .text.switch_servos:00000000 switch_servos

UNDEFINED SYMBOLS
ARM GAS  C:\Users\Godwin\AppData\Local\Temp\cc96pJU4.s 			page 18


HAL_GPIO_WritePin
