ARM GAS  C:\Users\Administrator\AppData\Local\Temp\ccWoAw79.s 			page 1


   1              		.cpu cortex-m7
   2              		.arch armv7e-m
   3              		.fpu fpv5-d16
   4              		.eabi_attribute 28, 1
   5              		.eabi_attribute 20, 1
   6              		.eabi_attribute 21, 1
   7              		.eabi_attribute 23, 3
   8              		.eabi_attribute 24, 1
   9              		.eabi_attribute 25, 1
  10              		.eabi_attribute 26, 1
  11              		.eabi_attribute 30, 6
  12              		.eabi_attribute 34, 1
  13              		.eabi_attribute 18, 4
  14              		.file	"remote_control.c"
  15              		.text
  16              	.Ltext0:
  17              		.cfi_sections	.debug_frame
  18              		.file 1 "User/Software/remote_control.c"
  19              		.section	.text.remote_control_init,"ax",%progbits
  20              		.align	1
  21              		.global	remote_control_init
  22              		.syntax unified
  23              		.thumb
  24              		.thumb_func
  26              	remote_control_init:
  27              	.LFB147:
   1:User/Software/remote_control.c **** #include "remote_control.h"
   2:User/Software/remote_control.c **** #include "ramp_generator.h"
   3:User/Software/remote_control.c **** #include "IMU_updata.h"
   4:User/Software/remote_control.c **** #include "Stm32_time.h"
   5:User/Software/remote_control.c **** #include <tim.h>
   6:User/Software/remote_control.c **** #include "pid.h"
   7:User/Software/remote_control.c **** #include "UART_data_txrx.h"
   8:User/Software/remote_control.c **** #include "Sbus.h"
   9:User/Software/remote_control.c **** #include "head.h"
  10:User/Software/remote_control.c **** #include "arm.h"
  11:User/Software/remote_control.c **** #include "lift_control.h"
  12:User/Software/remote_control.c **** #include "pump_control.h"
  13:User/Software/remote_control.c **** #include "arm_sv.h"
  14:User/Software/remote_control.c **** #include "uart_protocol.h" // 添加PC通信协议头文件
  15:User/Software/remote_control.c **** 
  16:User/Software/remote_control.c **** // 遥控器值
  17:User/Software/remote_control.c **** #define LOW_VALUE 353
  18:User/Software/remote_control.c **** #define MID_VALUE 1024
  19:User/Software/remote_control.c **** #define HIGH_VALUE 1694
  20:User/Software/remote_control.c **** #define RANGE 50
  21:User/Software/remote_control.c **** 
  22:User/Software/remote_control.c **** void remote_control_init()
  23:User/Software/remote_control.c **** {
  28              		.loc 1 23 1
  29              		.cfi_startproc
  30              		@ args = 0, pretend = 0, frame = 0
  31              		@ frame_needed = 1, uses_anonymous_args = 0
  32              		@ link register save eliminated.
  33 0000 80B4     		push	{r7}
  34              	.LCFI0:
  35              		.cfi_def_cfa_offset 4
ARM GAS  C:\Users\Administrator\AppData\Local\Temp\ccWoAw79.s 			page 2


  36              		.cfi_offset 7, -4
  37 0002 00AF     		add	r7, sp, #0
  38              	.LCFI1:
  39              		.cfi_def_cfa_register 7
  24:User/Software/remote_control.c **** }
  40              		.loc 1 24 1
  41 0004 00BF     		nop
  42 0006 BD46     		mov	sp, r7
  43              	.LCFI2:
  44              		.cfi_def_cfa_register 13
  45              		@ sp needed
  46 0008 5DF8047B 		ldr	r7, [sp], #4
  47              	.LCFI3:
  48              		.cfi_restore 7
  49              		.cfi_def_cfa_offset 0
  50 000c 7047     		bx	lr
  51              		.cfi_endproc
  52              	.LFE147:
  54              		.section	.text.Pump_Control_Updata,"ax",%progbits
  55              		.align	1
  56              		.global	Pump_Control_Updata
  57              		.syntax unified
  58              		.thumb
  59              		.thumb_func
  61              	Pump_Control_Updata:
  62              	.LFB148:
  25:User/Software/remote_control.c **** 
  26:User/Software/remote_control.c **** void Pump_Control_Updata(void)
  27:User/Software/remote_control.c **** {
  63              		.loc 1 27 1
  64              		.cfi_startproc
  65              		@ args = 0, pretend = 0, frame = 0
  66              		@ frame_needed = 1, uses_anonymous_args = 0
  67              		@ link register save eliminated.
  68 0000 80B4     		push	{r7}
  69              	.LCFI4:
  70              		.cfi_def_cfa_offset 4
  71              		.cfi_offset 7, -4
  72 0002 00AF     		add	r7, sp, #0
  73              	.LCFI5:
  74              		.cfi_def_cfa_register 7
  28:User/Software/remote_control.c ****     if (SBUS_CH.CH8 == HIGH_VALUE)
  75              		.loc 1 28 16
  76 0004 0B4B     		ldr	r3, .L6
  77 0006 DB89     		ldrh	r3, [r3, #14]
  78              		.loc 1 28 8
  79 0008 40F29E62 		movw	r2, #1694
  80 000c 9342     		cmp	r3, r2
  81 000e 03D1     		bne	.L3
  29:User/Software/remote_control.c ****     {
  30:User/Software/remote_control.c ****         pump_state = PUMP_ON;
  82              		.loc 1 30 20
  83 0010 094B     		ldr	r3, .L6+4
  84 0012 0122     		movs	r2, #1
  85 0014 1A70     		strb	r2, [r3]
  31:User/Software/remote_control.c ****     }
  32:User/Software/remote_control.c ****     else if (SBUS_CH.CH8 == LOW_VALUE)
ARM GAS  C:\Users\Administrator\AppData\Local\Temp\ccWoAw79.s 			page 3


  33:User/Software/remote_control.c ****     {
  34:User/Software/remote_control.c ****         pump_state = PUMP_OFF;
  35:User/Software/remote_control.c ****     }
  36:User/Software/remote_control.c **** }
  86              		.loc 1 36 1
  87 0016 08E0     		b	.L5
  88              	.L3:
  32:User/Software/remote_control.c ****     {
  89              		.loc 1 32 21
  90 0018 064B     		ldr	r3, .L6
  91 001a DB89     		ldrh	r3, [r3, #14]
  32:User/Software/remote_control.c ****     {
  92              		.loc 1 32 13
  93 001c 40F26112 		movw	r2, #353
  94 0020 9342     		cmp	r3, r2
  95 0022 02D1     		bne	.L5
  34:User/Software/remote_control.c ****     }
  96              		.loc 1 34 20
  97 0024 044B     		ldr	r3, .L6+4
  98 0026 0022     		movs	r2, #0
  99 0028 1A70     		strb	r2, [r3]
 100              	.L5:
 101              		.loc 1 36 1
 102 002a 00BF     		nop
 103 002c BD46     		mov	sp, r7
 104              	.LCFI6:
 105              		.cfi_def_cfa_register 13
 106              		@ sp needed
 107 002e 5DF8047B 		ldr	r7, [sp], #4
 108              	.LCFI7:
 109              		.cfi_restore 7
 110              		.cfi_def_cfa_offset 0
 111 0032 7047     		bx	lr
 112              	.L7:
 113              		.align	2
 114              	.L6:
 115 0034 00000000 		.word	SBUS_CH
 116 0038 00000000 		.word	pump_state
 117              		.cfi_endproc
 118              	.LFE148:
 120              		.section	.text.Head_Motor_Control_Updata,"ax",%progbits
 121              		.align	1
 122              		.global	Head_Motor_Control_Updata
 123              		.syntax unified
 124              		.thumb
 125              		.thumb_func
 127              	Head_Motor_Control_Updata:
 128              	.LFB149:
  37:User/Software/remote_control.c **** 
  38:User/Software/remote_control.c **** void Head_Motor_Control_Updata(void)
  39:User/Software/remote_control.c **** {
 129              		.loc 1 39 1
 130              		.cfi_startproc
 131              		@ args = 0, pretend = 0, frame = 0
 132              		@ frame_needed = 1, uses_anonymous_args = 0
 133              		@ link register save eliminated.
 134 0000 80B4     		push	{r7}
ARM GAS  C:\Users\Administrator\AppData\Local\Temp\ccWoAw79.s 			page 4


 135              	.LCFI8:
 136              		.cfi_def_cfa_offset 4
 137              		.cfi_offset 7, -4
 138 0002 00AF     		add	r7, sp, #0
 139              	.LCFI9:
 140              		.cfi_def_cfa_register 7
  40:User/Software/remote_control.c ****     if (SBUS_CH.CH6 == HIGH_VALUE)
 141              		.loc 1 40 16
 142 0004 334B     		ldr	r3, .L13
 143 0006 5B89     		ldrh	r3, [r3, #10]
 144              		.loc 1 40 8
 145 0008 40F29E62 		movw	r2, #1694
 146 000c 9342     		cmp	r3, r2
 147 000e 20D1     		bne	.L9
  41:User/Software/remote_control.c ****     {
  42:User/Software/remote_control.c ****         Daran_motor_data[0].target_angle = 0;
 148              		.loc 1 42 42
 149 0010 314B     		ldr	r3, .L13+4
 150 0012 4FF00002 		mov	r2, #0
 151 0016 9A60     		str	r2, [r3, #8]	@ float
  43:User/Software/remote_control.c ****         Daran_motor_data[1].target_angle = 0;
 152              		.loc 1 43 42
 153 0018 2F4B     		ldr	r3, .L13+4
 154 001a 4FF00002 		mov	r2, #0
 155 001e 9A61     		str	r2, [r3, #24]	@ float
  44:User/Software/remote_control.c **** 
  45:User/Software/remote_control.c ****         duties_tx.duty0 = 0.125;
 156              		.loc 1 45 25
 157 0020 2E4B     		ldr	r3, .L13+8
 158 0022 4FF07852 		mov	r2, #1040187392
 159 0026 1A60     		str	r2, [r3]	@ float
  46:User/Software/remote_control.c ****         duties_tx.duty1 = 0.125;
 160              		.loc 1 46 25
 161 0028 2C4B     		ldr	r3, .L13+8
 162 002a 4FF07852 		mov	r2, #1040187392
 163 002e 5A60     		str	r2, [r3, #4]	@ float
  47:User/Software/remote_control.c ****         duties_tx.duty2 = 0.125;
 164              		.loc 1 47 25
 165 0030 2A4B     		ldr	r3, .L13+8
 166 0032 4FF07852 		mov	r2, #1040187392
 167 0036 9A60     		str	r2, [r3, #8]	@ float
  48:User/Software/remote_control.c ****         duties_tx.duty3 = 0.125;
 168              		.loc 1 48 25
 169 0038 284B     		ldr	r3, .L13+8
 170 003a 4FF07852 		mov	r2, #1040187392
 171 003e DA60     		str	r2, [r3, #12]	@ float
  49:User/Software/remote_control.c ****         duties_tx.duty4 = 0.125;
 172              		.loc 1 49 25
 173 0040 264B     		ldr	r3, .L13+8
 174 0042 4FF07852 		mov	r2, #1040187392
 175 0046 1A61     		str	r2, [r3, #16]	@ float
  50:User/Software/remote_control.c ****         duties_tx.duty5 = 0.125;
 176              		.loc 1 50 25
 177 0048 244B     		ldr	r3, .L13+8
 178 004a 4FF07852 		mov	r2, #1040187392
 179 004e 5A61     		str	r2, [r3, #20]	@ float
  51:User/Software/remote_control.c ****     }
ARM GAS  C:\Users\Administrator\AppData\Local\Temp\ccWoAw79.s 			page 5


  52:User/Software/remote_control.c ****     else if (SBUS_CH.CH6 == MID_VALUE)
  53:User/Software/remote_control.c ****     {
  54:User/Software/remote_control.c ****         Daran_motor_data[0].target_angle = 90;
  55:User/Software/remote_control.c ****         Daran_motor_data[1].target_angle = 90;
  56:User/Software/remote_control.c **** 
  57:User/Software/remote_control.c ****         duties_tx.duty0 = 0.075;
  58:User/Software/remote_control.c ****         duties_tx.duty1 = 0.075;
  59:User/Software/remote_control.c ****         duties_tx.duty2 = 0.075;
  60:User/Software/remote_control.c ****         duties_tx.duty3 = 0.075;
  61:User/Software/remote_control.c ****         duties_tx.duty4 = 0.075;
  62:User/Software/remote_control.c ****         duties_tx.duty5 = 0.075;
  63:User/Software/remote_control.c ****     }
  64:User/Software/remote_control.c ****     else if (SBUS_CH.CH6 == LOW_VALUE)
  65:User/Software/remote_control.c ****     {
  66:User/Software/remote_control.c ****         Daran_motor_data[0].target_angle = 180;
  67:User/Software/remote_control.c ****         Daran_motor_data[1].target_angle = 180;
  68:User/Software/remote_control.c **** 
  69:User/Software/remote_control.c ****         duties_tx.duty0 = 0.025;
  70:User/Software/remote_control.c ****         duties_tx.duty1 = 0.025;
  71:User/Software/remote_control.c ****         duties_tx.duty2 = 0.025;
  72:User/Software/remote_control.c ****         duties_tx.duty3 = 0.025;
  73:User/Software/remote_control.c ****         duties_tx.duty4 = 0.025;
  74:User/Software/remote_control.c ****         duties_tx.duty5 = 0.025;
  75:User/Software/remote_control.c ****     }
  76:User/Software/remote_control.c **** }
 180              		.loc 1 76 1
 181 0050 3BE0     		b	.L12
 182              	.L9:
  52:User/Software/remote_control.c ****     {
 183              		.loc 1 52 21
 184 0052 204B     		ldr	r3, .L13
 185 0054 5B89     		ldrh	r3, [r3, #10]
  52:User/Software/remote_control.c ****     {
 186              		.loc 1 52 13
 187 0056 B3F5806F 		cmp	r3, #1024
 188 005a 18D1     		bne	.L11
  54:User/Software/remote_control.c ****         Daran_motor_data[1].target_angle = 90;
 189              		.loc 1 54 42
 190 005c 1E4B     		ldr	r3, .L13+4
 191 005e 204A     		ldr	r2, .L13+12
 192 0060 9A60     		str	r2, [r3, #8]	@ float
  55:User/Software/remote_control.c **** 
 193              		.loc 1 55 42
 194 0062 1D4B     		ldr	r3, .L13+4
 195 0064 1E4A     		ldr	r2, .L13+12
 196 0066 9A61     		str	r2, [r3, #24]	@ float
  57:User/Software/remote_control.c ****         duties_tx.duty1 = 0.075;
 197              		.loc 1 57 25
 198 0068 1C4B     		ldr	r3, .L13+8
 199 006a 1E4A     		ldr	r2, .L13+16
 200 006c 1A60     		str	r2, [r3]	@ float
  58:User/Software/remote_control.c ****         duties_tx.duty2 = 0.075;
 201              		.loc 1 58 25
 202 006e 1B4B     		ldr	r3, .L13+8
 203 0070 1C4A     		ldr	r2, .L13+16
 204 0072 5A60     		str	r2, [r3, #4]	@ float
  59:User/Software/remote_control.c ****         duties_tx.duty3 = 0.075;
ARM GAS  C:\Users\Administrator\AppData\Local\Temp\ccWoAw79.s 			page 6


 205              		.loc 1 59 25
 206 0074 194B     		ldr	r3, .L13+8
 207 0076 1B4A     		ldr	r2, .L13+16
 208 0078 9A60     		str	r2, [r3, #8]	@ float
  60:User/Software/remote_control.c ****         duties_tx.duty4 = 0.075;
 209              		.loc 1 60 25
 210 007a 184B     		ldr	r3, .L13+8
 211 007c 194A     		ldr	r2, .L13+16
 212 007e DA60     		str	r2, [r3, #12]	@ float
  61:User/Software/remote_control.c ****         duties_tx.duty5 = 0.075;
 213              		.loc 1 61 25
 214 0080 164B     		ldr	r3, .L13+8
 215 0082 184A     		ldr	r2, .L13+16
 216 0084 1A61     		str	r2, [r3, #16]	@ float
  62:User/Software/remote_control.c ****     }
 217              		.loc 1 62 25
 218 0086 154B     		ldr	r3, .L13+8
 219 0088 164A     		ldr	r2, .L13+16
 220 008a 5A61     		str	r2, [r3, #20]	@ float
 221              		.loc 1 76 1
 222 008c 1DE0     		b	.L12
 223              	.L11:
  64:User/Software/remote_control.c ****     {
 224              		.loc 1 64 21
 225 008e 114B     		ldr	r3, .L13
 226 0090 5B89     		ldrh	r3, [r3, #10]
  64:User/Software/remote_control.c ****     {
 227              		.loc 1 64 13
 228 0092 40F26112 		movw	r2, #353
 229 0096 9342     		cmp	r3, r2
 230 0098 17D1     		bne	.L12
  66:User/Software/remote_control.c ****         Daran_motor_data[1].target_angle = 180;
 231              		.loc 1 66 42
 232 009a 0F4B     		ldr	r3, .L13+4
 233 009c 124A     		ldr	r2, .L13+20
 234 009e 9A60     		str	r2, [r3, #8]	@ float
  67:User/Software/remote_control.c **** 
 235              		.loc 1 67 42
 236 00a0 0D4B     		ldr	r3, .L13+4
 237 00a2 114A     		ldr	r2, .L13+20
 238 00a4 9A61     		str	r2, [r3, #24]	@ float
  69:User/Software/remote_control.c ****         duties_tx.duty1 = 0.025;
 239              		.loc 1 69 25
 240 00a6 0D4B     		ldr	r3, .L13+8
 241 00a8 104A     		ldr	r2, .L13+24
 242 00aa 1A60     		str	r2, [r3]	@ float
  70:User/Software/remote_control.c ****         duties_tx.duty2 = 0.025;
 243              		.loc 1 70 25
 244 00ac 0B4B     		ldr	r3, .L13+8
 245 00ae 0F4A     		ldr	r2, .L13+24
 246 00b0 5A60     		str	r2, [r3, #4]	@ float
  71:User/Software/remote_control.c ****         duties_tx.duty3 = 0.025;
 247              		.loc 1 71 25
 248 00b2 0A4B     		ldr	r3, .L13+8
 249 00b4 0D4A     		ldr	r2, .L13+24
 250 00b6 9A60     		str	r2, [r3, #8]	@ float
  72:User/Software/remote_control.c ****         duties_tx.duty4 = 0.025;
ARM GAS  C:\Users\Administrator\AppData\Local\Temp\ccWoAw79.s 			page 7


 251              		.loc 1 72 25
 252 00b8 084B     		ldr	r3, .L13+8
 253 00ba 0C4A     		ldr	r2, .L13+24
 254 00bc DA60     		str	r2, [r3, #12]	@ float
  73:User/Software/remote_control.c ****         duties_tx.duty5 = 0.025;
 255              		.loc 1 73 25
 256 00be 074B     		ldr	r3, .L13+8
 257 00c0 0A4A     		ldr	r2, .L13+24
 258 00c2 1A61     		str	r2, [r3, #16]	@ float
  74:User/Software/remote_control.c ****     }
 259              		.loc 1 74 25
 260 00c4 054B     		ldr	r3, .L13+8
 261 00c6 094A     		ldr	r2, .L13+24
 262 00c8 5A61     		str	r2, [r3, #20]	@ float
 263              	.L12:
 264              		.loc 1 76 1
 265 00ca 00BF     		nop
 266 00cc BD46     		mov	sp, r7
 267              	.LCFI10:
 268              		.cfi_def_cfa_register 13
 269              		@ sp needed
 270 00ce 5DF8047B 		ldr	r7, [sp], #4
 271              	.LCFI11:
 272              		.cfi_restore 7
 273              		.cfi_def_cfa_offset 0
 274 00d2 7047     		bx	lr
 275              	.L14:
 276              		.align	2
 277              	.L13:
 278 00d4 00000000 		.word	SBUS_CH
 279 00d8 00000000 		.word	Daran_motor_data
 280 00dc 00000000 		.word	duties_tx
 281 00e0 0000B442 		.word	1119092736
 282 00e4 9A99993D 		.word	1033476506
 283 00e8 00003443 		.word	1127481344
 284 00ec CDCCCC3C 		.word	1020054733
 285              		.cfi_endproc
 286              	.LFE149:
 288              		.section	.text.Up_Down_Motor_Control_Updata,"ax",%progbits
 289              		.align	1
 290              		.global	Up_Down_Motor_Control_Updata
 291              		.syntax unified
 292              		.thumb
 293              		.thumb_func
 295              	Up_Down_Motor_Control_Updata:
 296              	.LFB150:
  77:User/Software/remote_control.c **** 
  78:User/Software/remote_control.c **** void Up_Down_Motor_Control_Updata(void)
  79:User/Software/remote_control.c **** {
 297              		.loc 1 79 1
 298              		.cfi_startproc
 299              		@ args = 0, pretend = 0, frame = 0
 300              		@ frame_needed = 1, uses_anonymous_args = 0
 301              		@ link register save eliminated.
 302 0000 80B4     		push	{r7}
 303              	.LCFI12:
 304              		.cfi_def_cfa_offset 4
ARM GAS  C:\Users\Administrator\AppData\Local\Temp\ccWoAw79.s 			page 8


 305              		.cfi_offset 7, -4
 306 0002 00AF     		add	r7, sp, #0
 307              	.LCFI13:
 308              		.cfi_def_cfa_register 7
  80:User/Software/remote_control.c ****     switch (SBUS_CH.CH7)
 309              		.loc 1 80 20
 310 0004 124B     		ldr	r3, .L22
 311 0006 9B89     		ldrh	r3, [r3, #12]
 312              		.loc 1 80 5
 313 0008 40F29E62 		movw	r2, #1694
 314 000c 9342     		cmp	r3, r2
 315 000e 0BD0     		beq	.L16
 316 0010 40F29E62 		movw	r2, #1694
 317 0014 9342     		cmp	r3, r2
 318 0016 15DC     		bgt	.L21
 319 0018 40F26112 		movw	r2, #353
 320 001c 9342     		cmp	r3, r2
 321 001e 07D0     		beq	.L18
 322 0020 B3F5806F 		cmp	r3, #1024
 323 0024 09D0     		beq	.L19
  81:User/Software/remote_control.c ****     {
  82:User/Software/remote_control.c ****     case HIGH_VALUE:
  83:User/Software/remote_control.c ****         aim_tx_height = 100;
  84:User/Software/remote_control.c ****         break;
  85:User/Software/remote_control.c ****     case LOW_VALUE:
  86:User/Software/remote_control.c ****         aim_tx_height = 700;
  87:User/Software/remote_control.c ****         break;
  88:User/Software/remote_control.c ****     case MID_VALUE:
  89:User/Software/remote_control.c ****         aim_tx_height = 400;
  90:User/Software/remote_control.c ****         break;
  91:User/Software/remote_control.c ****     default:
  92:User/Software/remote_control.c ****         break;
 324              		.loc 1 92 9
 325 0026 0DE0     		b	.L21
 326              	.L16:
  83:User/Software/remote_control.c ****         break;
 327              		.loc 1 83 23
 328 0028 0A4B     		ldr	r3, .L22+4
 329 002a 6422     		movs	r2, #100
 330 002c 1A80     		strh	r2, [r3]	@ movhi
  84:User/Software/remote_control.c ****     case LOW_VALUE:
 331              		.loc 1 84 9
 332 002e 0AE0     		b	.L20
 333              	.L18:
  86:User/Software/remote_control.c ****         break;
 334              		.loc 1 86 23
 335 0030 084B     		ldr	r3, .L22+4
 336 0032 4FF42F72 		mov	r2, #700
 337 0036 1A80     		strh	r2, [r3]	@ movhi
  87:User/Software/remote_control.c ****     case MID_VALUE:
 338              		.loc 1 87 9
 339 0038 05E0     		b	.L20
 340              	.L19:
  89:User/Software/remote_control.c ****         break;
 341              		.loc 1 89 23
 342 003a 064B     		ldr	r3, .L22+4
 343 003c 4FF4C872 		mov	r2, #400
ARM GAS  C:\Users\Administrator\AppData\Local\Temp\ccWoAw79.s 			page 9


 344 0040 1A80     		strh	r2, [r3]	@ movhi
  90:User/Software/remote_control.c ****     default:
 345              		.loc 1 90 9
 346 0042 00E0     		b	.L20
 347              	.L21:
 348              		.loc 1 92 9
 349 0044 00BF     		nop
 350              	.L20:
  93:User/Software/remote_control.c ****     }
  94:User/Software/remote_control.c **** }
 351              		.loc 1 94 1
 352 0046 00BF     		nop
 353 0048 BD46     		mov	sp, r7
 354              	.LCFI14:
 355              		.cfi_def_cfa_register 13
 356              		@ sp needed
 357 004a 5DF8047B 		ldr	r7, [sp], #4
 358              	.LCFI15:
 359              		.cfi_restore 7
 360              		.cfi_def_cfa_offset 0
 361 004e 7047     		bx	lr
 362              	.L23:
 363              		.align	2
 364              	.L22:
 365 0050 00000000 		.word	SBUS_CH
 366 0054 00000000 		.word	aim_tx_height
 367              		.cfi_endproc
 368              	.LFE150:
 370              		.section	.text.PC_Pump_Control_Updata,"ax",%progbits
 371              		.align	1
 372              		.global	PC_Pump_Control_Updata
 373              		.syntax unified
 374              		.thumb
 375              		.thumb_func
 377              	PC_Pump_Control_Updata:
 378              	.LFB151:
  95:User/Software/remote_control.c **** 
  96:User/Software/remote_control.c **** // PC控制函数实现
  97:User/Software/remote_control.c **** 
  98:User/Software/remote_control.c **** /**
  99:User/Software/remote_control.c ****  * @brief PC控制气泵更新函数
 100:User/Software/remote_control.c ****  * @note 使用PC传入的气泵状态信息进行控制
 101:User/Software/remote_control.c ****  */
 102:User/Software/remote_control.c **** void PC_Pump_Control_Updata(void)
 103:User/Software/remote_control.c **** {
 379              		.loc 1 103 1
 380              		.cfi_startproc
 381              		@ args = 0, pretend = 0, frame = 0
 382              		@ frame_needed = 1, uses_anonymous_args = 0
 383              		@ link register save eliminated.
 384 0000 80B4     		push	{r7}
 385              	.LCFI16:
 386              		.cfi_def_cfa_offset 4
 387              		.cfi_offset 7, -4
 388 0002 00AF     		add	r7, sp, #0
 389              	.LCFI17:
 390              		.cfi_def_cfa_register 7
ARM GAS  C:\Users\Administrator\AppData\Local\Temp\ccWoAw79.s 			page 10


 104:User/Software/remote_control.c ****     // 使用PC传入的气泵状态信息
 105:User/Software/remote_control.c ****     if (pc_dn_data.pc_pump_state == 1)
 391              		.loc 1 105 19
 392 0004 094B     		ldr	r3, .L28
 393 0006 1B7E     		ldrb	r3, [r3, #24]	@ zero_extendqisi2
 394              		.loc 1 105 8
 395 0008 012B     		cmp	r3, #1
 396 000a 03D1     		bne	.L25
 106:User/Software/remote_control.c ****     {
 107:User/Software/remote_control.c ****         pump_state = PUMP_ON;
 397              		.loc 1 107 20
 398 000c 084B     		ldr	r3, .L28+4
 399 000e 0122     		movs	r2, #1
 400 0010 1A70     		strb	r2, [r3]
 108:User/Software/remote_control.c ****     }
 109:User/Software/remote_control.c ****     else if (pc_dn_data.pc_pump_state == 0)
 110:User/Software/remote_control.c ****     {
 111:User/Software/remote_control.c ****         pump_state = PUMP_OFF;
 112:User/Software/remote_control.c ****     }
 113:User/Software/remote_control.c **** }
 401              		.loc 1 113 1
 402 0012 06E0     		b	.L27
 403              	.L25:
 109:User/Software/remote_control.c ****     {
 404              		.loc 1 109 24
 405 0014 054B     		ldr	r3, .L28
 406 0016 1B7E     		ldrb	r3, [r3, #24]	@ zero_extendqisi2
 109:User/Software/remote_control.c ****     {
 407              		.loc 1 109 13
 408 0018 002B     		cmp	r3, #0
 409 001a 02D1     		bne	.L27
 111:User/Software/remote_control.c ****     }
 410              		.loc 1 111 20
 411 001c 044B     		ldr	r3, .L28+4
 412 001e 0022     		movs	r2, #0
 413 0020 1A70     		strb	r2, [r3]
 414              	.L27:
 415              		.loc 1 113 1
 416 0022 00BF     		nop
 417 0024 BD46     		mov	sp, r7
 418              	.LCFI18:
 419              		.cfi_def_cfa_register 13
 420              		@ sp needed
 421 0026 5DF8047B 		ldr	r7, [sp], #4
 422              	.LCFI19:
 423              		.cfi_restore 7
 424              		.cfi_def_cfa_offset 0
 425 002a 7047     		bx	lr
 426              	.L29:
 427              		.align	2
 428              	.L28:
 429 002c 00000000 		.word	pc_dn_data
 430 0030 00000000 		.word	pump_state
 431              		.cfi_endproc
 432              	.LFE151:
 434              		.section	.text.PC_Head_Motor_Control_Updata,"ax",%progbits
 435              		.align	1
ARM GAS  C:\Users\Administrator\AppData\Local\Temp\ccWoAw79.s 			page 11


 436              		.global	PC_Head_Motor_Control_Updata
 437              		.syntax unified
 438              		.thumb
 439              		.thumb_func
 441              	PC_Head_Motor_Control_Updata:
 442              	.LFB152:
 114:User/Software/remote_control.c **** 
 115:User/Software/remote_control.c **** /**
 116:User/Software/remote_control.c ****  * @brief PC控制头部电机更新函数
 117:User/Software/remote_control.c ****  * @note 使用PC传入的头部电机角度信息进行控制
 118:User/Software/remote_control.c ****  */
 119:User/Software/remote_control.c **** void PC_Head_Motor_Control_Updata(void)
 120:User/Software/remote_control.c **** {
 443              		.loc 1 120 1
 444              		.cfi_startproc
 445              		@ args = 0, pretend = 0, frame = 8
 446              		@ frame_needed = 1, uses_anonymous_args = 0
 447              		@ link register save eliminated.
 448 0000 80B4     		push	{r7}
 449              	.LCFI20:
 450              		.cfi_def_cfa_offset 4
 451              		.cfi_offset 7, -4
 452 0002 83B0     		sub	sp, sp, #12
 453              	.LCFI21:
 454              		.cfi_def_cfa_offset 16
 455 0004 00AF     		add	r7, sp, #0
 456              	.LCFI22:
 457              		.cfi_def_cfa_register 7
 121:User/Software/remote_control.c ****     // 使用PC传入的头部电机角度信息（索引0和1对应头部电机）
 122:User/Software/remote_control.c ****     // pc_target_angles[0] 和 pc_target_angles[1] 是0.1度的单位，需要转换为度
 123:User/Software/remote_control.c ****     Daran_motor_data[0].target_angle = (float)pc_dn_data.pc_target_angles[0] / 10.0f;
 458              		.loc 1 123 74
 459 0006 224B     		ldr	r3, .L31
 460 0008 B3F90030 		ldrsh	r3, [r3]
 461              		.loc 1 123 40
 462 000c 07EE903A 		vmov	s15, r3	@ int
 463 0010 B8EEE77A 		vcvt.f32.s32	s14, s15
 464              		.loc 1 123 78
 465 0014 F2EE046A 		vmov.f32	s13, #1.0e+1
 466 0018 C7EE267A 		vdiv.f32	s15, s14, s13
 467              		.loc 1 123 38
 468 001c 1D4B     		ldr	r3, .L31+4
 469 001e C3ED027A 		vstr.32	s15, [r3, #8]
 124:User/Software/remote_control.c ****     Daran_motor_data[1].target_angle = (float)pc_dn_data.pc_target_angles[1] / 10.0f;
 470              		.loc 1 124 74
 471 0022 1B4B     		ldr	r3, .L31
 472 0024 B3F90230 		ldrsh	r3, [r3, #2]
 473              		.loc 1 124 40
 474 0028 07EE903A 		vmov	s15, r3	@ int
 475 002c B8EEE77A 		vcvt.f32.s32	s14, s15
 476              		.loc 1 124 78
 477 0030 F2EE046A 		vmov.f32	s13, #1.0e+1
 478 0034 C7EE267A 		vdiv.f32	s15, s14, s13
 479              		.loc 1 124 38
 480 0038 164B     		ldr	r3, .L31+4
 481 003a C3ED067A 		vstr.32	s15, [r3, #24]
 125:User/Software/remote_control.c **** 
ARM GAS  C:\Users\Administrator\AppData\Local\Temp\ccWoAw79.s 			page 12


 126:User/Software/remote_control.c ****     // 根据角度设置占空比（示例逻辑，可根据实际需求调整）
 127:User/Software/remote_control.c ****     float duty_base = 0.025f + (Daran_motor_data[0].target_angle / 180.0f) * 0.1f;
 482              		.loc 1 127 52
 483 003e 154B     		ldr	r3, .L31+4
 484 0040 93ED027A 		vldr.32	s14, [r3, #8]
 485              		.loc 1 127 66
 486 0044 DFED146A 		vldr.32	s13, .L31+8
 487 0048 C7EE267A 		vdiv.f32	s15, s14, s13
 488              		.loc 1 127 76
 489 004c 9FED137A 		vldr.32	s14, .L31+12
 490 0050 67EE877A 		vmul.f32	s15, s15, s14
 491              		.loc 1 127 11
 492 0054 9FED127A 		vldr.32	s14, .L31+16
 493 0058 77EE877A 		vadd.f32	s15, s15, s14
 494 005c C7ED017A 		vstr.32	s15, [r7, #4]
 128:User/Software/remote_control.c ****     
 129:User/Software/remote_control.c ****     duties_tx.duty0 = duty_base;
 495              		.loc 1 129 21
 496 0060 104A     		ldr	r2, .L31+20
 497 0062 7B68     		ldr	r3, [r7, #4]	@ float
 498 0064 1360     		str	r3, [r2]	@ float
 130:User/Software/remote_control.c ****     duties_tx.duty1 = duty_base;
 499              		.loc 1 130 21
 500 0066 0F4A     		ldr	r2, .L31+20
 501 0068 7B68     		ldr	r3, [r7, #4]	@ float
 502 006a 5360     		str	r3, [r2, #4]	@ float
 131:User/Software/remote_control.c ****     duties_tx.duty2 = duty_base;
 503              		.loc 1 131 21
 504 006c 0D4A     		ldr	r2, .L31+20
 505 006e 7B68     		ldr	r3, [r7, #4]	@ float
 506 0070 9360     		str	r3, [r2, #8]	@ float
 132:User/Software/remote_control.c ****     duties_tx.duty3 = duty_base;
 507              		.loc 1 132 21
 508 0072 0C4A     		ldr	r2, .L31+20
 509 0074 7B68     		ldr	r3, [r7, #4]	@ float
 510 0076 D360     		str	r3, [r2, #12]	@ float
 133:User/Software/remote_control.c ****     duties_tx.duty4 = duty_base;
 511              		.loc 1 133 21
 512 0078 0A4A     		ldr	r2, .L31+20
 513 007a 7B68     		ldr	r3, [r7, #4]	@ float
 514 007c 1361     		str	r3, [r2, #16]	@ float
 134:User/Software/remote_control.c ****     duties_tx.duty5 = duty_base;
 515              		.loc 1 134 21
 516 007e 094A     		ldr	r2, .L31+20
 517 0080 7B68     		ldr	r3, [r7, #4]	@ float
 518 0082 5361     		str	r3, [r2, #20]	@ float
 135:User/Software/remote_control.c **** }
 519              		.loc 1 135 1
 520 0084 00BF     		nop
 521 0086 0C37     		adds	r7, r7, #12
 522              	.LCFI23:
 523              		.cfi_def_cfa_offset 4
 524 0088 BD46     		mov	sp, r7
 525              	.LCFI24:
 526              		.cfi_def_cfa_register 13
 527              		@ sp needed
 528 008a 5DF8047B 		ldr	r7, [sp], #4
ARM GAS  C:\Users\Administrator\AppData\Local\Temp\ccWoAw79.s 			page 13


 529              	.LCFI25:
 530              		.cfi_restore 7
 531              		.cfi_def_cfa_offset 0
 532 008e 7047     		bx	lr
 533              	.L32:
 534              		.align	2
 535              	.L31:
 536 0090 00000000 		.word	pc_dn_data
 537 0094 00000000 		.word	Daran_motor_data
 538 0098 00003443 		.word	1127481344
 539 009c CDCCCC3D 		.word	1036831949
 540 00a0 CDCCCC3C 		.word	1020054733
 541 00a4 00000000 		.word	duties_tx
 542              		.cfi_endproc
 543              	.LFE152:
 545              		.section	.text.PC_Up_Down_Motor_Control_Updata,"ax",%progbits
 546              		.align	1
 547              		.global	PC_Up_Down_Motor_Control_Updata
 548              		.syntax unified
 549              		.thumb
 550              		.thumb_func
 552              	PC_Up_Down_Motor_Control_Updata:
 553              	.LFB153:
 136:User/Software/remote_control.c **** 
 137:User/Software/remote_control.c **** /**
 138:User/Software/remote_control.c ****  * @brief PC控制升降电机更新函数
 139:User/Software/remote_control.c ****  * @note 使用PC传入的升降目标高度信息进行控制
 140:User/Software/remote_control.c ****  */
 141:User/Software/remote_control.c **** void PC_Up_Down_Motor_Control_Updata(void)
 142:User/Software/remote_control.c **** {
 554              		.loc 1 142 1
 555              		.cfi_startproc
 556              		@ args = 0, pretend = 0, frame = 0
 557              		@ frame_needed = 1, uses_anonymous_args = 0
 558              		@ link register save eliminated.
 559 0000 80B4     		push	{r7}
 560              	.LCFI26:
 561              		.cfi_def_cfa_offset 4
 562              		.cfi_offset 7, -4
 563 0002 00AF     		add	r7, sp, #0
 564              	.LCFI27:
 565              		.cfi_def_cfa_register 7
 143:User/Software/remote_control.c ****     // 使用PC传入的升降目标高度信息（0.1mm单位）
 144:User/Software/remote_control.c ****     aim_tx_height = pc_dn_data.pc_target_lift_height;
 566              		.loc 1 144 31
 567 0004 044B     		ldr	r3, .L34
 568 0006 5B8B     		ldrh	r3, [r3, #26]
 569 0008 1AB2     		sxth	r2, r3
 570              		.loc 1 144 19
 571 000a 044B     		ldr	r3, .L34+4
 572 000c 1A80     		strh	r2, [r3]	@ movhi
 145:User/Software/remote_control.c **** }...
 573              		.loc 1 145 1
 574 000e 00BF     		nop
 575 0010 BD46     		mov	sp, r7
 576              	.LCFI28:
 577              		.cfi_def_cfa_register 13
ARM GAS  C:\Users\Administrator\AppData\Local\Temp\ccWoAw79.s 			page 14


 578              		@ sp needed
 579 0012 5DF8047B 		ldr	r7, [sp], #4
 580              	.LCFI29:
 581              		.cfi_restore 7
 582              		.cfi_def_cfa_offset 0
 583 0016 7047     		bx	lr
 584              	.L35:
 585              		.align	2
 586              	.L34:
 587 0018 00000000 		.word	pc_dn_data
 588 001c 00000000 		.word	aim_tx_height
 589              		.cfi_endproc
 590              	.LFE153:
 592              		.text
 593              	.Letext0:
 594              		.file 2 "C:/arm-toolchain/arm-gnu-toolchain-13.3.rel1-mingw-w64-i686-arm-none-eabi/arm-none-eabi/i
 595              		.file 3 "C:/arm-toolchain/arm-gnu-toolchain-13.3.rel1-mingw-w64-i686-arm-none-eabi/arm-none-eabi/i
 596              		.file 4 "User/Drive/Sbus.h"
 597              		.file 5 "User/Hardware/arm.h"
 598              		.file 6 "User/Hardware/lift_control.h"
 599              		.file 7 "User/Hardware/pump_control.h"
 600              		.file 8 "User/Hardware/arm_sv.h"
 601              		.file 9 "User/Hardware/uart_protocol.h"
ARM GAS  C:\Users\Administrator\AppData\Local\Temp\ccWoAw79.s 			page 15

