ARM GAS  C:\Users\Godwin\AppData\Local\Temp\ccfAiM2T.s 			page 1


   1              		.cpu cortex-m7
   2              		.arch armv7e-m
   3              		.fpu fpv5-d16
   4              		.eabi_attribute 28, 1
   5              		.eabi_attribute 20, 1
   6              		.eabi_attribute 21, 1
   7              		.eabi_attribute 23, 3
   8              		.eabi_attribute 24, 1
   9              		.eabi_attribute 25, 1
  10              		.eabi_attribute 26, 1
  11              		.eabi_attribute 30, 6
  12              		.eabi_attribute 34, 1
  13              		.eabi_attribute 18, 4
  14              		.file	"remote_control.c"
  15              		.text
  16              	.Ltext0:
  17              		.cfi_sections	.debug_frame
  18              		.file 1 "User/Software/remote_control.c"
  19              		.section	.text.remote_control_init,"ax",%progbits
  20              		.align	1
  21              		.global	remote_control_init
  22              		.syntax unified
  23              		.thumb
  24              		.thumb_func
  26              	remote_control_init:
  27              	.LFB147:
   1:User/Software/remote_control.c **** #include "remote_control.h"
   2:User/Software/remote_control.c **** #include "ramp_generator.h"
   3:User/Software/remote_control.c **** #include "IMU_updata.h"
   4:User/Software/remote_control.c **** #include "Stm32_time.h"
   5:User/Software/remote_control.c **** #include <tim.h>
   6:User/Software/remote_control.c **** #include "pid.h"
   7:User/Software/remote_control.c **** #include "UART_data_txrx.h"
   8:User/Software/remote_control.c **** #include "Sbus.h"
   9:User/Software/remote_control.c **** #include "head.h"
  10:User/Software/remote_control.c **** #include "arm.h"
  11:User/Software/remote_control.c **** #include "lift_control.h"
  12:User/Software/remote_control.c **** #include "pump_control.h"
  13:User/Software/remote_control.c **** #include "arm_sv.h"
  14:User/Software/remote_control.c **** // ŇŁżŘĆ÷Öµ
  15:User/Software/remote_control.c **** #define LOW_VALUE 353
  16:User/Software/remote_control.c **** #define MID_VALUE 1024
  17:User/Software/remote_control.c **** #define HIGH_VALUE 1694
  18:User/Software/remote_control.c **** #define RANGE 50
  19:User/Software/remote_control.c **** 
  20:User/Software/remote_control.c **** void remote_control_init()
  21:User/Software/remote_control.c **** {
  28              		.loc 1 21 1
  29              		.cfi_startproc
  30              		@ args = 0, pretend = 0, frame = 0
  31              		@ frame_needed = 1, uses_anonymous_args = 0
  32              		@ link register save eliminated.
  33 0000 80B4     		push	{r7}
  34              	.LCFI0:
  35              		.cfi_def_cfa_offset 4
  36              		.cfi_offset 7, -4
  37 0002 00AF     		add	r7, sp, #0
ARM GAS  C:\Users\Godwin\AppData\Local\Temp\ccfAiM2T.s 			page 2


  38              	.LCFI1:
  39              		.cfi_def_cfa_register 7
  22:User/Software/remote_control.c **** }
  40              		.loc 1 22 1
  41 0004 00BF     		nop
  42 0006 BD46     		mov	sp, r7
  43              	.LCFI2:
  44              		.cfi_def_cfa_register 13
  45              		@ sp needed
  46 0008 5DF8047B 		ldr	r7, [sp], #4
  47              	.LCFI3:
  48              		.cfi_restore 7
  49              		.cfi_def_cfa_offset 0
  50 000c 7047     		bx	lr
  51              		.cfi_endproc
  52              	.LFE147:
  54              		.section	.text.Head_Motor_Control_Updata,"ax",%progbits
  55              		.align	1
  56              		.global	Head_Motor_Control_Updata
  57              		.syntax unified
  58              		.thumb
  59              		.thumb_func
  61              	Head_Motor_Control_Updata:
  62              	.LFB148:
  23:User/Software/remote_control.c **** 
  24:User/Software/remote_control.c **** void Head_Motor_Control_Updata(void)
  25:User/Software/remote_control.c **** {
  63              		.loc 1 25 1
  64              		.cfi_startproc
  65              		@ args = 0, pretend = 0, frame = 0
  66              		@ frame_needed = 1, uses_anonymous_args = 0
  67              		@ link register save eliminated.
  68 0000 80B4     		push	{r7}
  69              	.LCFI4:
  70              		.cfi_def_cfa_offset 4
  71              		.cfi_offset 7, -4
  72 0002 00AF     		add	r7, sp, #0
  73              	.LCFI5:
  74              		.cfi_def_cfa_register 7
  26:User/Software/remote_control.c ****     if (SBUS_CH.CH6 == HIGH_VALUE)
  75              		.loc 1 26 16
  76 0004 334B     		ldr	r3, .L7
  77 0006 5B89     		ldrh	r3, [r3, #10]
  78              		.loc 1 26 8
  79 0008 40F29E62 		movw	r2, #1694
  80 000c 9342     		cmp	r3, r2
  81 000e 20D1     		bne	.L3
  27:User/Software/remote_control.c ****     {
  28:User/Software/remote_control.c ****         Daran_motor_data[0].target_angle = 0;
  82              		.loc 1 28 42
  83 0010 314B     		ldr	r3, .L7+4
  84 0012 4FF00002 		mov	r2, #0
  85 0016 9A60     		str	r2, [r3, #8]	@ float
  29:User/Software/remote_control.c ****         Daran_motor_data[1].target_angle = 0;
  86              		.loc 1 29 42
  87 0018 2F4B     		ldr	r3, .L7+4
  88 001a 4FF00002 		mov	r2, #0
ARM GAS  C:\Users\Godwin\AppData\Local\Temp\ccfAiM2T.s 			page 3


  89 001e 9A61     		str	r2, [r3, #24]	@ float
  30:User/Software/remote_control.c **** 
  31:User/Software/remote_control.c ****         duties_tx.duty0 = 0.125;
  90              		.loc 1 31 25
  91 0020 2E4B     		ldr	r3, .L7+8
  92 0022 4FF07852 		mov	r2, #1040187392
  93 0026 1A60     		str	r2, [r3]	@ float
  32:User/Software/remote_control.c ****         duties_tx.duty1 = 0.125;
  94              		.loc 1 32 25
  95 0028 2C4B     		ldr	r3, .L7+8
  96 002a 4FF07852 		mov	r2, #1040187392
  97 002e 5A60     		str	r2, [r3, #4]	@ float
  33:User/Software/remote_control.c ****         duties_tx.duty2 = 0.125;
  98              		.loc 1 33 25
  99 0030 2A4B     		ldr	r3, .L7+8
 100 0032 4FF07852 		mov	r2, #1040187392
 101 0036 9A60     		str	r2, [r3, #8]	@ float
  34:User/Software/remote_control.c ****         duties_tx.duty3 = 0.125;
 102              		.loc 1 34 25
 103 0038 284B     		ldr	r3, .L7+8
 104 003a 4FF07852 		mov	r2, #1040187392
 105 003e DA60     		str	r2, [r3, #12]	@ float
  35:User/Software/remote_control.c ****         duties_tx.duty4 = 0.125;
 106              		.loc 1 35 25
 107 0040 264B     		ldr	r3, .L7+8
 108 0042 4FF07852 		mov	r2, #1040187392
 109 0046 1A61     		str	r2, [r3, #16]	@ float
  36:User/Software/remote_control.c ****         duties_tx.duty5 = 0.125;
 110              		.loc 1 36 25
 111 0048 244B     		ldr	r3, .L7+8
 112 004a 4FF07852 		mov	r2, #1040187392
 113 004e 5A61     		str	r2, [r3, #20]	@ float
  37:User/Software/remote_control.c ****     }
  38:User/Software/remote_control.c ****     else if (SBUS_CH.CH6 == MID_VALUE)
  39:User/Software/remote_control.c ****     {
  40:User/Software/remote_control.c ****         Daran_motor_data[0].target_angle = 90;
  41:User/Software/remote_control.c ****         Daran_motor_data[1].target_angle = 90;
  42:User/Software/remote_control.c **** 
  43:User/Software/remote_control.c ****         duties_tx.duty0 = 0.075;
  44:User/Software/remote_control.c ****         duties_tx.duty1 = 0.075;
  45:User/Software/remote_control.c ****         duties_tx.duty2 = 0.075;
  46:User/Software/remote_control.c ****         duties_tx.duty3 = 0.075;
  47:User/Software/remote_control.c ****         duties_tx.duty4 = 0.075;
  48:User/Software/remote_control.c ****         duties_tx.duty5 = 0.075;
  49:User/Software/remote_control.c ****     }
  50:User/Software/remote_control.c ****     else if (SBUS_CH.CH6 == LOW_VALUE)
  51:User/Software/remote_control.c ****     {
  52:User/Software/remote_control.c ****         Daran_motor_data[0].target_angle = 180;
  53:User/Software/remote_control.c ****         Daran_motor_data[1].target_angle = 180;
  54:User/Software/remote_control.c **** 
  55:User/Software/remote_control.c ****         duties_tx.duty0 = 0.025;
  56:User/Software/remote_control.c ****         duties_tx.duty1 = 0.025;
  57:User/Software/remote_control.c ****         duties_tx.duty2 = 0.025;
  58:User/Software/remote_control.c ****         duties_tx.duty3 = 0.025;
  59:User/Software/remote_control.c ****         duties_tx.duty4 = 0.025;
  60:User/Software/remote_control.c ****         duties_tx.duty5 = 0.025;
  61:User/Software/remote_control.c ****     }
ARM GAS  C:\Users\Godwin\AppData\Local\Temp\ccfAiM2T.s 			page 4


  62:User/Software/remote_control.c **** }
 114              		.loc 1 62 1
 115 0050 3BE0     		b	.L6
 116              	.L3:
  38:User/Software/remote_control.c ****     {
 117              		.loc 1 38 21
 118 0052 204B     		ldr	r3, .L7
 119 0054 5B89     		ldrh	r3, [r3, #10]
  38:User/Software/remote_control.c ****     {
 120              		.loc 1 38 13
 121 0056 B3F5806F 		cmp	r3, #1024
 122 005a 18D1     		bne	.L5
  40:User/Software/remote_control.c ****         Daran_motor_data[1].target_angle = 90;
 123              		.loc 1 40 42
 124 005c 1E4B     		ldr	r3, .L7+4
 125 005e 204A     		ldr	r2, .L7+12
 126 0060 9A60     		str	r2, [r3, #8]	@ float
  41:User/Software/remote_control.c **** 
 127              		.loc 1 41 42
 128 0062 1D4B     		ldr	r3, .L7+4
 129 0064 1E4A     		ldr	r2, .L7+12
 130 0066 9A61     		str	r2, [r3, #24]	@ float
  43:User/Software/remote_control.c ****         duties_tx.duty1 = 0.075;
 131              		.loc 1 43 25
 132 0068 1C4B     		ldr	r3, .L7+8
 133 006a 1E4A     		ldr	r2, .L7+16
 134 006c 1A60     		str	r2, [r3]	@ float
  44:User/Software/remote_control.c ****         duties_tx.duty2 = 0.075;
 135              		.loc 1 44 25
 136 006e 1B4B     		ldr	r3, .L7+8
 137 0070 1C4A     		ldr	r2, .L7+16
 138 0072 5A60     		str	r2, [r3, #4]	@ float
  45:User/Software/remote_control.c ****         duties_tx.duty3 = 0.075;
 139              		.loc 1 45 25
 140 0074 194B     		ldr	r3, .L7+8
 141 0076 1B4A     		ldr	r2, .L7+16
 142 0078 9A60     		str	r2, [r3, #8]	@ float
  46:User/Software/remote_control.c ****         duties_tx.duty4 = 0.075;
 143              		.loc 1 46 25
 144 007a 184B     		ldr	r3, .L7+8
 145 007c 194A     		ldr	r2, .L7+16
 146 007e DA60     		str	r2, [r3, #12]	@ float
  47:User/Software/remote_control.c ****         duties_tx.duty5 = 0.075;
 147              		.loc 1 47 25
 148 0080 164B     		ldr	r3, .L7+8
 149 0082 184A     		ldr	r2, .L7+16
 150 0084 1A61     		str	r2, [r3, #16]	@ float
  48:User/Software/remote_control.c ****     }
 151              		.loc 1 48 25
 152 0086 154B     		ldr	r3, .L7+8
 153 0088 164A     		ldr	r2, .L7+16
 154 008a 5A61     		str	r2, [r3, #20]	@ float
 155              		.loc 1 62 1
 156 008c 1DE0     		b	.L6
 157              	.L5:
  50:User/Software/remote_control.c ****     {
 158              		.loc 1 50 21
ARM GAS  C:\Users\Godwin\AppData\Local\Temp\ccfAiM2T.s 			page 5


 159 008e 114B     		ldr	r3, .L7
 160 0090 5B89     		ldrh	r3, [r3, #10]
  50:User/Software/remote_control.c ****     {
 161              		.loc 1 50 13
 162 0092 40F26112 		movw	r2, #353
 163 0096 9342     		cmp	r3, r2
 164 0098 17D1     		bne	.L6
  52:User/Software/remote_control.c ****         Daran_motor_data[1].target_angle = 180;
 165              		.loc 1 52 42
 166 009a 0F4B     		ldr	r3, .L7+4
 167 009c 124A     		ldr	r2, .L7+20
 168 009e 9A60     		str	r2, [r3, #8]	@ float
  53:User/Software/remote_control.c **** 
 169              		.loc 1 53 42
 170 00a0 0D4B     		ldr	r3, .L7+4
 171 00a2 114A     		ldr	r2, .L7+20
 172 00a4 9A61     		str	r2, [r3, #24]	@ float
  55:User/Software/remote_control.c ****         duties_tx.duty1 = 0.025;
 173              		.loc 1 55 25
 174 00a6 0D4B     		ldr	r3, .L7+8
 175 00a8 104A     		ldr	r2, .L7+24
 176 00aa 1A60     		str	r2, [r3]	@ float
  56:User/Software/remote_control.c ****         duties_tx.duty2 = 0.025;
 177              		.loc 1 56 25
 178 00ac 0B4B     		ldr	r3, .L7+8
 179 00ae 0F4A     		ldr	r2, .L7+24
 180 00b0 5A60     		str	r2, [r3, #4]	@ float
  57:User/Software/remote_control.c ****         duties_tx.duty3 = 0.025;
 181              		.loc 1 57 25
 182 00b2 0A4B     		ldr	r3, .L7+8
 183 00b4 0D4A     		ldr	r2, .L7+24
 184 00b6 9A60     		str	r2, [r3, #8]	@ float
  58:User/Software/remote_control.c ****         duties_tx.duty4 = 0.025;
 185              		.loc 1 58 25
 186 00b8 084B     		ldr	r3, .L7+8
 187 00ba 0C4A     		ldr	r2, .L7+24
 188 00bc DA60     		str	r2, [r3, #12]	@ float
  59:User/Software/remote_control.c ****         duties_tx.duty5 = 0.025;
 189              		.loc 1 59 25
 190 00be 074B     		ldr	r3, .L7+8
 191 00c0 0A4A     		ldr	r2, .L7+24
 192 00c2 1A61     		str	r2, [r3, #16]	@ float
  60:User/Software/remote_control.c ****     }
 193              		.loc 1 60 25
 194 00c4 054B     		ldr	r3, .L7+8
 195 00c6 094A     		ldr	r2, .L7+24
 196 00c8 5A61     		str	r2, [r3, #20]	@ float
 197              	.L6:
 198              		.loc 1 62 1
 199 00ca 00BF     		nop
 200 00cc BD46     		mov	sp, r7
 201              	.LCFI6:
 202              		.cfi_def_cfa_register 13
 203              		@ sp needed
 204 00ce 5DF8047B 		ldr	r7, [sp], #4
 205              	.LCFI7:
 206              		.cfi_restore 7
ARM GAS  C:\Users\Godwin\AppData\Local\Temp\ccfAiM2T.s 			page 6


 207              		.cfi_def_cfa_offset 0
 208 00d2 7047     		bx	lr
 209              	.L8:
 210              		.align	2
 211              	.L7:
 212 00d4 00000000 		.word	SBUS_CH
 213 00d8 00000000 		.word	Daran_motor_data
 214 00dc 00000000 		.word	duties_tx
 215 00e0 0000B442 		.word	1119092736
 216 00e4 9A99993D 		.word	1033476506
 217 00e8 00003443 		.word	1127481344
 218 00ec CDCCCC3C 		.word	1020054733
 219              		.cfi_endproc
 220              	.LFE148:
 222              		.section	.text.Up_Down_Motor_Control,"ax",%progbits
 223              		.align	1
 224              		.global	Up_Down_Motor_Control
 225              		.syntax unified
 226              		.thumb
 227              		.thumb_func
 229              	Up_Down_Motor_Control:
 230              	.LFB149:
  63:User/Software/remote_control.c **** 
  64:User/Software/remote_control.c **** void Up_Down_Motor_Control(void)
  65:User/Software/remote_control.c **** {
 231              		.loc 1 65 1
 232              		.cfi_startproc
 233              		@ args = 0, pretend = 0, frame = 0
 234              		@ frame_needed = 1, uses_anonymous_args = 0
 235              		@ link register save eliminated.
 236 0000 80B4     		push	{r7}
 237              	.LCFI8:
 238              		.cfi_def_cfa_offset 4
 239              		.cfi_offset 7, -4
 240 0002 00AF     		add	r7, sp, #0
 241              	.LCFI9:
 242              		.cfi_def_cfa_register 7
  66:User/Software/remote_control.c **** 
  67:User/Software/remote_control.c ****     switch (SBUS_CH.CH7)
 243              		.loc 1 67 20
 244 0004 0D4B     		ldr	r3, .L13
 245 0006 9B89     		ldrh	r3, [r3, #12]
 246              		.loc 1 67 5
 247 0008 40F26112 		movw	r2, #353
 248 000c 9342     		cmp	r3, r2
 249 000e 07D0     		beq	.L10
 250 0010 40F29E62 		movw	r2, #1694
 251 0014 9342     		cmp	r3, r2
 252 0016 07D1     		bne	.L11
  68:User/Software/remote_control.c ****     {
  69:User/Software/remote_control.c ****     case HIGH_VALUE:
  70:User/Software/remote_control.c ****         lift_state = LIFT_UP;
 253              		.loc 1 70 20
 254 0018 094B     		ldr	r3, .L13+4
 255 001a 0022     		movs	r2, #0
 256 001c 1A70     		strb	r2, [r3]
  71:User/Software/remote_control.c ****         break;
ARM GAS  C:\Users\Godwin\AppData\Local\Temp\ccfAiM2T.s 			page 7


 257              		.loc 1 71 9
 258 001e 07E0     		b	.L12
 259              	.L10:
  72:User/Software/remote_control.c ****     case LOW_VALUE:
  73:User/Software/remote_control.c ****         lift_state = LIFT_DOWN;
 260              		.loc 1 73 20
 261 0020 074B     		ldr	r3, .L13+4
 262 0022 0122     		movs	r2, #1
 263 0024 1A70     		strb	r2, [r3]
  74:User/Software/remote_control.c ****         break;
 264              		.loc 1 74 9
 265 0026 03E0     		b	.L12
 266              	.L11:
  75:User/Software/remote_control.c ****     case MID_VALUE:
  76:User/Software/remote_control.c ****     default: // ¶µµ×Ł¬Č·±ŁČÎşÎÇéżö¶ĽÓĐ´¦Ŕí
  77:User/Software/remote_control.c ****         lift_state = LIFT_STOP;
 267              		.loc 1 77 20
 268 0028 054B     		ldr	r3, .L13+4
 269 002a 0222     		movs	r2, #2
 270 002c 1A70     		strb	r2, [r3]
  78:User/Software/remote_control.c ****         break;
 271              		.loc 1 78 9
 272 002e 00BF     		nop
 273              	.L12:
  79:User/Software/remote_control.c ****     }
  80:User/Software/remote_control.c **** }
 274              		.loc 1 80 1
 275 0030 00BF     		nop
 276 0032 BD46     		mov	sp, r7
 277              	.LCFI10:
 278              		.cfi_def_cfa_register 13
 279              		@ sp needed
 280 0034 5DF8047B 		ldr	r7, [sp], #4
 281              	.LCFI11:
 282              		.cfi_restore 7
 283              		.cfi_def_cfa_offset 0
 284 0038 7047     		bx	lr
 285              	.L14:
 286 003a 00BF     		.align	2
 287              	.L13:
 288 003c 00000000 		.word	SBUS_CH
 289 0040 00000000 		.word	lift_state
 290              		.cfi_endproc
 291              	.LFE149:
 293              		.text
 294              	.Letext0:
 295              		.file 2 "C:/Users/Godwin/13.2 Rel1/arm-none-eabi/include/machine/_default_types.h"
 296              		.file 3 "C:/Users/Godwin/13.2 Rel1/arm-none-eabi/include/sys/_stdint.h"
 297              		.file 4 "User/Drive/Sbus.h"
 298              		.file 5 "User/Hardware/arm.h"
 299              		.file 6 "User/Hardware/lift_control.h"
 300              		.file 7 "User/Hardware/arm_sv.h"
ARM GAS  C:\Users\Godwin\AppData\Local\Temp\ccfAiM2T.s 			page 8


DEFINED SYMBOLS
                            *ABS*:00000000 remote_control.c
C:\Users\Godwin\AppData\Local\Temp\ccfAiM2T.s:20     .text.remote_control_init:00000000 $t
C:\Users\Godwin\AppData\Local\Temp\ccfAiM2T.s:26     .text.remote_control_init:00000000 remote_control_init
C:\Users\Godwin\AppData\Local\Temp\ccfAiM2T.s:55     .text.Head_Motor_Control_Updata:00000000 $t
C:\Users\Godwin\AppData\Local\Temp\ccfAiM2T.s:61     .text.Head_Motor_Control_Updata:00000000 Head_Motor_Control_Updata
C:\Users\Godwin\AppData\Local\Temp\ccfAiM2T.s:212    .text.Head_Motor_Control_Updata:000000d4 $d
C:\Users\Godwin\AppData\Local\Temp\ccfAiM2T.s:223    .text.Up_Down_Motor_Control:00000000 $t
C:\Users\Godwin\AppData\Local\Temp\ccfAiM2T.s:229    .text.Up_Down_Motor_Control:00000000 Up_Down_Motor_Control
C:\Users\Godwin\AppData\Local\Temp\ccfAiM2T.s:288    .text.Up_Down_Motor_Control:0000003c $d

UNDEFINED SYMBOLS
SBUS_CH
Daran_motor_data
duties_tx
lift_state
