ARM GAS  C:\Users\Administrator\AppData\Local\Temp\ccjj91ke.s 			page 1


   1              		.cpu cortex-m7
   2              		.arch armv7e-m
   3              		.fpu fpv5-d16
   4              		.eabi_attribute 28, 1
   5              		.eabi_attribute 20, 1
   6              		.eabi_attribute 21, 1
   7              		.eabi_attribute 23, 3
   8              		.eabi_attribute 24, 1
   9              		.eabi_attribute 25, 1
  10              		.eabi_attribute 26, 1
  11              		.eabi_attribute 30, 6
  12              		.eabi_attribute 34, 1
  13              		.eabi_attribute 18, 4
  14              		.file	"Sbus.c"
  15              		.text
  16              	.Ltext0:
  17              		.cfi_sections	.debug_frame
  18              		.file 1 "User/Drive/Sbus.c"
  19              		.global	SBUS_CH
  20              		.section	.bss.SBUS_CH,"aw",%nobits
  21              		.align	2
  24              	SBUS_CH:
  25 0000 00000000 		.space	34
  25      00000000 
  25      00000000 
  25      00000000 
  25      00000000 
  26              		.global	sbus_data_buffer
  27              		.section	.bss.sbus_data_buffer,"aw",%nobits
  28              		.align	2
  31              	sbus_data_buffer:
  32 0000 00000000 		.space	256
  32      00000000 
  32      00000000 
  32      00000000 
  32      00000000 
  33              		.section	.text.store_sbus_data,"ax",%progbits
  34              		.align	1
  35              		.global	store_sbus_data
  36              		.syntax unified
  37              		.thumb
  38              		.thumb_func
  40              	store_sbus_data:
  41              	.LFB0:
   1:User/Drive/Sbus.c **** #include "Sbus.h"
   2:User/Drive/Sbus.c **** #include <string.h>
   3:User/Drive/Sbus.c **** 
   4:User/Drive/Sbus.c **** SBUS_CH_Struct SBUS_CH;
   5:User/Drive/Sbus.c **** 
   6:User/Drive/Sbus.c **** // ¶¨Ňĺ256×Ö˝ÚµÄĘýľÝ»şłĺÇř
   7:User/Drive/Sbus.c ****  uint8_t sbus_data_buffer[256];
   8:User/Drive/Sbus.c **** 
   9:User/Drive/Sbus.c **** // ´ć´˘256×Ö˝ÚĘýľÝµÄşŻĘý
  10:User/Drive/Sbus.c **** void store_sbus_data(const uint8_t *data, uint16_t size)
  11:User/Drive/Sbus.c **** {
  42              		.loc 1 11 1
  43              		.cfi_startproc
ARM GAS  C:\Users\Administrator\AppData\Local\Temp\ccjj91ke.s 			page 2


  44              		@ args = 0, pretend = 0, frame = 16
  45              		@ frame_needed = 1, uses_anonymous_args = 0
  46 0000 80B5     		push	{r7, lr}
  47              	.LCFI0:
  48              		.cfi_def_cfa_offset 8
  49              		.cfi_offset 7, -8
  50              		.cfi_offset 14, -4
  51 0002 84B0     		sub	sp, sp, #16
  52              	.LCFI1:
  53              		.cfi_def_cfa_offset 24
  54 0004 00AF     		add	r7, sp, #0
  55              	.LCFI2:
  56              		.cfi_def_cfa_register 7
  57 0006 7860     		str	r0, [r7, #4]
  58 0008 0B46     		mov	r3, r1
  59 000a 7B80     		strh	r3, [r7, #2]	@ movhi
  12:User/Drive/Sbus.c ****     if (data == NULL || size == 0) {
  60              		.loc 1 12 8
  61 000c 7B68     		ldr	r3, [r7, #4]
  62 000e 002B     		cmp	r3, #0
  63 0010 1DD0     		beq	.L5
  64              		.loc 1 12 22 discriminator 1
  65 0012 7B88     		ldrh	r3, [r7, #2]
  66 0014 002B     		cmp	r3, #0
  67 0016 1AD0     		beq	.L5
  13:User/Drive/Sbus.c ****         return;
  14:User/Drive/Sbus.c ****     }
  15:User/Drive/Sbus.c ****     
  16:User/Drive/Sbus.c ****     // Č·±Ł˛»»áł¬łö»şłĺÇř´óĐˇ
  17:User/Drive/Sbus.c ****     uint16_t copy_size = (size > 256) ? 256 : size;
  68              		.loc 1 17 14
  69 0018 7B88     		ldrh	r3, [r7, #2]
  70 001a B3F5807F 		cmp	r3, #256
  71 001e 28BF     		it	cs
  72 0020 4FF48073 		movcs	r3, #256
  73 0024 FB81     		strh	r3, [r7, #14]	@ movhi
  18:User/Drive/Sbus.c ****     
  19:User/Drive/Sbus.c ****     // ĘąÓĂmemcpy°˛Č«µŘ¸´ÖĆĘýľÝ
  20:User/Drive/Sbus.c ****     memcpy(sbus_data_buffer, data, copy_size);
  74              		.loc 1 20 5
  75 0026 FB89     		ldrh	r3, [r7, #14]
  76 0028 1A46     		mov	r2, r3
  77 002a 7968     		ldr	r1, [r7, #4]
  78 002c 0A48     		ldr	r0, .L6
  79 002e FFF7FEFF 		bl	memcpy
  21:User/Drive/Sbus.c ****     
  22:User/Drive/Sbus.c ****     // ČçąűĘýľÝĐˇÓÚ256×Ö˝ÚŁ¬ĘŁÓŕ˛ż·ÖĚîłä0
  23:User/Drive/Sbus.c ****     if (copy_size < 256) {
  80              		.loc 1 23 8
  81 0032 FB89     		ldrh	r3, [r7, #14]
  82 0034 FF2B     		cmp	r3, #255
  83 0036 0BD8     		bhi	.L1
  24:User/Drive/Sbus.c ****         memset(sbus_data_buffer + copy_size, 0, 256 - copy_size);
  84              		.loc 1 24 9
  85 0038 FB89     		ldrh	r3, [r7, #14]
  86 003a 074A     		ldr	r2, .L6
  87 003c 9818     		adds	r0, r3, r2
ARM GAS  C:\Users\Administrator\AppData\Local\Temp\ccjj91ke.s 			page 3


  88              		.loc 1 24 53
  89 003e FB89     		ldrh	r3, [r7, #14]
  90 0040 C3F58073 		rsb	r3, r3, #256
  91              		.loc 1 24 9
  92 0044 1A46     		mov	r2, r3
  93 0046 0021     		movs	r1, #0
  94 0048 FFF7FEFF 		bl	memset
  95 004c 00E0     		b	.L1
  96              	.L5:
  13:User/Drive/Sbus.c ****     }
  97              		.loc 1 13 9
  98 004e 00BF     		nop
  99              	.L1:
  25:User/Drive/Sbus.c ****     }
  26:User/Drive/Sbus.c **** }
 100              		.loc 1 26 1
 101 0050 1037     		adds	r7, r7, #16
 102              	.LCFI3:
 103              		.cfi_def_cfa_offset 8
 104 0052 BD46     		mov	sp, r7
 105              	.LCFI4:
 106              		.cfi_def_cfa_register 13
 107              		@ sp needed
 108 0054 80BD     		pop	{r7, pc}
 109              	.L7:
 110 0056 00BF     		.align	2
 111              	.L6:
 112 0058 00000000 		.word	sbus_data_buffer
 113              		.cfi_endproc
 114              	.LFE0:
 116              		.section	.text.get_sbus_data_buffer,"ax",%progbits
 117              		.align	1
 118              		.global	get_sbus_data_buffer
 119              		.syntax unified
 120              		.thumb
 121              		.thumb_func
 123              	get_sbus_data_buffer:
 124              	.LFB1:
  27:User/Drive/Sbus.c **** 
  28:User/Drive/Sbus.c **** // »ńČˇ´ć´˘µÄĘýľÝ»şłĺÇřÖ¸Őë
  29:User/Drive/Sbus.c **** uint8_t* get_sbus_data_buffer(void)
  30:User/Drive/Sbus.c **** {
 125              		.loc 1 30 1
 126              		.cfi_startproc
 127              		@ args = 0, pretend = 0, frame = 0
 128              		@ frame_needed = 1, uses_anonymous_args = 0
 129              		@ link register save eliminated.
 130 0000 80B4     		push	{r7}
 131              	.LCFI5:
 132              		.cfi_def_cfa_offset 4
 133              		.cfi_offset 7, -4
 134 0002 00AF     		add	r7, sp, #0
 135              	.LCFI6:
 136              		.cfi_def_cfa_register 7
  31:User/Drive/Sbus.c ****     return sbus_data_buffer;
 137              		.loc 1 31 12
 138 0004 024B     		ldr	r3, .L10
ARM GAS  C:\Users\Administrator\AppData\Local\Temp\ccjj91ke.s 			page 4


  32:User/Drive/Sbus.c **** }
 139              		.loc 1 32 1
 140 0006 1846     		mov	r0, r3
 141 0008 BD46     		mov	sp, r7
 142              	.LCFI7:
 143              		.cfi_def_cfa_register 13
 144              		@ sp needed
 145 000a 5DF8047B 		ldr	r7, [sp], #4
 146              	.LCFI8:
 147              		.cfi_restore 7
 148              		.cfi_def_cfa_offset 0
 149 000e 7047     		bx	lr
 150              	.L11:
 151              		.align	2
 152              	.L10:
 153 0010 00000000 		.word	sbus_data_buffer
 154              		.cfi_endproc
 155              	.LFE1:
 157              		.section	.text.get_sbus_buffer_size,"ax",%progbits
 158              		.align	1
 159              		.global	get_sbus_buffer_size
 160              		.syntax unified
 161              		.thumb
 162              		.thumb_func
 164              	get_sbus_buffer_size:
 165              	.LFB2:
  33:User/Drive/Sbus.c **** 
  34:User/Drive/Sbus.c **** // »ńČˇ»şłĺÇř´óĐˇ
  35:User/Drive/Sbus.c **** uint16_t get_sbus_buffer_size(void)
  36:User/Drive/Sbus.c **** {
 166              		.loc 1 36 1
 167              		.cfi_startproc
 168              		@ args = 0, pretend = 0, frame = 0
 169              		@ frame_needed = 1, uses_anonymous_args = 0
 170              		@ link register save eliminated.
 171 0000 80B4     		push	{r7}
 172              	.LCFI9:
 173              		.cfi_def_cfa_offset 4
 174              		.cfi_offset 7, -4
 175 0002 00AF     		add	r7, sp, #0
 176              	.LCFI10:
 177              		.cfi_def_cfa_register 7
  37:User/Drive/Sbus.c ****     return 256;
 178              		.loc 1 37 12
 179 0004 4FF48073 		mov	r3, #256
  38:User/Drive/Sbus.c **** }
 180              		.loc 1 38 1
 181 0008 1846     		mov	r0, r3
 182 000a BD46     		mov	sp, r7
 183              	.LCFI11:
 184              		.cfi_def_cfa_register 13
 185              		@ sp needed
 186 000c 5DF8047B 		ldr	r7, [sp], #4
 187              	.LCFI12:
 188              		.cfi_restore 7
 189              		.cfi_def_cfa_offset 0
 190 0010 7047     		bx	lr
ARM GAS  C:\Users\Administrator\AppData\Local\Temp\ccjj91ke.s 			page 5


 191              		.cfi_endproc
 192              	.LFE2:
 194              		.section	.text.update_sbus,"ax",%progbits
 195              		.align	1
 196              		.global	update_sbus
 197              		.syntax unified
 198              		.thumb
 199              		.thumb_func
 201              	update_sbus:
 202              	.LFB3:
  39:User/Drive/Sbus.c **** 
  40:User/Drive/Sbus.c **** void update_sbus(volatile const uint8_t *sbus_buf,SBUS_CH_Struct *SBUS_CH)
  41:User/Drive/Sbus.c **** {
 203              		.loc 1 41 1
 204              		.cfi_startproc
 205              		@ args = 0, pretend = 0, frame = 8
 206              		@ frame_needed = 1, uses_anonymous_args = 0
 207              		@ link register save eliminated.
 208 0000 80B4     		push	{r7}
 209              	.LCFI13:
 210              		.cfi_def_cfa_offset 4
 211              		.cfi_offset 7, -4
 212 0002 83B0     		sub	sp, sp, #12
 213              	.LCFI14:
 214              		.cfi_def_cfa_offset 16
 215 0004 00AF     		add	r7, sp, #0
 216              	.LCFI15:
 217              		.cfi_def_cfa_register 7
 218 0006 7860     		str	r0, [r7, #4]
 219 0008 3960     		str	r1, [r7]
  42:User/Drive/Sbus.c **** 
  43:User/Drive/Sbus.c **** 
  44:User/Drive/Sbus.c ****         SBUS_CH->ConnectState = 1;       
 220              		.loc 1 44 31
 221 000a 3B68     		ldr	r3, [r7]
 222 000c 0122     		movs	r2, #1
 223 000e 83F82020 		strb	r2, [r3, #32]
  45:User/Drive/Sbus.c ****         SBUS_CH->CH1 =  (((uint16_t)sbus_buf[1] >> 0 | ((uint16_t)sbus_buf[2] << 8 )) & 0x07FF);//2
 224              		.loc 1 45 45
 225 0012 7B68     		ldr	r3, [r7, #4]
 226 0014 0133     		adds	r3, r3, #1
 227 0016 1B78     		ldrb	r3, [r3]
 228 0018 DBB2     		uxtb	r3, r3
 229 001a 1AB2     		sxth	r2, r3
 230              		.loc 1 45 75
 231 001c 7B68     		ldr	r3, [r7, #4]
 232 001e 0233     		adds	r3, r3, #2
 233 0020 1B78     		ldrb	r3, [r3]
 234 0022 DBB2     		uxtb	r3, r3
 235              		.loc 1 45 54
 236 0024 1BB2     		sxth	r3, r3
 237 0026 1B02     		lsls	r3, r3, #8
 238 0028 1BB2     		sxth	r3, r3
 239 002a 1343     		orrs	r3, r3, r2
 240 002c 1BB2     		sxth	r3, r3
 241              		.loc 1 45 87
 242 002e 9BB2     		uxth	r3, r3
ARM GAS  C:\Users\Administrator\AppData\Local\Temp\ccjj91ke.s 			page 6


 243 0030 C3F30A03 		ubfx	r3, r3, #0, #11
 244 0034 9AB2     		uxth	r2, r3
 245              		.loc 1 45 22
 246 0036 3B68     		ldr	r3, [r7]
 247 0038 1A80     		strh	r2, [r3]	@ movhi
  46:User/Drive/Sbus.c ****         SBUS_CH->CH2 =  (((uint16_t)sbus_buf[2] >> 3 | ((uint16_t)sbus_buf[3] << 5 )) & 0x07FF);//2
 248              		.loc 1 46 45
 249 003a 7B68     		ldr	r3, [r7, #4]
 250 003c 0233     		adds	r3, r3, #2
 251 003e 1B78     		ldrb	r3, [r3]
 252 0040 DBB2     		uxtb	r3, r3
 253              		.loc 1 46 54
 254 0042 DB08     		lsrs	r3, r3, #3
 255 0044 DBB2     		uxtb	r3, r3
 256 0046 1AB2     		sxth	r2, r3
 257              		.loc 1 46 75
 258 0048 7B68     		ldr	r3, [r7, #4]
 259 004a 0333     		adds	r3, r3, #3
 260 004c 1B78     		ldrb	r3, [r3]
 261 004e DBB2     		uxtb	r3, r3
 262              		.loc 1 46 54
 263 0050 1BB2     		sxth	r3, r3
 264 0052 5B01     		lsls	r3, r3, #5
 265 0054 1BB2     		sxth	r3, r3
 266 0056 1343     		orrs	r3, r3, r2
 267 0058 1BB2     		sxth	r3, r3
 268              		.loc 1 46 87
 269 005a 9BB2     		uxth	r3, r3
 270 005c C3F30A03 		ubfx	r3, r3, #0, #11
 271 0060 9AB2     		uxth	r2, r3
 272              		.loc 1 46 22
 273 0062 3B68     		ldr	r3, [r7]
 274 0064 5A80     		strh	r2, [r3, #2]	@ movhi
  47:User/Drive/Sbus.c ****         SBUS_CH->CH3 =  (((uint16_t)sbus_buf[3] >> 6 | ((uint16_t)sbus_buf[4] << 2 ) | (int16_t)sbu
 275              		.loc 1 47 45
 276 0066 7B68     		ldr	r3, [r7, #4]
 277 0068 0333     		adds	r3, r3, #3
 278 006a 1B78     		ldrb	r3, [r3]
 279 006c DBB2     		uxtb	r3, r3
 280              		.loc 1 47 54
 281 006e 9B09     		lsrs	r3, r3, #6
 282 0070 DBB2     		uxtb	r3, r3
 283 0072 1AB2     		sxth	r2, r3
 284              		.loc 1 47 75
 285 0074 7B68     		ldr	r3, [r7, #4]
 286 0076 0433     		adds	r3, r3, #4
 287 0078 1B78     		ldrb	r3, [r3]
 288 007a DBB2     		uxtb	r3, r3
 289              		.loc 1 47 54
 290 007c 1BB2     		sxth	r3, r3
 291 007e 9B00     		lsls	r3, r3, #2
 292 0080 1BB2     		sxth	r3, r3
 293 0082 1343     		orrs	r3, r3, r2
 294 0084 1AB2     		sxth	r2, r3
 295              		.loc 1 47 105
 296 0086 7B68     		ldr	r3, [r7, #4]
 297 0088 0533     		adds	r3, r3, #5
ARM GAS  C:\Users\Administrator\AppData\Local\Temp\ccjj91ke.s 			page 7


 298 008a 1B78     		ldrb	r3, [r3]
 299 008c DBB2     		uxtb	r3, r3
 300              		.loc 1 47 86
 301 008e 1BB2     		sxth	r3, r3
 302 0090 9B02     		lsls	r3, r3, #10
 303 0092 1BB2     		sxth	r3, r3
 304 0094 1343     		orrs	r3, r3, r2
 305 0096 1BB2     		sxth	r3, r3
 306              		.loc 1 47 117
 307 0098 9BB2     		uxth	r3, r3
 308 009a C3F30A03 		ubfx	r3, r3, #0, #11
 309 009e 9AB2     		uxth	r2, r3
 310              		.loc 1 47 22
 311 00a0 3B68     		ldr	r3, [r7]
 312 00a2 9A80     		strh	r2, [r3, #4]	@ movhi
  48:User/Drive/Sbus.c ****         SBUS_CH->CH4 =  (((uint16_t)sbus_buf[5] >> 1 | ((uint16_t)sbus_buf[6] << 7 )) & 0x07FF);//2
 313              		.loc 1 48 45
 314 00a4 7B68     		ldr	r3, [r7, #4]
 315 00a6 0533     		adds	r3, r3, #5
 316 00a8 1B78     		ldrb	r3, [r3]
 317 00aa DBB2     		uxtb	r3, r3
 318              		.loc 1 48 54
 319 00ac 5B08     		lsrs	r3, r3, #1
 320 00ae DBB2     		uxtb	r3, r3
 321 00b0 1AB2     		sxth	r2, r3
 322              		.loc 1 48 75
 323 00b2 7B68     		ldr	r3, [r7, #4]
 324 00b4 0633     		adds	r3, r3, #6
 325 00b6 1B78     		ldrb	r3, [r3]
 326 00b8 DBB2     		uxtb	r3, r3
 327              		.loc 1 48 54
 328 00ba 1BB2     		sxth	r3, r3
 329 00bc DB01     		lsls	r3, r3, #7
 330 00be 1BB2     		sxth	r3, r3
 331 00c0 1343     		orrs	r3, r3, r2
 332 00c2 1BB2     		sxth	r3, r3
 333              		.loc 1 48 87
 334 00c4 9BB2     		uxth	r3, r3
 335 00c6 C3F30A03 		ubfx	r3, r3, #0, #11
 336 00ca 9AB2     		uxth	r2, r3
 337              		.loc 1 48 22
 338 00cc 3B68     		ldr	r3, [r7]
 339 00ce DA80     		strh	r2, [r3, #6]	@ movhi
  49:User/Drive/Sbus.c ****         SBUS_CH->CH5 =  (((int16_t)sbus_buf[6] >> 4 | ((int16_t)sbus_buf[7] << 4 )) & 0x07FF);//240
 340              		.loc 1 49 44
 341 00d0 7B68     		ldr	r3, [r7, #4]
 342 00d2 0633     		adds	r3, r3, #6
 343 00d4 1B78     		ldrb	r3, [r3]
 344 00d6 DBB2     		uxtb	r3, r3
 345              		.loc 1 49 53
 346 00d8 1B09     		lsrs	r3, r3, #4
 347 00da DBB2     		uxtb	r3, r3
 348 00dc 1AB2     		sxth	r2, r3
 349              		.loc 1 49 73
 350 00de 7B68     		ldr	r3, [r7, #4]
 351 00e0 0733     		adds	r3, r3, #7
 352 00e2 1B78     		ldrb	r3, [r3]
ARM GAS  C:\Users\Administrator\AppData\Local\Temp\ccjj91ke.s 			page 8


 353 00e4 DBB2     		uxtb	r3, r3
 354              		.loc 1 49 53
 355 00e6 1BB2     		sxth	r3, r3
 356 00e8 1B01     		lsls	r3, r3, #4
 357 00ea 1BB2     		sxth	r3, r3
 358 00ec 1343     		orrs	r3, r3, r2
 359 00ee 1BB2     		sxth	r3, r3
 360              		.loc 1 49 85
 361 00f0 9BB2     		uxth	r3, r3
 362 00f2 C3F30A03 		ubfx	r3, r3, #0, #11
 363 00f6 9AB2     		uxth	r2, r3
 364              		.loc 1 49 22
 365 00f8 3B68     		ldr	r3, [r7]
 366 00fa 1A81     		strh	r2, [r3, #8]	@ movhi
  50:User/Drive/Sbus.c ****         SBUS_CH->CH6 =  (((int16_t)sbus_buf[7] >> 7 | ((int16_t)sbus_buf[8] << 1 ) | (int16_t)sbus_
 367              		.loc 1 50 44
 368 00fc 7B68     		ldr	r3, [r7, #4]
 369 00fe 0733     		adds	r3, r3, #7
 370 0100 1B78     		ldrb	r3, [r3]
 371 0102 DBB2     		uxtb	r3, r3
 372              		.loc 1 50 53
 373 0104 DB09     		lsrs	r3, r3, #7
 374 0106 DBB2     		uxtb	r3, r3
 375 0108 1AB2     		sxth	r2, r3
 376              		.loc 1 50 73
 377 010a 7B68     		ldr	r3, [r7, #4]
 378 010c 0833     		adds	r3, r3, #8
 379 010e 1B78     		ldrb	r3, [r3]
 380 0110 DBB2     		uxtb	r3, r3
 381              		.loc 1 50 53
 382 0112 1BB2     		sxth	r3, r3
 383 0114 5B00     		lsls	r3, r3, #1
 384 0116 1BB2     		sxth	r3, r3
 385 0118 1343     		orrs	r3, r3, r2
 386 011a 1AB2     		sxth	r2, r3
 387              		.loc 1 50 103
 388 011c 7B68     		ldr	r3, [r7, #4]
 389 011e 0933     		adds	r3, r3, #9
 390 0120 1B78     		ldrb	r3, [r3]
 391 0122 DBB2     		uxtb	r3, r3
 392              		.loc 1 50 84
 393 0124 1BB2     		sxth	r3, r3
 394 0126 5B02     		lsls	r3, r3, #9
 395 0128 1BB2     		sxth	r3, r3
 396 012a 1343     		orrs	r3, r3, r2
 397 012c 1BB2     		sxth	r3, r3
 398              		.loc 1 50 114
 399 012e 9BB2     		uxth	r3, r3
 400 0130 C3F30A03 		ubfx	r3, r3, #0, #11
 401 0134 9AB2     		uxth	r2, r3
 402              		.loc 1 50 22
 403 0136 3B68     		ldr	r3, [r7]
 404 0138 5A81     		strh	r2, [r3, #10]	@ movhi
  51:User/Drive/Sbus.c ****         SBUS_CH->CH7 =  (((int16_t)sbus_buf[9] >> 2 | ((int16_t)sbus_buf[10] << 6 )) & 0x07FF);//24
 405              		.loc 1 51 44
 406 013a 7B68     		ldr	r3, [r7, #4]
 407 013c 0933     		adds	r3, r3, #9
ARM GAS  C:\Users\Administrator\AppData\Local\Temp\ccjj91ke.s 			page 9


 408 013e 1B78     		ldrb	r3, [r3]
 409 0140 DBB2     		uxtb	r3, r3
 410              		.loc 1 51 53
 411 0142 9B08     		lsrs	r3, r3, #2
 412 0144 DBB2     		uxtb	r3, r3
 413 0146 1AB2     		sxth	r2, r3
 414              		.loc 1 51 73
 415 0148 7B68     		ldr	r3, [r7, #4]
 416 014a 0A33     		adds	r3, r3, #10
 417 014c 1B78     		ldrb	r3, [r3]
 418 014e DBB2     		uxtb	r3, r3
 419              		.loc 1 51 53
 420 0150 1BB2     		sxth	r3, r3
 421 0152 9B01     		lsls	r3, r3, #6
 422 0154 1BB2     		sxth	r3, r3
 423 0156 1343     		orrs	r3, r3, r2
 424 0158 1BB2     		sxth	r3, r3
 425              		.loc 1 51 86
 426 015a 9BB2     		uxth	r3, r3
 427 015c C3F30A03 		ubfx	r3, r3, #0, #11
 428 0160 9AB2     		uxth	r2, r3
 429              		.loc 1 51 22
 430 0162 3B68     		ldr	r3, [r7]
 431 0164 9A81     		strh	r2, [r3, #12]	@ movhi
  52:User/Drive/Sbus.c ****         SBUS_CH->CH8 =  (((int16_t)sbus_buf[10] >> 5 | ((int16_t)sbus_buf[11] << 3 )) & 0x07FF);//2
 432              		.loc 1 52 44
 433 0166 7B68     		ldr	r3, [r7, #4]
 434 0168 0A33     		adds	r3, r3, #10
 435 016a 1B78     		ldrb	r3, [r3]
 436 016c DBB2     		uxtb	r3, r3
 437              		.loc 1 52 54
 438 016e 5B09     		lsrs	r3, r3, #5
 439 0170 DBB2     		uxtb	r3, r3
 440 0172 1AB2     		sxth	r2, r3
 441              		.loc 1 52 74
 442 0174 7B68     		ldr	r3, [r7, #4]
 443 0176 0B33     		adds	r3, r3, #11
 444 0178 1B78     		ldrb	r3, [r3]
 445 017a DBB2     		uxtb	r3, r3
 446              		.loc 1 52 54
 447 017c 1BB2     		sxth	r3, r3
 448 017e DB00     		lsls	r3, r3, #3
 449 0180 1BB2     		sxth	r3, r3
 450 0182 1343     		orrs	r3, r3, r2
 451 0184 1BB2     		sxth	r3, r3
 452              		.loc 1 52 87
 453 0186 9BB2     		uxth	r3, r3
 454 0188 C3F30A03 		ubfx	r3, r3, #0, #11
 455 018c 9AB2     		uxth	r2, r3
 456              		.loc 1 52 22
 457 018e 3B68     		ldr	r3, [r7]
 458 0190 DA81     		strh	r2, [r3, #14]	@ movhi
  53:User/Drive/Sbus.c ****         SBUS_CH->CH9 =  (((int16_t)sbus_buf[12] << 0 | ((int16_t)sbus_buf[13] << 8 )) & 0x07FF);//2
 459              		.loc 1 53 44
 460 0192 7B68     		ldr	r3, [r7, #4]
 461 0194 0C33     		adds	r3, r3, #12
 462 0196 1B78     		ldrb	r3, [r3]
ARM GAS  C:\Users\Administrator\AppData\Local\Temp\ccjj91ke.s 			page 10


 463 0198 DBB2     		uxtb	r3, r3
 464 019a 1AB2     		sxth	r2, r3
 465              		.loc 1 53 74
 466 019c 7B68     		ldr	r3, [r7, #4]
 467 019e 0D33     		adds	r3, r3, #13
 468 01a0 1B78     		ldrb	r3, [r3]
 469 01a2 DBB2     		uxtb	r3, r3
 470              		.loc 1 53 54
 471 01a4 1BB2     		sxth	r3, r3
 472 01a6 1B02     		lsls	r3, r3, #8
 473 01a8 1BB2     		sxth	r3, r3
 474 01aa 1343     		orrs	r3, r3, r2
 475 01ac 1BB2     		sxth	r3, r3
 476              		.loc 1 53 87
 477 01ae 9BB2     		uxth	r3, r3
 478 01b0 C3F30A03 		ubfx	r3, r3, #0, #11
 479 01b4 9AB2     		uxth	r2, r3
 480              		.loc 1 53 22
 481 01b6 3B68     		ldr	r3, [r7]
 482 01b8 1A82     		strh	r2, [r3, #16]	@ movhi
  54:User/Drive/Sbus.c ****         SBUS_CH->CH10 = (((int16_t)sbus_buf[13] >> 3 | ((int16_t)sbus_buf[14] << 5 )) & 0x07FF);//2
 483              		.loc 1 54 44
 484 01ba 7B68     		ldr	r3, [r7, #4]
 485 01bc 0D33     		adds	r3, r3, #13
 486 01be 1B78     		ldrb	r3, [r3]
 487 01c0 DBB2     		uxtb	r3, r3
 488              		.loc 1 54 54
 489 01c2 DB08     		lsrs	r3, r3, #3
 490 01c4 DBB2     		uxtb	r3, r3
 491 01c6 1AB2     		sxth	r2, r3
 492              		.loc 1 54 74
 493 01c8 7B68     		ldr	r3, [r7, #4]
 494 01ca 0E33     		adds	r3, r3, #14
 495 01cc 1B78     		ldrb	r3, [r3]
 496 01ce DBB2     		uxtb	r3, r3
 497              		.loc 1 54 54
 498 01d0 1BB2     		sxth	r3, r3
 499 01d2 5B01     		lsls	r3, r3, #5
 500 01d4 1BB2     		sxth	r3, r3
 501 01d6 1343     		orrs	r3, r3, r2
 502 01d8 1BB2     		sxth	r3, r3
 503              		.loc 1 54 87
 504 01da 9BB2     		uxth	r3, r3
 505 01dc C3F30A03 		ubfx	r3, r3, #0, #11
 506 01e0 9AB2     		uxth	r2, r3
 507              		.loc 1 54 23
 508 01e2 3B68     		ldr	r3, [r7]
 509 01e4 5A82     		strh	r2, [r3, #18]	@ movhi
  55:User/Drive/Sbus.c ****         SBUS_CH->CH11 = (((int16_t)sbus_buf[14] >> 6 | ((int16_t)sbus_buf[15] << 2 ) | (int16_t)sbu
 510              		.loc 1 55 44
 511 01e6 7B68     		ldr	r3, [r7, #4]
 512 01e8 0E33     		adds	r3, r3, #14
 513 01ea 1B78     		ldrb	r3, [r3]
 514 01ec DBB2     		uxtb	r3, r3
 515              		.loc 1 55 54
 516 01ee 9B09     		lsrs	r3, r3, #6
 517 01f0 DBB2     		uxtb	r3, r3
ARM GAS  C:\Users\Administrator\AppData\Local\Temp\ccjj91ke.s 			page 11


 518 01f2 1AB2     		sxth	r2, r3
 519              		.loc 1 55 74
 520 01f4 7B68     		ldr	r3, [r7, #4]
 521 01f6 0F33     		adds	r3, r3, #15
 522 01f8 1B78     		ldrb	r3, [r3]
 523 01fa DBB2     		uxtb	r3, r3
 524              		.loc 1 55 54
 525 01fc 1BB2     		sxth	r3, r3
 526 01fe 9B00     		lsls	r3, r3, #2
 527 0200 1BB2     		sxth	r3, r3
 528 0202 1343     		orrs	r3, r3, r2
 529 0204 1AB2     		sxth	r2, r3
 530              		.loc 1 55 105
 531 0206 7B68     		ldr	r3, [r7, #4]
 532 0208 1033     		adds	r3, r3, #16
 533 020a 1B78     		ldrb	r3, [r3]
 534 020c DBB2     		uxtb	r3, r3
 535              		.loc 1 55 86
 536 020e 1BB2     		sxth	r3, r3
 537 0210 9B02     		lsls	r3, r3, #10
 538 0212 1BB2     		sxth	r3, r3
 539 0214 1343     		orrs	r3, r3, r2
 540 0216 1BB2     		sxth	r3, r3
 541              		.loc 1 55 118
 542 0218 9BB2     		uxth	r3, r3
 543 021a C3F30A03 		ubfx	r3, r3, #0, #11
 544 021e 9AB2     		uxth	r2, r3
 545              		.loc 1 55 23
 546 0220 3B68     		ldr	r3, [r7]
 547 0222 9A82     		strh	r2, [r3, #20]	@ movhi
  56:User/Drive/Sbus.c ****         SBUS_CH->CH12 = (((int16_t)sbus_buf[16] >> 1 | ((int16_t)sbus_buf[17] << 7 )) & 0x07FF);
 548              		.loc 1 56 44
 549 0224 7B68     		ldr	r3, [r7, #4]
 550 0226 1033     		adds	r3, r3, #16
 551 0228 1B78     		ldrb	r3, [r3]
 552 022a DBB2     		uxtb	r3, r3
 553              		.loc 1 56 54
 554 022c 5B08     		lsrs	r3, r3, #1
 555 022e DBB2     		uxtb	r3, r3
 556 0230 1AB2     		sxth	r2, r3
 557              		.loc 1 56 74
 558 0232 7B68     		ldr	r3, [r7, #4]
 559 0234 1133     		adds	r3, r3, #17
 560 0236 1B78     		ldrb	r3, [r3]
 561 0238 DBB2     		uxtb	r3, r3
 562              		.loc 1 56 54
 563 023a 1BB2     		sxth	r3, r3
 564 023c DB01     		lsls	r3, r3, #7
 565 023e 1BB2     		sxth	r3, r3
 566 0240 1343     		orrs	r3, r3, r2
 567 0242 1BB2     		sxth	r3, r3
 568              		.loc 1 56 87
 569 0244 9BB2     		uxth	r3, r3
 570 0246 C3F30A03 		ubfx	r3, r3, #0, #11
 571 024a 9AB2     		uxth	r2, r3
 572              		.loc 1 56 23
 573 024c 3B68     		ldr	r3, [r7]
ARM GAS  C:\Users\Administrator\AppData\Local\Temp\ccjj91ke.s 			page 12


 574 024e DA82     		strh	r2, [r3, #22]	@ movhi
  57:User/Drive/Sbus.c ****         SBUS_CH->CH13 = (((int16_t)sbus_buf[17] >> 4 | ((int16_t)sbus_buf[18] << 4 )) & 0x07FF);
 575              		.loc 1 57 44
 576 0250 7B68     		ldr	r3, [r7, #4]
 577 0252 1133     		adds	r3, r3, #17
 578 0254 1B78     		ldrb	r3, [r3]
 579 0256 DBB2     		uxtb	r3, r3
 580              		.loc 1 57 54
 581 0258 1B09     		lsrs	r3, r3, #4
 582 025a DBB2     		uxtb	r3, r3
 583 025c 1AB2     		sxth	r2, r3
 584              		.loc 1 57 74
 585 025e 7B68     		ldr	r3, [r7, #4]
 586 0260 1233     		adds	r3, r3, #18
 587 0262 1B78     		ldrb	r3, [r3]
 588 0264 DBB2     		uxtb	r3, r3
 589              		.loc 1 57 54
 590 0266 1BB2     		sxth	r3, r3
 591 0268 1B01     		lsls	r3, r3, #4
 592 026a 1BB2     		sxth	r3, r3
 593 026c 1343     		orrs	r3, r3, r2
 594 026e 1BB2     		sxth	r3, r3
 595              		.loc 1 57 87
 596 0270 9BB2     		uxth	r3, r3
 597 0272 C3F30A03 		ubfx	r3, r3, #0, #11
 598 0276 9AB2     		uxth	r2, r3
 599              		.loc 1 57 23
 600 0278 3B68     		ldr	r3, [r7]
 601 027a 1A83     		strh	r2, [r3, #24]	@ movhi
  58:User/Drive/Sbus.c ****         SBUS_CH->CH14 = (((int16_t)sbus_buf[18] >> 7 | ((int16_t)sbus_buf[19] << 1 ) | (int16_t)sbu
 602              		.loc 1 58 44
 603 027c 7B68     		ldr	r3, [r7, #4]
 604 027e 1233     		adds	r3, r3, #18
 605 0280 1B78     		ldrb	r3, [r3]
 606 0282 DBB2     		uxtb	r3, r3
 607              		.loc 1 58 54
 608 0284 DB09     		lsrs	r3, r3, #7
 609 0286 DBB2     		uxtb	r3, r3
 610 0288 1AB2     		sxth	r2, r3
 611              		.loc 1 58 74
 612 028a 7B68     		ldr	r3, [r7, #4]
 613 028c 1333     		adds	r3, r3, #19
 614 028e 1B78     		ldrb	r3, [r3]
 615 0290 DBB2     		uxtb	r3, r3
 616              		.loc 1 58 54
 617 0292 1BB2     		sxth	r3, r3
 618 0294 5B00     		lsls	r3, r3, #1
 619 0296 1BB2     		sxth	r3, r3
 620 0298 1343     		orrs	r3, r3, r2
 621 029a 1AB2     		sxth	r2, r3
 622              		.loc 1 58 105
 623 029c 7B68     		ldr	r3, [r7, #4]
 624 029e 1433     		adds	r3, r3, #20
 625 02a0 1B78     		ldrb	r3, [r3]
 626 02a2 DBB2     		uxtb	r3, r3
 627              		.loc 1 58 86
 628 02a4 1BB2     		sxth	r3, r3
ARM GAS  C:\Users\Administrator\AppData\Local\Temp\ccjj91ke.s 			page 13


 629 02a6 5B02     		lsls	r3, r3, #9
 630 02a8 1BB2     		sxth	r3, r3
 631 02aa 1343     		orrs	r3, r3, r2
 632 02ac 1BB2     		sxth	r3, r3
 633              		.loc 1 58 117
 634 02ae 9BB2     		uxth	r3, r3
 635 02b0 C3F30A03 		ubfx	r3, r3, #0, #11
 636 02b4 9AB2     		uxth	r2, r3
 637              		.loc 1 58 23
 638 02b6 3B68     		ldr	r3, [r7]
 639 02b8 5A83     		strh	r2, [r3, #26]	@ movhi
  59:User/Drive/Sbus.c ****         SBUS_CH->CH15 = (((int16_t)sbus_buf[20] >> 2 | ((int16_t)sbus_buf[21] << 6 )) & 0x07FF);
 640              		.loc 1 59 44
 641 02ba 7B68     		ldr	r3, [r7, #4]
 642 02bc 1433     		adds	r3, r3, #20
 643 02be 1B78     		ldrb	r3, [r3]
 644 02c0 DBB2     		uxtb	r3, r3
 645              		.loc 1 59 54
 646 02c2 9B08     		lsrs	r3, r3, #2
 647 02c4 DBB2     		uxtb	r3, r3
 648 02c6 1AB2     		sxth	r2, r3
 649              		.loc 1 59 74
 650 02c8 7B68     		ldr	r3, [r7, #4]
 651 02ca 1533     		adds	r3, r3, #21
 652 02cc 1B78     		ldrb	r3, [r3]
 653 02ce DBB2     		uxtb	r3, r3
 654              		.loc 1 59 54
 655 02d0 1BB2     		sxth	r3, r3
 656 02d2 9B01     		lsls	r3, r3, #6
 657 02d4 1BB2     		sxth	r3, r3
 658 02d6 1343     		orrs	r3, r3, r2
 659 02d8 1BB2     		sxth	r3, r3
 660              		.loc 1 59 87
 661 02da 9BB2     		uxth	r3, r3
 662 02dc C3F30A03 		ubfx	r3, r3, #0, #11
 663 02e0 9AB2     		uxth	r2, r3
 664              		.loc 1 59 23
 665 02e2 3B68     		ldr	r3, [r7]
 666 02e4 9A83     		strh	r2, [r3, #28]	@ movhi
  60:User/Drive/Sbus.c ****         SBUS_CH->CH16 = (((int16_t)sbus_buf[21] >> 5 | ((int16_t)sbus_buf[22] << 3 )) & 0x07FF);
 667              		.loc 1 60 44
 668 02e6 7B68     		ldr	r3, [r7, #4]
 669 02e8 1533     		adds	r3, r3, #21
 670 02ea 1B78     		ldrb	r3, [r3]
 671 02ec DBB2     		uxtb	r3, r3
 672              		.loc 1 60 54
 673 02ee 5B09     		lsrs	r3, r3, #5
 674 02f0 DBB2     		uxtb	r3, r3
 675 02f2 1AB2     		sxth	r2, r3
 676              		.loc 1 60 74
 677 02f4 7B68     		ldr	r3, [r7, #4]
 678 02f6 1633     		adds	r3, r3, #22
 679 02f8 1B78     		ldrb	r3, [r3]
 680 02fa DBB2     		uxtb	r3, r3
 681              		.loc 1 60 54
 682 02fc 1BB2     		sxth	r3, r3
 683 02fe DB00     		lsls	r3, r3, #3
ARM GAS  C:\Users\Administrator\AppData\Local\Temp\ccjj91ke.s 			page 14


 684 0300 1BB2     		sxth	r3, r3
 685 0302 1343     		orrs	r3, r3, r2
 686 0304 1BB2     		sxth	r3, r3
 687              		.loc 1 60 87
 688 0306 9BB2     		uxth	r3, r3
 689 0308 C3F30A03 		ubfx	r3, r3, #0, #11
 690 030c 9AB2     		uxth	r2, r3
 691              		.loc 1 60 23
 692 030e 3B68     		ldr	r3, [r7]
 693 0310 DA83     		strh	r2, [r3, #30]	@ movhi
  61:User/Drive/Sbus.c **** 
  62:User/Drive/Sbus.c **** }...
 694              		.loc 1 62 1
 695 0312 00BF     		nop
 696 0314 0C37     		adds	r7, r7, #12
 697              	.LCFI16:
 698              		.cfi_def_cfa_offset 4
 699 0316 BD46     		mov	sp, r7
 700              	.LCFI17:
 701              		.cfi_def_cfa_register 13
 702              		@ sp needed
 703 0318 5DF8047B 		ldr	r7, [sp], #4
 704              	.LCFI18:
 705              		.cfi_restore 7
 706              		.cfi_def_cfa_offset 0
 707 031c 7047     		bx	lr
 708              		.cfi_endproc
 709              	.LFE3:
 711              		.text
 712              	.Letext0:
 713              		.file 2 "C:/arm-toolchain/arm-gnu-toolchain-13.3.rel1-mingw-w64-i686-arm-none-eabi/arm-none-eabi/i
 714              		.file 3 "C:/arm-toolchain/arm-gnu-toolchain-13.3.rel1-mingw-w64-i686-arm-none-eabi/arm-none-eabi/i
 715              		.file 4 "User/Drive/Sbus.h"
 716              		.file 5 "C:/arm-toolchain/arm-gnu-toolchain-13.3.rel1-mingw-w64-i686-arm-none-eabi/lib/gcc/arm-non
 717              		.file 6 "C:/arm-toolchain/arm-gnu-toolchain-13.3.rel1-mingw-w64-i686-arm-none-eabi/arm-none-eabi/i
ARM GAS  C:\Users\Administrator\AppData\Local\Temp\ccjj91ke.s 			page 15

