ARM GAS  C:\Users\Administrator\AppData\Local\Temp\ccQocC2h.s 			page 1


   1              		.cpu cortex-m7
   2              		.arch armv7e-m
   3              		.fpu fpv5-d16
   4              		.eabi_attribute 28, 1
   5              		.eabi_attribute 20, 1
   6              		.eabi_attribute 21, 1
   7              		.eabi_attribute 23, 3
   8              		.eabi_attribute 24, 1
   9              		.eabi_attribute 25, 1
  10              		.eabi_attribute 26, 1
  11              		.eabi_attribute 30, 6
  12              		.eabi_attribute 34, 1
  13              		.eabi_attribute 18, 4
  14              		.file	"uart_protocol.c"
  15              		.text
  16              	.Ltext0:
  17              		.cfi_sections	.debug_frame
  18              		.file 1 "User/Hardware/uart_protocol.c"
  19              		.global	uart_protocol_raw_data
  20              		.section	.bss.uart_protocol_raw_data,"aw",%nobits
  21              		.align	2
  24              	uart_protocol_raw_data:
  25 0000 00000000 		.space	256
  25      00000000 
  25      00000000 
  25      00000000 
  25      00000000 
  26              		.global	pc_dn_data
  27              		.section	.bss.pc_dn_data,"aw",%nobits
  28              		.align	2
  31              	pc_dn_data:
  32 0000 00000000 		.space	28
  32      00000000 
  32      00000000 
  32      00000000 
  32      00000000 
  33              		.section	.text.crc16_ccitt,"ax",%progbits
  34              		.align	1
  35              		.global	crc16_ccitt
  36              		.syntax unified
  37              		.thumb
  38              		.thumb_func
  40              	crc16_ccitt:
  41              	.LFB144:
   1:User/Hardware/uart_protocol.c **** #include "uart_protocol.h"
   2:User/Hardware/uart_protocol.c **** #include <string.h>
   3:User/Hardware/uart_protocol.c **** uint8_t uart_protocol_raw_data[256];
   4:User/Hardware/uart_protocol.c **** DnData_t pc_dn_data;
   5:User/Hardware/uart_protocol.c **** // CRC16-CCITT校验
   6:User/Hardware/uart_protocol.c **** uint16_t crc16_ccitt(uint8_t *data, uint16_t len)
   7:User/Hardware/uart_protocol.c **** {
  42              		.loc 1 7 1
  43              		.cfi_startproc
  44              		@ args = 0, pretend = 0, frame = 16
  45              		@ frame_needed = 1, uses_anonymous_args = 0
  46              		@ link register save eliminated.
  47 0000 80B4     		push	{r7}
ARM GAS  C:\Users\Administrator\AppData\Local\Temp\ccQocC2h.s 			page 2


  48              	.LCFI0:
  49              		.cfi_def_cfa_offset 4
  50              		.cfi_offset 7, -4
  51 0002 85B0     		sub	sp, sp, #20
  52              	.LCFI1:
  53              		.cfi_def_cfa_offset 24
  54 0004 00AF     		add	r7, sp, #0
  55              	.LCFI2:
  56              		.cfi_def_cfa_register 7
  57 0006 7860     		str	r0, [r7, #4]
  58 0008 0B46     		mov	r3, r1
  59 000a 7B80     		strh	r3, [r7, #2]	@ movhi
   8:User/Hardware/uart_protocol.c ****     uint16_t crc = 0xFFFF;
  60              		.loc 1 8 14
  61 000c 4FF6FF73 		movw	r3, #65535
  62 0010 FB81     		strh	r3, [r7, #14]	@ movhi
  63              	.LBB2:
   9:User/Hardware/uart_protocol.c ****     for (uint16_t i = 0; i < len; i++)
  64              		.loc 1 9 19
  65 0012 0023     		movs	r3, #0
  66 0014 BB81     		strh	r3, [r7, #12]	@ movhi
  67              		.loc 1 9 5
  68 0016 28E0     		b	.L2
  69              	.L7:
  10:User/Hardware/uart_protocol.c ****     {
  11:User/Hardware/uart_protocol.c ****         crc ^= (uint16_t)data[i] << 8;
  70              		.loc 1 11 30
  71 0018 BB89     		ldrh	r3, [r7, #12]
  72 001a 7A68     		ldr	r2, [r7, #4]
  73 001c 1344     		add	r3, r3, r2
  74 001e 1B78     		ldrb	r3, [r3]	@ zero_extendqisi2
  75              		.loc 1 11 13
  76 0020 1BB2     		sxth	r3, r3
  77 0022 1B02     		lsls	r3, r3, #8
  78 0024 1AB2     		sxth	r2, r3
  79 0026 B7F90E30 		ldrsh	r3, [r7, #14]
  80 002a 5340     		eors	r3, r3, r2
  81 002c 1BB2     		sxth	r3, r3
  82 002e FB81     		strh	r3, [r7, #14]	@ movhi
  83              	.LBB3:
  12:User/Hardware/uart_protocol.c ****         for (uint8_t j = 0; j < 8; j++)
  84              		.loc 1 12 22
  85 0030 0023     		movs	r3, #0
  86 0032 FB72     		strb	r3, [r7, #11]
  87              		.loc 1 12 9
  88 0034 13E0     		b	.L3
  89              	.L6:
  13:User/Hardware/uart_protocol.c ****         {
  14:User/Hardware/uart_protocol.c ****             if (crc & 0x8000)
  90              		.loc 1 14 17
  91 0036 B7F90E30 		ldrsh	r3, [r7, #14]
  92              		.loc 1 14 16
  93 003a 002B     		cmp	r3, #0
  94 003c 09DA     		bge	.L4
  15:User/Hardware/uart_protocol.c ****                 crc = (crc << 1) ^ 0x1021;
  95              		.loc 1 15 34
  96 003e B7F90E30 		ldrsh	r3, [r7, #14]
ARM GAS  C:\Users\Administrator\AppData\Local\Temp\ccQocC2h.s 			page 3


  97 0042 5B00     		lsls	r3, r3, #1
  98 0044 1AB2     		sxth	r2, r3
  99 0046 41F22103 		movw	r3, #4129
 100 004a 5340     		eors	r3, r3, r2
 101 004c 1BB2     		sxth	r3, r3
 102              		.loc 1 15 21
 103 004e FB81     		strh	r3, [r7, #14]	@ movhi
 104 0050 02E0     		b	.L5
 105              	.L4:
  16:User/Hardware/uart_protocol.c ****             else
  17:User/Hardware/uart_protocol.c ****                 crc <<= 1;
 106              		.loc 1 17 21
 107 0052 FB89     		ldrh	r3, [r7, #14]	@ movhi
 108 0054 5B00     		lsls	r3, r3, #1
 109 0056 FB81     		strh	r3, [r7, #14]	@ movhi
 110              	.L5:
  12:User/Hardware/uart_protocol.c ****         {
 111              		.loc 1 12 37 discriminator 2
 112 0058 FB7A     		ldrb	r3, [r7, #11]	@ zero_extendqisi2
 113 005a 0133     		adds	r3, r3, #1
 114 005c FB72     		strb	r3, [r7, #11]
 115              	.L3:
  12:User/Hardware/uart_protocol.c ****         {
 116              		.loc 1 12 31 discriminator 1
 117 005e FB7A     		ldrb	r3, [r7, #11]	@ zero_extendqisi2
 118 0060 072B     		cmp	r3, #7
 119 0062 E8D9     		bls	.L6
 120              	.LBE3:
   9:User/Hardware/uart_protocol.c ****     {
 121              		.loc 1 9 36 discriminator 2
 122 0064 BB89     		ldrh	r3, [r7, #12]
 123 0066 0133     		adds	r3, r3, #1
 124 0068 BB81     		strh	r3, [r7, #12]	@ movhi
 125              	.L2:
   9:User/Hardware/uart_protocol.c ****     {
 126              		.loc 1 9 28 discriminator 1
 127 006a BA89     		ldrh	r2, [r7, #12]
 128 006c 7B88     		ldrh	r3, [r7, #2]
 129 006e 9A42     		cmp	r2, r3
 130 0070 D2D3     		bcc	.L7
 131              	.LBE2:
  18:User/Hardware/uart_protocol.c ****         }
  19:User/Hardware/uart_protocol.c ****     }
  20:User/Hardware/uart_protocol.c ****     return crc;
 132              		.loc 1 20 12
 133 0072 FB89     		ldrh	r3, [r7, #14]
  21:User/Hardware/uart_protocol.c **** }
 134              		.loc 1 21 1
 135 0074 1846     		mov	r0, r3
 136 0076 1437     		adds	r7, r7, #20
 137              	.LCFI3:
 138              		.cfi_def_cfa_offset 4
 139 0078 BD46     		mov	sp, r7
 140              	.LCFI4:
 141              		.cfi_def_cfa_register 13
 142              		@ sp needed
 143 007a 5DF8047B 		ldr	r7, [sp], #4
ARM GAS  C:\Users\Administrator\AppData\Local\Temp\ccQocC2h.s 			page 4


 144              	.LCFI5:
 145              		.cfi_restore 7
 146              		.cfi_def_cfa_offset 0
 147 007e 7047     		bx	lr
 148              		.cfi_endproc
 149              	.LFE144:
 151              		.section	.text.pack_up_frame,"ax",%progbits
 152              		.align	1
 153              		.global	pack_up_frame
 154              		.syntax unified
 155              		.thumb
 156              		.thumb_func
 158              	pack_up_frame:
 159              	.LFB145:
  22:User/Hardware/uart_protocol.c **** 
  23:User/Hardware/uart_protocol.c **** // 打包上行帧（STM32→主机）
  24:User/Hardware/uart_protocol.c **** void pack_up_frame(UpData_t *data, uint8_t *frame_buf)
  25:User/Hardware/uart_protocol.c **** {
 160              		.loc 1 25 1
 161              		.cfi_startproc
 162              		@ args = 0, pretend = 0, frame = 24
 163              		@ frame_needed = 1, uses_anonymous_args = 0
 164 0000 80B5     		push	{r7, lr}
 165              	.LCFI6:
 166              		.cfi_def_cfa_offset 8
 167              		.cfi_offset 7, -8
 168              		.cfi_offset 14, -4
 169 0002 86B0     		sub	sp, sp, #24
 170              	.LCFI7:
 171              		.cfi_def_cfa_offset 32
 172 0004 00AF     		add	r7, sp, #0
 173              	.LCFI8:
 174              		.cfi_def_cfa_register 7
 175 0006 7860     		str	r0, [r7, #4]
 176 0008 3960     		str	r1, [r7]
  26:User/Hardware/uart_protocol.c ****     uint8_t idx = 0;
 177              		.loc 1 26 13
 178 000a 0023     		movs	r3, #0
 179 000c FB75     		strb	r3, [r7, #23]
  27:User/Hardware/uart_protocol.c ****     // 1. 帧头
  28:User/Hardware/uart_protocol.c ****     frame_buf[idx++] = FRAME_HEADER1;
 180              		.loc 1 28 18
 181 000e FB7D     		ldrb	r3, [r7, #23]	@ zero_extendqisi2
 182 0010 5A1C     		adds	r2, r3, #1
 183 0012 FA75     		strb	r2, [r7, #23]
 184 0014 1A46     		mov	r2, r3
 185              		.loc 1 28 14
 186 0016 3B68     		ldr	r3, [r7]
 187 0018 1344     		add	r3, r3, r2
 188              		.loc 1 28 22
 189 001a AA22     		movs	r2, #170
 190 001c 1A70     		strb	r2, [r3]
  29:User/Hardware/uart_protocol.c ****     frame_buf[idx++] = FRAME_HEADER2;
 191              		.loc 1 29 18
 192 001e FB7D     		ldrb	r3, [r7, #23]	@ zero_extendqisi2
 193 0020 5A1C     		adds	r2, r3, #1
 194 0022 FA75     		strb	r2, [r7, #23]
ARM GAS  C:\Users\Administrator\AppData\Local\Temp\ccQocC2h.s 			page 5


 195 0024 1A46     		mov	r2, r3
 196              		.loc 1 29 14
 197 0026 3B68     		ldr	r3, [r7]
 198 0028 1344     		add	r3, r3, r2
 199              		.loc 1 29 22
 200 002a 5522     		movs	r2, #85
 201 002c 1A70     		strb	r2, [r3]
  30:User/Hardware/uart_protocol.c ****     // 2. 帧类型
  31:User/Hardware/uart_protocol.c ****     frame_buf[idx++] = UP_FRAME_TYPE;
 202              		.loc 1 31 18
 203 002e FB7D     		ldrb	r3, [r7, #23]	@ zero_extendqisi2
 204 0030 5A1C     		adds	r2, r3, #1
 205 0032 FA75     		strb	r2, [r7, #23]
 206 0034 1A46     		mov	r2, r3
 207              		.loc 1 31 14
 208 0036 3B68     		ldr	r3, [r7]
 209 0038 1344     		add	r3, r3, r2
 210              		.loc 1 31 22
 211 003a 0122     		movs	r2, #1
 212 003c 1A70     		strb	r2, [r3]
  32:User/Hardware/uart_protocol.c ****     // 3. 数据长度
  33:User/Hardware/uart_protocol.c ****     frame_buf[idx++] = UP_DATA_LEN;
 213              		.loc 1 33 18
 214 003e FB7D     		ldrb	r3, [r7, #23]	@ zero_extendqisi2
 215 0040 5A1C     		adds	r2, r3, #1
 216 0042 FA75     		strb	r2, [r7, #23]
 217 0044 1A46     		mov	r2, r3
 218              		.loc 1 33 14
 219 0046 3B68     		ldr	r3, [r7]
 220 0048 1344     		add	r3, r3, r2
 221              		.loc 1 33 22
 222 004a 1C22     		movs	r2, #28
 223 004c 1A70     		strb	r2, [r3]
  34:User/Hardware/uart_protocol.c ****     // 4. 数据域
  35:User/Hardware/uart_protocol.c ****     frame_buf[idx++] = data->air_path_state;
 224              		.loc 1 35 18
 225 004e FB7D     		ldrb	r3, [r7, #23]	@ zero_extendqisi2
 226 0050 5A1C     		adds	r2, r3, #1
 227 0052 FA75     		strb	r2, [r7, #23]
 228 0054 1A46     		mov	r2, r3
 229              		.loc 1 35 14
 230 0056 3B68     		ldr	r3, [r7]
 231 0058 1344     		add	r3, r3, r2
 232              		.loc 1 35 28
 233 005a 7A68     		ldr	r2, [r7, #4]
 234 005c 1278     		ldrb	r2, [r2]	@ zero_extendqisi2
 235              		.loc 1 35 22
 236 005e 1A70     		strb	r2, [r3]
  36:User/Hardware/uart_protocol.c ****     frame_buf[idx++] = data->suck_state;
 237              		.loc 1 36 18
 238 0060 FB7D     		ldrb	r3, [r7, #23]	@ zero_extendqisi2
 239 0062 5A1C     		adds	r2, r3, #1
 240 0064 FA75     		strb	r2, [r7, #23]
 241 0066 1A46     		mov	r2, r3
 242              		.loc 1 36 14
 243 0068 3B68     		ldr	r3, [r7]
 244 006a 1344     		add	r3, r3, r2
ARM GAS  C:\Users\Administrator\AppData\Local\Temp\ccQocC2h.s 			page 6


 245              		.loc 1 36 28
 246 006c 7A68     		ldr	r2, [r7, #4]
 247 006e 5278     		ldrb	r2, [r2, #1]	@ zero_extendqisi2
 248              		.loc 1 36 22
 249 0070 1A70     		strb	r2, [r3]
  37:User/Hardware/uart_protocol.c ****     // 头部电机角度（小端）
  38:User/Hardware/uart_protocol.c ****     frame_buf[idx++] = (uint8_t)(data->head_motor_angle & 0xFF);
 250              		.loc 1 38 38
 251 0072 7B68     		ldr	r3, [r7, #4]
 252 0074 B3F90220 		ldrsh	r2, [r3, #2]
 253              		.loc 1 38 18
 254 0078 FB7D     		ldrb	r3, [r7, #23]	@ zero_extendqisi2
 255 007a 591C     		adds	r1, r3, #1
 256 007c F975     		strb	r1, [r7, #23]
 257 007e 1946     		mov	r1, r3
 258              		.loc 1 38 14
 259 0080 3B68     		ldr	r3, [r7]
 260 0082 0B44     		add	r3, r3, r1
 261              		.loc 1 38 24
 262 0084 D2B2     		uxtb	r2, r2
 263              		.loc 1 38 22
 264 0086 1A70     		strb	r2, [r3]
  39:User/Hardware/uart_protocol.c ****     frame_buf[idx++] = (uint8_t)((data->head_motor_angle >> 8) & 0xFF);
 265              		.loc 1 39 39
 266 0088 7B68     		ldr	r3, [r7, #4]
 267 008a B3F90230 		ldrsh	r3, [r3, #2]
 268              		.loc 1 39 24
 269 008e 1B12     		asrs	r3, r3, #8
 270 0090 1AB2     		sxth	r2, r3
 271              		.loc 1 39 18
 272 0092 FB7D     		ldrb	r3, [r7, #23]	@ zero_extendqisi2
 273 0094 591C     		adds	r1, r3, #1
 274 0096 F975     		strb	r1, [r7, #23]
 275 0098 1946     		mov	r1, r3
 276              		.loc 1 39 14
 277 009a 3B68     		ldr	r3, [r7]
 278 009c 0B44     		add	r3, r3, r1
 279              		.loc 1 39 24
 280 009e D2B2     		uxtb	r2, r2
 281              		.loc 1 39 22
 282 00a0 1A70     		strb	r2, [r3]
 283              	.LBB4:
  40:User/Hardware/uart_protocol.c ****     // 11路机械臂/舵机角度
  41:User/Hardware/uart_protocol.c ****     for (int i = 0; i < 11; i++)
 284              		.loc 1 41 14
 285 00a2 0023     		movs	r3, #0
 286 00a4 3B61     		str	r3, [r7, #16]
 287              		.loc 1 41 5
 288 00a6 20E0     		b	.L10
 289              	.L11:
  42:User/Hardware/uart_protocol.c ****     {
  43:User/Hardware/uart_protocol.c ****         frame_buf[idx++] = (uint8_t)(data->arm_servo_angles[i] & 0xFF);
 290              		.loc 1 43 60
 291 00a8 7A68     		ldr	r2, [r7, #4]
 292 00aa 3B69     		ldr	r3, [r7, #16]
 293 00ac 5B00     		lsls	r3, r3, #1
 294 00ae 1344     		add	r3, r3, r2
ARM GAS  C:\Users\Administrator\AppData\Local\Temp\ccQocC2h.s 			page 7


 295 00b0 B3F90420 		ldrsh	r2, [r3, #4]
 296              		.loc 1 43 22
 297 00b4 FB7D     		ldrb	r3, [r7, #23]	@ zero_extendqisi2
 298 00b6 591C     		adds	r1, r3, #1
 299 00b8 F975     		strb	r1, [r7, #23]
 300 00ba 1946     		mov	r1, r3
 301              		.loc 1 43 18
 302 00bc 3B68     		ldr	r3, [r7]
 303 00be 0B44     		add	r3, r3, r1
 304              		.loc 1 43 28
 305 00c0 D2B2     		uxtb	r2, r2
 306              		.loc 1 43 26
 307 00c2 1A70     		strb	r2, [r3]
  44:User/Hardware/uart_protocol.c ****         frame_buf[idx++] = (uint8_t)((data->arm_servo_angles[i] >> 8) & 0xFF);
 308              		.loc 1 44 61
 309 00c4 7A68     		ldr	r2, [r7, #4]
 310 00c6 3B69     		ldr	r3, [r7, #16]
 311 00c8 5B00     		lsls	r3, r3, #1
 312 00ca 1344     		add	r3, r3, r2
 313 00cc B3F90430 		ldrsh	r3, [r3, #4]
 314              		.loc 1 44 28
 315 00d0 1B12     		asrs	r3, r3, #8
 316 00d2 1AB2     		sxth	r2, r3
 317              		.loc 1 44 22
 318 00d4 FB7D     		ldrb	r3, [r7, #23]	@ zero_extendqisi2
 319 00d6 591C     		adds	r1, r3, #1
 320 00d8 F975     		strb	r1, [r7, #23]
 321 00da 1946     		mov	r1, r3
 322              		.loc 1 44 18
 323 00dc 3B68     		ldr	r3, [r7]
 324 00de 0B44     		add	r3, r3, r1
 325              		.loc 1 44 28
 326 00e0 D2B2     		uxtb	r2, r2
 327              		.loc 1 44 26
 328 00e2 1A70     		strb	r2, [r3]
  41:User/Hardware/uart_protocol.c ****     {
 329              		.loc 1 41 30 discriminator 3
 330 00e4 3B69     		ldr	r3, [r7, #16]
 331 00e6 0133     		adds	r3, r3, #1
 332 00e8 3B61     		str	r3, [r7, #16]
 333              	.L10:
  41:User/Hardware/uart_protocol.c ****     {
 334              		.loc 1 41 23 discriminator 1
 335 00ea 3B69     		ldr	r3, [r7, #16]
 336 00ec 0A2B     		cmp	r3, #10
 337 00ee DBDD     		ble	.L11
 338              	.LBE4:
  45:User/Hardware/uart_protocol.c ****     }
  46:User/Hardware/uart_protocol.c ****     // 升降杆高度
  47:User/Hardware/uart_protocol.c ****     frame_buf[idx++] = (uint8_t)(data->lift_height & 0xFF);
 339              		.loc 1 47 38
 340 00f0 7B68     		ldr	r3, [r7, #4]
 341 00f2 5A8B     		ldrh	r2, [r3, #26]
 342              		.loc 1 47 18
 343 00f4 FB7D     		ldrb	r3, [r7, #23]	@ zero_extendqisi2
 344 00f6 591C     		adds	r1, r3, #1
 345 00f8 F975     		strb	r1, [r7, #23]
ARM GAS  C:\Users\Administrator\AppData\Local\Temp\ccQocC2h.s 			page 8


 346 00fa 1946     		mov	r1, r3
 347              		.loc 1 47 14
 348 00fc 3B68     		ldr	r3, [r7]
 349 00fe 0B44     		add	r3, r3, r1
 350              		.loc 1 47 24
 351 0100 D2B2     		uxtb	r2, r2
 352              		.loc 1 47 22
 353 0102 1A70     		strb	r2, [r3]
  48:User/Hardware/uart_protocol.c ****     frame_buf[idx++] = (uint8_t)((data->lift_height >> 8) & 0xFF);
 354              		.loc 1 48 39
 355 0104 7B68     		ldr	r3, [r7, #4]
 356 0106 5B8B     		ldrh	r3, [r3, #26]
 357              		.loc 1 48 24
 358 0108 1B0A     		lsrs	r3, r3, #8
 359 010a 9AB2     		uxth	r2, r3
 360              		.loc 1 48 18
 361 010c FB7D     		ldrb	r3, [r7, #23]	@ zero_extendqisi2
 362 010e 591C     		adds	r1, r3, #1
 363 0110 F975     		strb	r1, [r7, #23]
 364 0112 1946     		mov	r1, r3
 365              		.loc 1 48 14
 366 0114 3B68     		ldr	r3, [r7]
 367 0116 0B44     		add	r3, r3, r1
 368              		.loc 1 48 24
 369 0118 D2B2     		uxtb	r2, r2
 370              		.loc 1 48 22
 371 011a 1A70     		strb	r2, [r3]
  49:User/Hardware/uart_protocol.c ****     // 5. CRC16校验（帧类型+数据长度+数据域）
  50:User/Hardware/uart_protocol.c ****     uint16_t crc = crc16_ccitt(&frame_buf[2], UP_DATA_LEN + 2); // 2=帧类型+数据长度
 372              		.loc 1 50 20
 373 011c 3B68     		ldr	r3, [r7]
 374 011e 0233     		adds	r3, r3, #2
 375 0120 1E21     		movs	r1, #30
 376 0122 1846     		mov	r0, r3
 377 0124 FFF7FEFF 		bl	crc16_ccitt
 378 0128 0346     		mov	r3, r0
 379 012a FB81     		strh	r3, [r7, #14]	@ movhi
  51:User/Hardware/uart_protocol.c ****     frame_buf[idx++] = (uint8_t)(crc & 0xFF);
 380              		.loc 1 51 18
 381 012c FB7D     		ldrb	r3, [r7, #23]	@ zero_extendqisi2
 382 012e 5A1C     		adds	r2, r3, #1
 383 0130 FA75     		strb	r2, [r7, #23]
 384 0132 1A46     		mov	r2, r3
 385              		.loc 1 51 14
 386 0134 3B68     		ldr	r3, [r7]
 387 0136 1344     		add	r3, r3, r2
 388              		.loc 1 51 24
 389 0138 FA89     		ldrh	r2, [r7, #14]	@ movhi
 390 013a D2B2     		uxtb	r2, r2
 391              		.loc 1 51 22
 392 013c 1A70     		strb	r2, [r3]
  52:User/Hardware/uart_protocol.c ****     frame_buf[idx++] = (uint8_t)((crc >> 8) & 0xFF);
 393              		.loc 1 52 24
 394 013e FB89     		ldrh	r3, [r7, #14]
 395 0140 1B0A     		lsrs	r3, r3, #8
 396 0142 9AB2     		uxth	r2, r3
 397              		.loc 1 52 18
ARM GAS  C:\Users\Administrator\AppData\Local\Temp\ccQocC2h.s 			page 9


 398 0144 FB7D     		ldrb	r3, [r7, #23]	@ zero_extendqisi2
 399 0146 591C     		adds	r1, r3, #1
 400 0148 F975     		strb	r1, [r7, #23]
 401 014a 1946     		mov	r1, r3
 402              		.loc 1 52 14
 403 014c 3B68     		ldr	r3, [r7]
 404 014e 0B44     		add	r3, r3, r1
 405              		.loc 1 52 24
 406 0150 D2B2     		uxtb	r2, r2
 407              		.loc 1 52 22
 408 0152 1A70     		strb	r2, [r3]
  53:User/Hardware/uart_protocol.c ****     // 6. 帧尾
  54:User/Hardware/uart_protocol.c ****     frame_buf[idx++] = FRAME_TAIL1;
 409              		.loc 1 54 18
 410 0154 FB7D     		ldrb	r3, [r7, #23]	@ zero_extendqisi2
 411 0156 5A1C     		adds	r2, r3, #1
 412 0158 FA75     		strb	r2, [r7, #23]
 413 015a 1A46     		mov	r2, r3
 414              		.loc 1 54 14
 415 015c 3B68     		ldr	r3, [r7]
 416 015e 1344     		add	r3, r3, r2
 417              		.loc 1 54 22
 418 0160 EE22     		movs	r2, #238
 419 0162 1A70     		strb	r2, [r3]
  55:User/Hardware/uart_protocol.c ****     frame_buf[idx++] = FRAME_TAIL2;
 420              		.loc 1 55 18
 421 0164 FB7D     		ldrb	r3, [r7, #23]	@ zero_extendqisi2
 422 0166 5A1C     		adds	r2, r3, #1
 423 0168 FA75     		strb	r2, [r7, #23]
 424 016a 1A46     		mov	r2, r3
 425              		.loc 1 55 14
 426 016c 3B68     		ldr	r3, [r7]
 427 016e 1344     		add	r3, r3, r2
 428              		.loc 1 55 22
 429 0170 FF22     		movs	r2, #255
 430 0172 1A70     		strb	r2, [r3]
  56:User/Hardware/uart_protocol.c **** }
 431              		.loc 1 56 1
 432 0174 00BF     		nop
 433 0176 1837     		adds	r7, r7, #24
 434              	.LCFI9:
 435              		.cfi_def_cfa_offset 8
 436 0178 BD46     		mov	sp, r7
 437              	.LCFI10:
 438              		.cfi_def_cfa_register 13
 439              		@ sp needed
 440 017a 80BD     		pop	{r7, pc}
 441              		.cfi_endproc
 442              	.LFE145:
 444              		.section	.text.unpack_dn_frame,"ax",%progbits
 445              		.align	1
 446              		.global	unpack_dn_frame
 447              		.syntax unified
 448              		.thumb
 449              		.thumb_func
 451              	unpack_dn_frame:
 452              	.LFB146:
ARM GAS  C:\Users\Administrator\AppData\Local\Temp\ccQocC2h.s 			page 10


  57:User/Hardware/uart_protocol.c **** 
  58:User/Hardware/uart_protocol.c **** // 解析下行帧（主机→STM32）
  59:User/Hardware/uart_protocol.c **** void unpack_dn_frame(uint8_t *frame_buf, DnData_t *data)
  60:User/Hardware/uart_protocol.c **** {
 453              		.loc 1 60 1
 454              		.cfi_startproc
 455              		@ args = 0, pretend = 0, frame = 16
 456              		@ frame_needed = 1, uses_anonymous_args = 0
 457              		@ link register save eliminated.
 458 0000 80B4     		push	{r7}
 459              	.LCFI11:
 460              		.cfi_def_cfa_offset 4
 461              		.cfi_offset 7, -4
 462 0002 85B0     		sub	sp, sp, #20
 463              	.LCFI12:
 464              		.cfi_def_cfa_offset 24
 465 0004 00AF     		add	r7, sp, #0
 466              	.LCFI13:
 467              		.cfi_def_cfa_register 7
 468 0006 7860     		str	r0, [r7, #4]
 469 0008 3960     		str	r1, [r7]
  61:User/Hardware/uart_protocol.c ****     uint8_t idx = 4; // 跳过帧头(2)+帧类型(1)+数据长度(1)
 470              		.loc 1 61 13
 471 000a 0423     		movs	r3, #4
 472 000c FB73     		strb	r3, [r7, #15]
 473              	.LBB5:
  62:User/Hardware/uart_protocol.c ****     // 12路目标角度
  63:User/Hardware/uart_protocol.c ****     for (int i = 0; i < 12; i++)
 474              		.loc 1 63 14
 475 000e 0023     		movs	r3, #0
 476 0010 BB60     		str	r3, [r7, #8]
 477              		.loc 1 63 5
 478 0012 18E0     		b	.L13
 479              	.L14:
  64:User/Hardware/uart_protocol.c ****     {
  65:User/Hardware/uart_protocol.c ****         data->pc_target_angles[i] = (int16_t)(frame_buf[idx] | (frame_buf[idx + 1] << 8));
 480              		.loc 1 65 56
 481 0014 FB7B     		ldrb	r3, [r7, #15]	@ zero_extendqisi2
 482 0016 7A68     		ldr	r2, [r7, #4]
 483 0018 1344     		add	r3, r3, r2
 484 001a 1B78     		ldrb	r3, [r3]	@ zero_extendqisi2
 485 001c 1AB2     		sxth	r2, r3
 486              		.loc 1 65 74
 487 001e FB7B     		ldrb	r3, [r7, #15]	@ zero_extendqisi2
 488 0020 0133     		adds	r3, r3, #1
 489 0022 7968     		ldr	r1, [r7, #4]
 490 0024 0B44     		add	r3, r3, r1
 491 0026 1B78     		ldrb	r3, [r3]	@ zero_extendqisi2
 492              		.loc 1 65 37
 493 0028 1BB2     		sxth	r3, r3
 494 002a 1B02     		lsls	r3, r3, #8
 495 002c 1BB2     		sxth	r3, r3
 496 002e 1343     		orrs	r3, r3, r2
 497 0030 19B2     		sxth	r1, r3
 498              		.loc 1 65 35
 499 0032 3B68     		ldr	r3, [r7]
 500 0034 BA68     		ldr	r2, [r7, #8]
ARM GAS  C:\Users\Administrator\AppData\Local\Temp\ccQocC2h.s 			page 11


 501 0036 23F81210 		strh	r1, [r3, r2, lsl #1]	@ movhi
  66:User/Hardware/uart_protocol.c ****         idx += 2;
 502              		.loc 1 66 13
 503 003a FB7B     		ldrb	r3, [r7, #15]
 504 003c 0233     		adds	r3, r3, #2
 505 003e FB73     		strb	r3, [r7, #15]
  63:User/Hardware/uart_protocol.c ****     {
 506              		.loc 1 63 30 discriminator 3
 507 0040 BB68     		ldr	r3, [r7, #8]
 508 0042 0133     		adds	r3, r3, #1
 509 0044 BB60     		str	r3, [r7, #8]
 510              	.L13:
  63:User/Hardware/uart_protocol.c ****     {
 511              		.loc 1 63 23 discriminator 1
 512 0046 BB68     		ldr	r3, [r7, #8]
 513 0048 0B2B     		cmp	r3, #11
 514 004a E3DD     		ble	.L14
 515              	.LBE5:
  67:User/Hardware/uart_protocol.c ****     }
  68:User/Hardware/uart_protocol.c ****     // 气泵状态
  69:User/Hardware/uart_protocol.c ****     data->pc_pump_state = frame_buf[idx++];
 516              		.loc 1 69 40
 517 004c FB7B     		ldrb	r3, [r7, #15]	@ zero_extendqisi2
 518 004e 5A1C     		adds	r2, r3, #1
 519 0050 FA73     		strb	r2, [r7, #15]
 520 0052 1A46     		mov	r2, r3
 521              		.loc 1 69 36
 522 0054 7B68     		ldr	r3, [r7, #4]
 523 0056 1344     		add	r3, r3, r2
 524 0058 1A78     		ldrb	r2, [r3]	@ zero_extendqisi2
 525              		.loc 1 69 25
 526 005a 3B68     		ldr	r3, [r7]
 527 005c 1A76     		strb	r2, [r3, #24]
  70:User/Hardware/uart_protocol.c ****     // 升降杆目标高度
  71:User/Hardware/uart_protocol.c ****     data->pc_target_lift_height = (uint16_t)((frame_buf[idx] | (frame_buf[idx + 1] << 8))/10);
 528              		.loc 1 71 56
 529 005e FB7B     		ldrb	r3, [r7, #15]	@ zero_extendqisi2
 530 0060 7A68     		ldr	r2, [r7, #4]
 531 0062 1344     		add	r3, r3, r2
 532 0064 1B78     		ldrb	r3, [r3]	@ zero_extendqisi2
 533 0066 1946     		mov	r1, r3
 534              		.loc 1 71 74
 535 0068 FB7B     		ldrb	r3, [r7, #15]	@ zero_extendqisi2
 536 006a 0133     		adds	r3, r3, #1
 537 006c 7A68     		ldr	r2, [r7, #4]
 538 006e 1344     		add	r3, r3, r2
 539 0070 1B78     		ldrb	r3, [r3]	@ zero_extendqisi2
 540              		.loc 1 71 84
 541 0072 1B02     		lsls	r3, r3, #8
 542              		.loc 1 71 62
 543 0074 0B43     		orrs	r3, r3, r1
 544              		.loc 1 71 90
 545 0076 074A     		ldr	r2, .L15
 546 0078 82FB0312 		smull	r1, r2, r2, r3
 547 007c 9210     		asrs	r2, r2, #2
 548 007e DB17     		asrs	r3, r3, #31
 549 0080 D31A     		subs	r3, r2, r3
ARM GAS  C:\Users\Administrator\AppData\Local\Temp\ccQocC2h.s 			page 12


 550              		.loc 1 71 35
 551 0082 9AB2     		uxth	r2, r3
 552              		.loc 1 71 33
 553 0084 3B68     		ldr	r3, [r7]
 554 0086 5A83     		strh	r2, [r3, #26]	@ movhi
  72:User/Hardware/uart_protocol.c **** }
 555              		.loc 1 72 1
 556 0088 00BF     		nop
 557 008a 1437     		adds	r7, r7, #20
 558              	.LCFI14:
 559              		.cfi_def_cfa_offset 4
 560 008c BD46     		mov	sp, r7
 561              	.LCFI15:
 562              		.cfi_def_cfa_register 13
 563              		@ sp needed
 564 008e 5DF8047B 		ldr	r7, [sp], #4
 565              	.LCFI16:
 566              		.cfi_restore 7
 567              		.cfi_def_cfa_offset 0
 568 0092 7047     		bx	lr
 569              	.L16:
 570              		.align	2
 571              	.L15:
 572 0094 67666666 		.word	1717986919
 573              		.cfi_endproc
 574              	.LFE146:
 576              		.section	.text.send_frame,"ax",%progbits
 577              		.align	1
 578              		.global	send_frame
 579              		.syntax unified
 580              		.thumb
 581              		.thumb_func
 583              	send_frame:
 584              	.LFB147:
  73:User/Hardware/uart_protocol.c **** 
  74:User/Hardware/uart_protocol.c **** // 发送帧（带超时）
  75:User/Hardware/uart_protocol.c **** HAL_StatusTypeDef send_frame(UART_HandleTypeDef *huart, uint8_t *frame_buf, uint16_t len)
  76:User/Hardware/uart_protocol.c **** {
 585              		.loc 1 76 1
 586              		.cfi_startproc
 587              		@ args = 0, pretend = 0, frame = 16
 588              		@ frame_needed = 1, uses_anonymous_args = 0
 589 0000 80B5     		push	{r7, lr}
 590              	.LCFI17:
 591              		.cfi_def_cfa_offset 8
 592              		.cfi_offset 7, -8
 593              		.cfi_offset 14, -4
 594 0002 84B0     		sub	sp, sp, #16
 595              	.LCFI18:
 596              		.cfi_def_cfa_offset 24
 597 0004 00AF     		add	r7, sp, #0
 598              	.LCFI19:
 599              		.cfi_def_cfa_register 7
 600 0006 F860     		str	r0, [r7, #12]
 601 0008 B960     		str	r1, [r7, #8]
 602 000a 1346     		mov	r3, r2
 603 000c FB80     		strh	r3, [r7, #6]	@ movhi
ARM GAS  C:\Users\Administrator\AppData\Local\Temp\ccQocC2h.s 			page 13


  77:User/Hardware/uart_protocol.c ****     return HAL_UART_Transmit(huart, frame_buf, len, 100); // 超时100ms
 604              		.loc 1 77 12
 605 000e FA88     		ldrh	r2, [r7, #6]
 606 0010 6423     		movs	r3, #100
 607 0012 B968     		ldr	r1, [r7, #8]
 608 0014 F868     		ldr	r0, [r7, #12]
 609 0016 FFF7FEFF 		bl	HAL_UART_Transmit
 610 001a 0346     		mov	r3, r0
  78:User/Hardware/uart_protocol.c **** }
 611              		.loc 1 78 1
 612 001c 1846     		mov	r0, r3
 613 001e 1037     		adds	r7, r7, #16
 614              	.LCFI20:
 615              		.cfi_def_cfa_offset 8
 616 0020 BD46     		mov	sp, r7
 617              	.LCFI21:
 618              		.cfi_def_cfa_register 13
 619              		@ sp needed
 620 0022 80BD     		pop	{r7, pc}
 621              		.cfi_endproc
 622              	.LFE147:
 624              		.section	.text.store_uart_protocol_data,"ax",%progbits
 625              		.align	1
 626              		.global	store_uart_protocol_data
 627              		.syntax unified
 628              		.thumb
 629              		.thumb_func
 631              	store_uart_protocol_data:
 632              	.LFB148:
  79:User/Hardware/uart_protocol.c **** void store_uart_protocol_data(const uint8_t *data, uint16_t size)
  80:User/Hardware/uart_protocol.c **** {
 633              		.loc 1 80 1
 634              		.cfi_startproc
 635              		@ args = 0, pretend = 0, frame = 16
 636              		@ frame_needed = 1, uses_anonymous_args = 0
 637 0000 80B5     		push	{r7, lr}
 638              	.LCFI22:
 639              		.cfi_def_cfa_offset 8
 640              		.cfi_offset 7, -8
 641              		.cfi_offset 14, -4
 642 0002 84B0     		sub	sp, sp, #16
 643              	.LCFI23:
 644              		.cfi_def_cfa_offset 24
 645 0004 00AF     		add	r7, sp, #0
 646              	.LCFI24:
 647              		.cfi_def_cfa_register 7
 648 0006 7860     		str	r0, [r7, #4]
 649 0008 0B46     		mov	r3, r1
 650 000a 7B80     		strh	r3, [r7, #2]	@ movhi
  81:User/Hardware/uart_protocol.c ****     if (data == NULL || size == 0)
 651              		.loc 1 81 8
 652 000c 7B68     		ldr	r3, [r7, #4]
 653 000e 002B     		cmp	r3, #0
 654 0010 1DD0     		beq	.L23
 655              		.loc 1 81 22 discriminator 1
 656 0012 7B88     		ldrh	r3, [r7, #2]
 657 0014 002B     		cmp	r3, #0
ARM GAS  C:\Users\Administrator\AppData\Local\Temp\ccQocC2h.s 			page 14


 658 0016 1AD0     		beq	.L23
  82:User/Hardware/uart_protocol.c ****     {
  83:User/Hardware/uart_protocol.c ****         return;
  84:User/Hardware/uart_protocol.c ****     }
  85:User/Hardware/uart_protocol.c **** 
  86:User/Hardware/uart_protocol.c ****     // 确保不会超出缓冲区大小
  87:User/Hardware/uart_protocol.c ****     uint16_t copy_size = (size > 256) ? 256 : size;
 659              		.loc 1 87 14
 660 0018 7B88     		ldrh	r3, [r7, #2]
 661 001a B3F5807F 		cmp	r3, #256
 662 001e 28BF     		it	cs
 663 0020 4FF48073 		movcs	r3, #256
 664 0024 FB81     		strh	r3, [r7, #14]	@ movhi
  88:User/Hardware/uart_protocol.c **** 
  89:User/Hardware/uart_protocol.c ****     // 使用memcpy安全地复制数据
  90:User/Hardware/uart_protocol.c ****     memcpy(uart_protocol_raw_data, data, copy_size);
 665              		.loc 1 90 5
 666 0026 FB89     		ldrh	r3, [r7, #14]
 667 0028 1A46     		mov	r2, r3
 668 002a 7968     		ldr	r1, [r7, #4]
 669 002c 0A48     		ldr	r0, .L24
 670 002e FFF7FEFF 		bl	memcpy
  91:User/Hardware/uart_protocol.c **** 
  92:User/Hardware/uart_protocol.c ****     // 如果数据小于256字节，剩余部分填充0
  93:User/Hardware/uart_protocol.c ****     if (copy_size < 256)
 671              		.loc 1 93 8
 672 0032 FB89     		ldrh	r3, [r7, #14]
 673 0034 FF2B     		cmp	r3, #255
 674 0036 0BD8     		bhi	.L19
  94:User/Hardware/uart_protocol.c ****     {
  95:User/Hardware/uart_protocol.c ****         memset(uart_protocol_raw_data + copy_size, 0, 256 - copy_size);
 675              		.loc 1 95 9
 676 0038 FB89     		ldrh	r3, [r7, #14]
 677 003a 074A     		ldr	r2, .L24
 678 003c 9818     		adds	r0, r3, r2
 679              		.loc 1 95 59
 680 003e FB89     		ldrh	r3, [r7, #14]
 681 0040 C3F58073 		rsb	r3, r3, #256
 682              		.loc 1 95 9
 683 0044 1A46     		mov	r2, r3
 684 0046 0021     		movs	r1, #0
 685 0048 FFF7FEFF 		bl	memset
 686 004c 00E0     		b	.L19
 687              	.L23:
  83:User/Hardware/uart_protocol.c ****     }
 688              		.loc 1 83 9
 689 004e 00BF     		nop
 690              	.L19:
  96:User/Hardware/uart_protocol.c ****     }
  97:User/Hardware/uart_protocol.c **** }...
 691              		.loc 1 97 1
 692 0050 1037     		adds	r7, r7, #16
 693              	.LCFI25:
 694              		.cfi_def_cfa_offset 8
 695 0052 BD46     		mov	sp, r7
 696              	.LCFI26:
 697              		.cfi_def_cfa_register 13
ARM GAS  C:\Users\Administrator\AppData\Local\Temp\ccQocC2h.s 			page 15


 698              		@ sp needed
 699 0054 80BD     		pop	{r7, pc}
 700              	.L25:
 701 0056 00BF     		.align	2
 702              	.L24:
 703 0058 00000000 		.word	uart_protocol_raw_data
 704              		.cfi_endproc
 705              	.LFE148:
 707              		.text
 708              	.Letext0:
 709              		.file 2 "C:/arm-toolchain/arm-gnu-toolchain-13.3.rel1-mingw-w64-i686-arm-none-eabi/arm-none-eabi/i
 710              		.file 3 "C:/arm-toolchain/arm-gnu-toolchain-13.3.rel1-mingw-w64-i686-arm-none-eabi/arm-none-eabi/i
 711              		.file 4 "Drivers/CMSIS/Device/ST/STM32H7xx/Include/stm32h723xx.h"
 712              		.file 5 "C:/arm-toolchain/arm-gnu-toolchain-13.3.rel1-mingw-w64-i686-arm-none-eabi/lib/gcc/arm-non
 713              		.file 6 "Drivers/STM32H7xx_HAL_Driver/Inc/stm32h7xx_hal_def.h"
 714              		.file 7 "Drivers/STM32H7xx_HAL_Driver/Inc/stm32h7xx_hal_dma.h"
 715              		.file 8 "Drivers/STM32H7xx_HAL_Driver/Inc/stm32h7xx_hal_uart.h"
 716              		.file 9 "User/Hardware/uart_protocol.h"
 717              		.file 10 "C:/arm-toolchain/arm-gnu-toolchain-13.3.rel1-mingw-w64-i686-arm-none-eabi/arm-none-eabi/
ARM GAS  C:\Users\Administrator\AppData\Local\Temp\ccQocC2h.s 			page 16

