ARM GAS  C:\Users\Godwin\AppData\Local\Temp\ccfJUVUO.s 			page 1


   1              		.cpu cortex-m7
   2              		.arch armv7e-m
   3              		.fpu fpv5-d16
   4              		.eabi_attribute 28, 1
   5              		.eabi_attribute 20, 1
   6              		.eabi_attribute 21, 1
   7              		.eabi_attribute 23, 3
   8              		.eabi_attribute 24, 1
   9              		.eabi_attribute 25, 1
  10              		.eabi_attribute 26, 1
  11              		.eabi_attribute 30, 6
  12              		.eabi_attribute 34, 1
  13              		.eabi_attribute 18, 4
  14              		.file	"UART_data_txrx.c"
  15              		.text
  16              	.Ltext0:
  17              		.cfi_sections	.debug_frame
  18              		.file 1 "User/BSP/UART_data_txrx.c"
  19              		.global	Flag_T13
  20              		.section	.bss.Flag_T13,"aw",%nobits
  21              		.align	2
  24              	Flag_T13:
  25 0000 00000000 		.space	4
  26              		.global	UART1_data
  27              		.section	.bss.UART1_data,"aw",%nobits
  28              		.align	2
  31              	UART1_data:
  32 0000 00000000 		.space	269
  32      00000000 
  32      00000000 
  32      00000000 
  32      00000000 
  33              		.global	UART2_data
  34              		.section	.bss.UART2_data,"aw",%nobits
  35              		.align	2
  38              	UART2_data:
  39 0000 00000000 		.space	269
  39      00000000 
  39      00000000 
  39      00000000 
  39      00000000 
  40              		.global	UART3_data
  41              		.section	.bss.UART3_data,"aw",%nobits
  42              		.align	2
  45              	UART3_data:
  46 0000 00000000 		.space	269
  46      00000000 
  46      00000000 
  46      00000000 
  46      00000000 
  47              		.global	UART5_data
  48              		.section	.bss.UART5_data,"aw",%nobits
  49              		.align	2
  52              	UART5_data:
  53 0000 00000000 		.space	269
  53      00000000 
  53      00000000 
ARM GAS  C:\Users\Godwin\AppData\Local\Temp\ccfJUVUO.s 			page 2


  53      00000000 
  53      00000000 
  54              		.global	UART7_data
  55              		.section	.bss.UART7_data,"aw",%nobits
  56              		.align	2
  59              	UART7_data:
  60 0000 00000000 		.space	269
  60      00000000 
  60      00000000 
  60      00000000 
  60      00000000 
  61              		.global	UART10_data
  62              		.section	.bss.UART10_data,"aw",%nobits
  63              		.align	2
  66              	UART10_data:
  67 0000 00000000 		.space	269
  67      00000000 
  67      00000000 
  67      00000000 
  67      00000000 
  68              		.section	.text.uart_init,"ax",%progbits
  69              		.align	1
  70              		.global	uart_init
  71              		.syntax unified
  72              		.thumb
  73              		.thumb_func
  75              	uart_init:
  76              	.LFB148:
   1:User/BSP/UART_data_txrx.c **** /**
   2:User/BSP/UART_data_txrx.c ****  * @file UART_data_txrx.c
   3:User/BSP/UART_data_txrx.c ****  * @author sethome
   4:User/BSP/UART_data_txrx.c ****  * @brief ´®żÚĘýľÝ·˘ËÍ˝ÓĘÜ
   5:User/BSP/UART_data_txrx.c ****  * @version 0.1
   6:User/BSP/UART_data_txrx.c ****  * @date 2022-11-20
   7:User/BSP/UART_data_txrx.c ****  *
   8:User/BSP/UART_data_txrx.c ****  * @copyright Copyright (c) 2022 sethome
   9:User/BSP/UART_data_txrx.c ****  *
  10:User/BSP/UART_data_txrx.c ****  */
  11:User/BSP/UART_data_txrx.c **** // #include "fifo.h"
  12:User/BSP/UART_data_txrx.c **** #include "stdio.h"
  13:User/BSP/UART_data_txrx.c **** #include "stdlib.h"
  14:User/BSP/UART_data_txrx.c **** #include "string.h"
  15:User/BSP/UART_data_txrx.c **** #include "fifo.h"
  16:User/BSP/UART_data_txrx.c **** #include "UART_data_txrx.h"
  17:User/BSP/UART_data_txrx.c **** #include "gom_protocol.h"
  18:User/BSP/UART_data_txrx.c **** #include "Sbus.h"
  19:User/BSP/UART_data_txrx.c **** #include "stp23l.h"
  20:User/BSP/UART_data_txrx.c **** uint32_t Flag_T13 = 0;
  21:User/BSP/UART_data_txrx.c **** 
  22:User/BSP/UART_data_txrx.c **** // DMAżŘÖĆ±äÁż
  23:User/BSP/UART_data_txrx.c **** extern DMA_HandleTypeDef hdma_uart5_rx; // ŇŁżŘĆ÷Ł¬˝öÓĂ˝ÓĘÜ
  24:User/BSP/UART_data_txrx.c **** extern DMA_HandleTypeDef hdma_uart7_rx; // ´®żÚ7Ł¬Á¬˝ÓµçÔ´ąÜŔíÄŁżé
  25:User/BSP/UART_data_txrx.c **** extern DMA_HandleTypeDef hdma_uart7_tx;
  26:User/BSP/UART_data_txrx.c **** extern DMA_HandleTypeDef hdma_usart10_rx; // ´®żÚ10Ł¬Á¬˝ÓÍĽ´«ÄŁżé
  27:User/BSP/UART_data_txrx.c **** extern DMA_HandleTypeDef hdma_usart10_tx;
  28:User/BSP/UART_data_txrx.c **** extern DMA_HandleTypeDef hdma_usart1_rx;
  29:User/BSP/UART_data_txrx.c **** extern DMA_HandleTypeDef hdma_usart1_tx;
ARM GAS  C:\Users\Godwin\AppData\Local\Temp\ccfJUVUO.s 			page 3


  30:User/BSP/UART_data_txrx.c **** extern DMA_HandleTypeDef hdma_usart2_rx;
  31:User/BSP/UART_data_txrx.c **** extern DMA_HandleTypeDef hdma_usart2_tx;
  32:User/BSP/UART_data_txrx.c **** extern DMA_HandleTypeDef hdma_usart3_rx;
  33:User/BSP/UART_data_txrx.c **** extern DMA_HandleTypeDef hdma_usart3_tx;
  34:User/BSP/UART_data_txrx.c **** 
  35:User/BSP/UART_data_txrx.c **** // ´®żÚżŘÖĆ±äÁż
  36:User/BSP/UART_data_txrx.c **** extern UART_HandleTypeDef huart1;
  37:User/BSP/UART_data_txrx.c **** extern UART_HandleTypeDef huart2;
  38:User/BSP/UART_data_txrx.c **** extern UART_HandleTypeDef huart3;
  39:User/BSP/UART_data_txrx.c **** extern UART_HandleTypeDef huart5; // ŇŁżŘĆ÷Ł¬żÉÄÜÓĂ˛»µ˝
  40:User/BSP/UART_data_txrx.c **** extern UART_HandleTypeDef huart7;
  41:User/BSP/UART_data_txrx.c **** extern UART_HandleTypeDef huart10;
  42:User/BSP/UART_data_txrx.c **** 
  43:User/BSP/UART_data_txrx.c **** // ˝«ÉĎĘö´®żÚ+DMAŐűşĎŁ¬˛˘°üş¬»şłĺÇř
  44:User/BSP/UART_data_txrx.c **** transmit_data UART1_data;
  45:User/BSP/UART_data_txrx.c **** transmit_data UART2_data;
  46:User/BSP/UART_data_txrx.c **** transmit_data UART3_data;
  47:User/BSP/UART_data_txrx.c **** transmit_data UART5_data;
  48:User/BSP/UART_data_txrx.c **** transmit_data UART7_data;
  49:User/BSP/UART_data_txrx.c **** transmit_data UART10_data;
  50:User/BSP/UART_data_txrx.c **** 
  51:User/BSP/UART_data_txrx.c **** /**
  52:User/BSP/UART_data_txrx.c ****  * @brief ´®żÚłőĘĽ»Ż
  53:User/BSP/UART_data_txrx.c ****  *
  54:User/BSP/UART_data_txrx.c ****  * @return * void
  55:User/BSP/UART_data_txrx.c ****  */
  56:User/BSP/UART_data_txrx.c **** void uart_init(void)
  57:User/BSP/UART_data_txrx.c **** {
  77              		.loc 1 57 1
  78              		.cfi_startproc
  79              		@ args = 0, pretend = 0, frame = 0
  80              		@ frame_needed = 1, uses_anonymous_args = 0
  81 0000 80B5     		push	{r7, lr}
  82              	.LCFI0:
  83              		.cfi_def_cfa_offset 8
  84              		.cfi_offset 7, -8
  85              		.cfi_offset 14, -4
  86 0002 00AF     		add	r7, sp, #0
  87              	.LCFI1:
  88              		.cfi_def_cfa_register 7
  58:User/BSP/UART_data_txrx.c ****   UART_DMA_rxtx_start(&UART1_data, &huart1, &hdma_usart1_rx, &hdma_usart1_rx);
  89              		.loc 1 58 3
  90 0004 0F4B     		ldr	r3, .L2
  91 0006 0F4A     		ldr	r2, .L2
  92 0008 0F49     		ldr	r1, .L2+4
  93 000a 1048     		ldr	r0, .L2+8
  94 000c FFF7FEFF 		bl	UART_DMA_rxtx_start
  59:User/BSP/UART_data_txrx.c ****   // UART_DMA_rxtx_start(&UART2_data, &huart2, &hdma_usart2_rx, &hdma_usart2_rx);
  60:User/BSP/UART_data_txrx.c ****   UART_DMA_rxtx_start(&UART3_data, &huart3, &hdma_usart3_rx, &hdma_usart3_rx);
  95              		.loc 1 60 3
  96 0010 0F4B     		ldr	r3, .L2+12
  97 0012 0F4A     		ldr	r2, .L2+12
  98 0014 0F49     		ldr	r1, .L2+16
  99 0016 1048     		ldr	r0, .L2+20
 100 0018 FFF7FEFF 		bl	UART_DMA_rxtx_start
  61:User/BSP/UART_data_txrx.c ****   UART_DMA_rxtx_start(&UART5_data, &huart5, &hdma_uart5_rx, &hdma_uart5_rx);
 101              		.loc 1 61 3
ARM GAS  C:\Users\Godwin\AppData\Local\Temp\ccfJUVUO.s 			page 4


 102 001c 0F4B     		ldr	r3, .L2+24
 103 001e 0F4A     		ldr	r2, .L2+24
 104 0020 0F49     		ldr	r1, .L2+28
 105 0022 1048     		ldr	r0, .L2+32
 106 0024 FFF7FEFF 		bl	UART_DMA_rxtx_start
  62:User/BSP/UART_data_txrx.c ****   UART_DMA_rxtx_start(&UART7_data, &huart7, &hdma_uart7_rx, &hdma_uart7_tx);
 107              		.loc 1 62 3
 108 0028 0F4B     		ldr	r3, .L2+36
 109 002a 104A     		ldr	r2, .L2+40
 110 002c 1049     		ldr	r1, .L2+44
 111 002e 1148     		ldr	r0, .L2+48
 112 0030 FFF7FEFF 		bl	UART_DMA_rxtx_start
  63:User/BSP/UART_data_txrx.c ****   UART_DMA_rxtx_start(&UART10_data, &huart10, &hdma_usart10_rx, &hdma_usart10_tx);
 113              		.loc 1 63 3
 114 0034 104B     		ldr	r3, .L2+52
 115 0036 114A     		ldr	r2, .L2+56
 116 0038 1149     		ldr	r1, .L2+60
 117 003a 1248     		ldr	r0, .L2+64
 118 003c FFF7FEFF 		bl	UART_DMA_rxtx_start
  64:User/BSP/UART_data_txrx.c **** }
 119              		.loc 1 64 1
 120 0040 00BF     		nop
 121 0042 80BD     		pop	{r7, pc}
 122              	.L3:
 123              		.align	2
 124              	.L2:
 125 0044 00000000 		.word	hdma_usart1_rx
 126 0048 00000000 		.word	huart1
 127 004c 00000000 		.word	UART1_data
 128 0050 00000000 		.word	hdma_usart3_rx
 129 0054 00000000 		.word	huart3
 130 0058 00000000 		.word	UART3_data
 131 005c 00000000 		.word	hdma_uart5_rx
 132 0060 00000000 		.word	huart5
 133 0064 00000000 		.word	UART5_data
 134 0068 00000000 		.word	hdma_uart7_tx
 135 006c 00000000 		.word	hdma_uart7_rx
 136 0070 00000000 		.word	huart7
 137 0074 00000000 		.word	UART7_data
 138 0078 00000000 		.word	hdma_usart10_tx
 139 007c 00000000 		.word	hdma_usart10_rx
 140 0080 00000000 		.word	huart10
 141 0084 00000000 		.word	UART10_data
 142              		.cfi_endproc
 143              	.LFE148:
 145              		.section	.text.UART_DMA_rxtx_start,"ax",%progbits
 146              		.align	1
 147              		.global	UART_DMA_rxtx_start
 148              		.syntax unified
 149              		.thumb
 150              		.thumb_func
 152              	UART_DMA_rxtx_start:
 153              	.LFB149:
  65:User/BSP/UART_data_txrx.c **** 
  66:User/BSP/UART_data_txrx.c **** /**
  67:User/BSP/UART_data_txrx.c ****  * @brief DMAŁ¬´®żÚÖĐ¶ĎĆô¶ŻŁ¬©d(?¦Ř?`)oÎÂÜ°ĚáĘľŁ¬żÉŇÔÔÚÍ·ÎÄĽţŔďÓĂşę×Ô¶¨Ňĺ´®żÚ»şłĺÇř´óĐˇŁ¬
  68:User/BSP/UART_data_txrx.c ****  * @param data ´®żÚŐűşĎ°üÖ¸Őë
ARM GAS  C:\Users\Godwin\AppData\Local\Temp\ccfJUVUO.s 			page 5


  69:User/BSP/UART_data_txrx.c ****  * @param huart ´®żÚÖ¸Őë
  70:User/BSP/UART_data_txrx.c ****  * @param hdma_usart_rx ´®żÚ˝ÓĘÜdmaÖ¸Őë
  71:User/BSP/UART_data_txrx.c ****  * @param hdma_usart_tx ´®żÚ·˘ËÍdmaÖ¸Őë
  72:User/BSP/UART_data_txrx.c ****  */
  73:User/BSP/UART_data_txrx.c **** void UART_DMA_rxtx_start(transmit_data *data, UART_HandleTypeDef *huart, DMA_HandleTypeDef *hdma_us
  74:User/BSP/UART_data_txrx.c **** {
 154              		.loc 1 74 1
 155              		.cfi_startproc
 156              		@ args = 0, pretend = 0, frame = 16
 157              		@ frame_needed = 1, uses_anonymous_args = 0
 158 0000 80B5     		push	{r7, lr}
 159              	.LCFI2:
 160              		.cfi_def_cfa_offset 8
 161              		.cfi_offset 7, -8
 162              		.cfi_offset 14, -4
 163 0002 84B0     		sub	sp, sp, #16
 164              	.LCFI3:
 165              		.cfi_def_cfa_offset 24
 166 0004 00AF     		add	r7, sp, #0
 167              	.LCFI4:
 168              		.cfi_def_cfa_register 7
 169 0006 F860     		str	r0, [r7, #12]
 170 0008 B960     		str	r1, [r7, #8]
 171 000a 7A60     		str	r2, [r7, #4]
 172 000c 3B60     		str	r3, [r7]
  75:User/BSP/UART_data_txrx.c ****   data->huart = huart;                 // ´®żÚżŘÖĆ±äÁż
 173              		.loc 1 75 15
 174 000e FB68     		ldr	r3, [r7, #12]
 175 0010 BA68     		ldr	r2, [r7, #8]
 176 0012 1A60     		str	r2, [r3]	@ unaligned
  76:User/BSP/UART_data_txrx.c ****   data->hdma_usart_rx = hdma_usart_rx; // DMA˝ÓĘŐ»şłĺ
 177              		.loc 1 76 23
 178 0014 FB68     		ldr	r3, [r7, #12]
 179 0016 7A68     		ldr	r2, [r7, #4]
 180 0018 5A60     		str	r2, [r3, #4]	@ unaligned
  77:User/BSP/UART_data_txrx.c ****   data->hdma_usart_tx = hdma_usart_tx; // DMA·˘ËÍ»şłĺ
 181              		.loc 1 77 23
 182 001a FB68     		ldr	r3, [r7, #12]
 183 001c 3A68     		ldr	r2, [r7]
 184 001e 9A60     		str	r2, [r3, #8]	@ unaligned
  78:User/BSP/UART_data_txrx.c **** 
  79:User/BSP/UART_data_txrx.c ****   HAL_UARTEx_ReceiveToIdle_DMA(huart, data->rev_data, UART_BUFFER_SIZE); // żŞĆôDMAĹúÁżĘýľÝ˝ÓĘÜ
 185              		.loc 1 79 43
 186 0020 FB68     		ldr	r3, [r7, #12]
 187 0022 0C33     		adds	r3, r3, #12
 188              		.loc 1 79 3
 189 0024 4FF48072 		mov	r2, #256
 190 0028 1946     		mov	r1, r3
 191 002a B868     		ldr	r0, [r7, #8]
 192 002c FFF7FEFF 		bl	HAL_UARTEx_ReceiveToIdle_DMA
  80:User/BSP/UART_data_txrx.c ****   __HAL_DMA_DISABLE_IT(huart->hdmarx, DMA_IT_HT);                        // ąŘ±Ő˝ÓĘÜąý°ëÖĐ¶Ď
 193              		.loc 1 80 3
 194 0030 BB68     		ldr	r3, [r7, #8]
 195 0032 D3F88030 		ldr	r3, [r3, #128]
 196 0036 1B68     		ldr	r3, [r3]
 197 0038 444A     		ldr	r2, .L8
 198 003a 9342     		cmp	r3, r2
ARM GAS  C:\Users\Godwin\AppData\Local\Temp\ccfJUVUO.s 			page 6


 199 003c 68D0     		beq	.L5
 200              		.loc 1 80 3 is_stmt 0 discriminator 2
 201 003e BB68     		ldr	r3, [r7, #8]
 202 0040 D3F88030 		ldr	r3, [r3, #128]
 203 0044 1B68     		ldr	r3, [r3]
 204 0046 424A     		ldr	r2, .L8+4
 205 0048 9342     		cmp	r3, r2
 206 004a 61D0     		beq	.L5
 207              		.loc 1 80 3 discriminator 4
 208 004c BB68     		ldr	r3, [r7, #8]
 209 004e D3F88030 		ldr	r3, [r3, #128]
 210 0052 1B68     		ldr	r3, [r3]
 211 0054 3F4A     		ldr	r2, .L8+8
 212 0056 9342     		cmp	r3, r2
 213 0058 5AD0     		beq	.L5
 214              		.loc 1 80 3 discriminator 6
 215 005a BB68     		ldr	r3, [r7, #8]
 216 005c D3F88030 		ldr	r3, [r3, #128]
 217 0060 1B68     		ldr	r3, [r3]
 218 0062 3D4A     		ldr	r2, .L8+12
 219 0064 9342     		cmp	r3, r2
 220 0066 53D0     		beq	.L5
 221              		.loc 1 80 3 discriminator 8
 222 0068 BB68     		ldr	r3, [r7, #8]
 223 006a D3F88030 		ldr	r3, [r3, #128]
 224 006e 1B68     		ldr	r3, [r3]
 225 0070 3A4A     		ldr	r2, .L8+16
 226 0072 9342     		cmp	r3, r2
 227 0074 4CD0     		beq	.L5
 228              		.loc 1 80 3 discriminator 10
 229 0076 BB68     		ldr	r3, [r7, #8]
 230 0078 D3F88030 		ldr	r3, [r3, #128]
 231 007c 1B68     		ldr	r3, [r3]
 232 007e 384A     		ldr	r2, .L8+20
 233 0080 9342     		cmp	r3, r2
 234 0082 45D0     		beq	.L5
 235              		.loc 1 80 3 discriminator 12
 236 0084 BB68     		ldr	r3, [r7, #8]
 237 0086 D3F88030 		ldr	r3, [r3, #128]
 238 008a 1B68     		ldr	r3, [r3]
 239 008c 354A     		ldr	r2, .L8+24
 240 008e 9342     		cmp	r3, r2
 241 0090 3ED0     		beq	.L5
 242              		.loc 1 80 3 discriminator 14
 243 0092 BB68     		ldr	r3, [r7, #8]
 244 0094 D3F88030 		ldr	r3, [r3, #128]
 245 0098 1B68     		ldr	r3, [r3]
 246 009a 334A     		ldr	r2, .L8+28
 247 009c 9342     		cmp	r3, r2
 248 009e 37D0     		beq	.L5
 249              		.loc 1 80 3 discriminator 16
 250 00a0 BB68     		ldr	r3, [r7, #8]
 251 00a2 D3F88030 		ldr	r3, [r3, #128]
 252 00a6 1B68     		ldr	r3, [r3]
 253 00a8 304A     		ldr	r2, .L8+32
 254 00aa 9342     		cmp	r3, r2
 255 00ac 30D0     		beq	.L5
ARM GAS  C:\Users\Godwin\AppData\Local\Temp\ccfJUVUO.s 			page 7


 256              		.loc 1 80 3 discriminator 18
 257 00ae BB68     		ldr	r3, [r7, #8]
 258 00b0 D3F88030 		ldr	r3, [r3, #128]
 259 00b4 1B68     		ldr	r3, [r3]
 260 00b6 2E4A     		ldr	r2, .L8+36
 261 00b8 9342     		cmp	r3, r2
 262 00ba 29D0     		beq	.L5
 263              		.loc 1 80 3 discriminator 20
 264 00bc BB68     		ldr	r3, [r7, #8]
 265 00be D3F88030 		ldr	r3, [r3, #128]
 266 00c2 1B68     		ldr	r3, [r3]
 267 00c4 2B4A     		ldr	r2, .L8+40
 268 00c6 9342     		cmp	r3, r2
 269 00c8 22D0     		beq	.L5
 270              		.loc 1 80 3 discriminator 22
 271 00ca BB68     		ldr	r3, [r7, #8]
 272 00cc D3F88030 		ldr	r3, [r3, #128]
 273 00d0 1B68     		ldr	r3, [r3]
 274 00d2 294A     		ldr	r2, .L8+44
 275 00d4 9342     		cmp	r3, r2
 276 00d6 1BD0     		beq	.L5
 277              		.loc 1 80 3 discriminator 24
 278 00d8 BB68     		ldr	r3, [r7, #8]
 279 00da D3F88030 		ldr	r3, [r3, #128]
 280 00de 1B68     		ldr	r3, [r3]
 281 00e0 264A     		ldr	r2, .L8+48
 282 00e2 9342     		cmp	r3, r2
 283 00e4 14D0     		beq	.L5
 284              		.loc 1 80 3 discriminator 26
 285 00e6 BB68     		ldr	r3, [r7, #8]
 286 00e8 D3F88030 		ldr	r3, [r3, #128]
 287 00ec 1B68     		ldr	r3, [r3]
 288 00ee 244A     		ldr	r2, .L8+52
 289 00f0 9342     		cmp	r3, r2
 290 00f2 0DD0     		beq	.L5
 291              		.loc 1 80 3 discriminator 28
 292 00f4 BB68     		ldr	r3, [r7, #8]
 293 00f6 D3F88030 		ldr	r3, [r3, #128]
 294 00fa 1B68     		ldr	r3, [r3]
 295 00fc 214A     		ldr	r2, .L8+56
 296 00fe 9342     		cmp	r3, r2
 297 0100 06D0     		beq	.L5
 298              		.loc 1 80 3 discriminator 30
 299 0102 BB68     		ldr	r3, [r7, #8]
 300 0104 D3F88030 		ldr	r3, [r3, #128]
 301 0108 1B68     		ldr	r3, [r3]
 302 010a 1F4A     		ldr	r2, .L8+60
 303 010c 9342     		cmp	r3, r2
 304 010e 0CD1     		bne	.L6
 305              	.L5:
 306              		.loc 1 80 3 discriminator 31
 307 0110 BB68     		ldr	r3, [r7, #8]
 308 0112 D3F88030 		ldr	r3, [r3, #128]
 309 0116 1B68     		ldr	r3, [r3]
 310 0118 1A68     		ldr	r2, [r3]
 311 011a BB68     		ldr	r3, [r7, #8]
 312 011c D3F88030 		ldr	r3, [r3, #128]
ARM GAS  C:\Users\Godwin\AppData\Local\Temp\ccfJUVUO.s 			page 8


 313 0120 1B68     		ldr	r3, [r3]
 314 0122 22F00802 		bic	r2, r2, #8
 315 0126 1A60     		str	r2, [r3]
 316              		.loc 1 80 3
 317 0128 0CE0     		b	.L7
 318              	.L6:
 319              		.loc 1 80 3 discriminator 32
 320 012a BB68     		ldr	r3, [r7, #8]
 321 012c D3F88030 		ldr	r3, [r3, #128]
 322 0130 1B68     		ldr	r3, [r3]
 323 0132 1A68     		ldr	r2, [r3]
 324 0134 BB68     		ldr	r3, [r7, #8]
 325 0136 D3F88030 		ldr	r3, [r3, #128]
 326 013a 1B68     		ldr	r3, [r3]
 327 013c 22F00402 		bic	r2, r2, #4
 328 0140 1A60     		str	r2, [r3]
  81:User/BSP/UART_data_txrx.c **** }
 329              		.loc 1 81 1 is_stmt 1
 330 0142 00BF     		nop
 331              	.L7:
 332 0144 00BF     		nop
 333 0146 1037     		adds	r7, r7, #16
 334              	.LCFI5:
 335              		.cfi_def_cfa_offset 8
 336 0148 BD46     		mov	sp, r7
 337              	.LCFI6:
 338              		.cfi_def_cfa_register 13
 339              		@ sp needed
 340 014a 80BD     		pop	{r7, pc}
 341              	.L9:
 342              		.align	2
 343              	.L8:
 344 014c 10000240 		.word	1073872912
 345 0150 28000240 		.word	1073872936
 346 0154 40000240 		.word	1073872960
 347 0158 58000240 		.word	1073872984
 348 015c 70000240 		.word	1073873008
 349 0160 88000240 		.word	1073873032
 350 0164 A0000240 		.word	1073873056
 351 0168 B8000240 		.word	1073873080
 352 016c 10040240 		.word	1073873936
 353 0170 28040240 		.word	1073873960
 354 0174 40040240 		.word	1073873984
 355 0178 58040240 		.word	1073874008
 356 017c 70040240 		.word	1073874032
 357 0180 88040240 		.word	1073874056
 358 0184 A0040240 		.word	1073874080
 359 0188 B8040240 		.word	1073874104
 360              		.cfi_endproc
 361              	.LFE149:
 363              		.section	.text.UART_send_data,"ax",%progbits
 364              		.align	1
 365              		.global	UART_send_data
 366              		.syntax unified
 367              		.thumb
 368              		.thumb_func
 370              	UART_send_data:
ARM GAS  C:\Users\Godwin\AppData\Local\Temp\ccfJUVUO.s 			page 9


 371              	.LFB150:
  82:User/BSP/UART_data_txrx.c **** 
  83:User/BSP/UART_data_txrx.c **** /**
  84:User/BSP/UART_data_txrx.c ****  * @brief ´®żÚ·˘ËÍĘýľÝ
  85:User/BSP/UART_data_txrx.c ****  *
  86:User/BSP/UART_data_txrx.c ****  * @param uart ·˘ËÍ´®żÚŐűşĎ°ü
  87:User/BSP/UART_data_txrx.c ****  * @param data ·˘ËÍĘýľÝŁ¨ĘýľÝ±đĘÍ·ĹÁËŁ¬˛»Č»şóĂćĘŐ˛»µ˝Ł©
  88:User/BSP/UART_data_txrx.c ****  * @param size ĘýľÝ´óĐˇ
  89:User/BSP/UART_data_txrx.c ****  */
  90:User/BSP/UART_data_txrx.c **** void UART_send_data(transmit_data uart, uint8_t data[], uint16_t size)
  91:User/BSP/UART_data_txrx.c **** {
 372              		.loc 1 91 1
 373              		.cfi_startproc
 374              		@ args = 280, pretend = 16, frame = 0
 375              		@ frame_needed = 1, uses_anonymous_args = 0
 376 0000 84B0     		sub	sp, sp, #16
 377              	.LCFI7:
 378              		.cfi_def_cfa_offset 16
 379 0002 80B5     		push	{r7, lr}
 380              	.LCFI8:
 381              		.cfi_def_cfa_offset 24
 382              		.cfi_offset 7, -24
 383              		.cfi_offset 14, -20
 384 0004 00AF     		add	r7, sp, #0
 385              	.LCFI9:
 386              		.cfi_def_cfa_register 7
 387 0006 07F1080C 		add	ip, r7, #8
 388 000a 8CE80F00 		stm	ip, {r0, r1, r2, r3}
  92:User/BSP/UART_data_txrx.c ****   //+++++++++++++++//while(HAL_DMA_GetState(UART6_data.hdma_usart_tx) != HAL_DMA_STATE_READY)
  93:User/BSP/UART_data_txrx.c ****   HAL_UART_Transmit_DMA(uart.huart, data, size); // żŞĆôDMAĹúÁżĘýľÝ·˘ËÍ
 389              		.loc 1 93 3
 390 000e BB68     		ldr	r3, [r7, #8]
 391 0010 B7F81C21 		ldrh	r2, [r7, #284]
 392 0014 D7F81811 		ldr	r1, [r7, #280]
 393 0018 1846     		mov	r0, r3
 394 001a FFF7FEFF 		bl	HAL_UART_Transmit_DMA
  94:User/BSP/UART_data_txrx.c **** }
 395              		.loc 1 94 1
 396 001e 00BF     		nop
 397 0020 BD46     		mov	sp, r7
 398              	.LCFI10:
 399              		.cfi_def_cfa_register 13
 400              		@ sp needed
 401 0022 BDE88040 		pop	{r7, lr}
 402              	.LCFI11:
 403              		.cfi_restore 14
 404              		.cfi_restore 7
 405              		.cfi_def_cfa_offset 16
 406 0026 04B0     		add	sp, sp, #16
 407              	.LCFI12:
 408              		.cfi_def_cfa_offset 0
 409 0028 7047     		bx	lr
 410              		.cfi_endproc
 411              	.LFE150:
 413              		.section	.text.HAL_UARTEx_RxEventCallback,"ax",%progbits
 414              		.align	1
 415              		.global	HAL_UARTEx_RxEventCallback
ARM GAS  C:\Users\Godwin\AppData\Local\Temp\ccfJUVUO.s 			page 10


 416              		.syntax unified
 417              		.thumb
 418              		.thumb_func
 420              	HAL_UARTEx_RxEventCallback:
 421              	.LFB151:
  95:User/BSP/UART_data_txrx.c **** 
  96:User/BSP/UART_data_txrx.c **** /**
  97:User/BSP/UART_data_txrx.c ****  * @brief ´®żÚ˝ÓĘÜżŐ»Řµ÷şŻĘýŁ¬ÓĂÓÚ˝ÓĘÜ˛»¶¨ł¤ĘýľÝŁ¬·ĹÖĂĘýľÝ´¦ŔíşŻĘý
  98:User/BSP/UART_data_txrx.c ****  *
  99:User/BSP/UART_data_txrx.c ****  * @param huart ˝ÓĘÜµ˝ĘýľÝµÄ´®żÚ
 100:User/BSP/UART_data_txrx.c ****  * @param Size ĘýľÝ´óĐˇ
 101:User/BSP/UART_data_txrx.c ****  */
 102:User/BSP/UART_data_txrx.c **** void HAL_UARTEx_RxEventCallback(UART_HandleTypeDef *huart, uint16_t Size)
 103:User/BSP/UART_data_txrx.c **** {
 422              		.loc 1 103 1
 423              		.cfi_startproc
 424              		@ args = 0, pretend = 0, frame = 8
 425              		@ frame_needed = 1, uses_anonymous_args = 0
 426 0000 80B5     		push	{r7, lr}
 427              	.LCFI13:
 428              		.cfi_def_cfa_offset 8
 429              		.cfi_offset 7, -8
 430              		.cfi_offset 14, -4
 431 0002 82B0     		sub	sp, sp, #8
 432              	.LCFI14:
 433              		.cfi_def_cfa_offset 16
 434 0004 00AF     		add	r7, sp, #0
 435              	.LCFI15:
 436              		.cfi_def_cfa_register 7
 437 0006 7860     		str	r0, [r7, #4]
 438 0008 0B46     		mov	r3, r1
 439 000a 7B80     		strh	r3, [r7, #2]	@ movhi
 104:User/BSP/UART_data_txrx.c ****   if (huart == &huart5) // ŇŁżŘĆ÷
 440              		.loc 1 104 6
 441 000c 7B68     		ldr	r3, [r7, #4]
 442 000e 994A     		ldr	r2, .L25
 443 0010 9342     		cmp	r3, r2
 444 0012 40F09480 		bne	.L12
 105:User/BSP/UART_data_txrx.c ****   {
 106:User/BSP/UART_data_txrx.c ****     // DT7_decode_data(UART5_data.rev_data);
 107:User/BSP/UART_data_txrx.c ****     update_sbus(UART5_data.rev_data, &SBUS_CH);
 445              		.loc 1 107 5
 446 0016 9849     		ldr	r1, .L25+4
 447 0018 9848     		ldr	r0, .L25+8
 448 001a FFF7FEFF 		bl	update_sbus
 108:User/BSP/UART_data_txrx.c ****     HAL_UARTEx_ReceiveToIdle_DMA(huart, UART5_data.rev_data, UART_BUFFER_SIZE);
 449              		.loc 1 108 5
 450 001e 4FF48072 		mov	r2, #256
 451 0022 9649     		ldr	r1, .L25+8
 452 0024 7868     		ldr	r0, [r7, #4]
 453 0026 FFF7FEFF 		bl	HAL_UARTEx_ReceiveToIdle_DMA
 109:User/BSP/UART_data_txrx.c ****     __HAL_DMA_DISABLE_IT(huart->hdmarx, DMA_IT_HT);
 454              		.loc 1 109 5
 455 002a 7B68     		ldr	r3, [r7, #4]
 456 002c D3F88030 		ldr	r3, [r3, #128]
 457 0030 1B68     		ldr	r3, [r3]
 458 0032 934A     		ldr	r2, .L25+12
ARM GAS  C:\Users\Godwin\AppData\Local\Temp\ccfJUVUO.s 			page 11


 459 0034 9342     		cmp	r3, r2
 460 0036 68D0     		beq	.L13
 461              		.loc 1 109 5 is_stmt 0 discriminator 2
 462 0038 7B68     		ldr	r3, [r7, #4]
 463 003a D3F88030 		ldr	r3, [r3, #128]
 464 003e 1B68     		ldr	r3, [r3]
 465 0040 904A     		ldr	r2, .L25+16
 466 0042 9342     		cmp	r3, r2
 467 0044 61D0     		beq	.L13
 468              		.loc 1 109 5 discriminator 4
 469 0046 7B68     		ldr	r3, [r7, #4]
 470 0048 D3F88030 		ldr	r3, [r3, #128]
 471 004c 1B68     		ldr	r3, [r3]
 472 004e 8E4A     		ldr	r2, .L25+20
 473 0050 9342     		cmp	r3, r2
 474 0052 5AD0     		beq	.L13
 475              		.loc 1 109 5 discriminator 6
 476 0054 7B68     		ldr	r3, [r7, #4]
 477 0056 D3F88030 		ldr	r3, [r3, #128]
 478 005a 1B68     		ldr	r3, [r3]
 479 005c 8B4A     		ldr	r2, .L25+24
 480 005e 9342     		cmp	r3, r2
 481 0060 53D0     		beq	.L13
 482              		.loc 1 109 5 discriminator 8
 483 0062 7B68     		ldr	r3, [r7, #4]
 484 0064 D3F88030 		ldr	r3, [r3, #128]
 485 0068 1B68     		ldr	r3, [r3]
 486 006a 894A     		ldr	r2, .L25+28
 487 006c 9342     		cmp	r3, r2
 488 006e 4CD0     		beq	.L13
 489              		.loc 1 109 5 discriminator 10
 490 0070 7B68     		ldr	r3, [r7, #4]
 491 0072 D3F88030 		ldr	r3, [r3, #128]
 492 0076 1B68     		ldr	r3, [r3]
 493 0078 864A     		ldr	r2, .L25+32
 494 007a 9342     		cmp	r3, r2
 495 007c 45D0     		beq	.L13
 496              		.loc 1 109 5 discriminator 12
 497 007e 7B68     		ldr	r3, [r7, #4]
 498 0080 D3F88030 		ldr	r3, [r3, #128]
 499 0084 1B68     		ldr	r3, [r3]
 500 0086 844A     		ldr	r2, .L25+36
 501 0088 9342     		cmp	r3, r2
 502 008a 3ED0     		beq	.L13
 503              		.loc 1 109 5 discriminator 14
 504 008c 7B68     		ldr	r3, [r7, #4]
 505 008e D3F88030 		ldr	r3, [r3, #128]
 506 0092 1B68     		ldr	r3, [r3]
 507 0094 814A     		ldr	r2, .L25+40
 508 0096 9342     		cmp	r3, r2
 509 0098 37D0     		beq	.L13
 510              		.loc 1 109 5 discriminator 16
 511 009a 7B68     		ldr	r3, [r7, #4]
 512 009c D3F88030 		ldr	r3, [r3, #128]
 513 00a0 1B68     		ldr	r3, [r3]
 514 00a2 7F4A     		ldr	r2, .L25+44
 515 00a4 9342     		cmp	r3, r2
ARM GAS  C:\Users\Godwin\AppData\Local\Temp\ccfJUVUO.s 			page 12


 516 00a6 30D0     		beq	.L13
 517              		.loc 1 109 5 discriminator 18
 518 00a8 7B68     		ldr	r3, [r7, #4]
 519 00aa D3F88030 		ldr	r3, [r3, #128]
 520 00ae 1B68     		ldr	r3, [r3]
 521 00b0 7C4A     		ldr	r2, .L25+48
 522 00b2 9342     		cmp	r3, r2
 523 00b4 29D0     		beq	.L13
 524              		.loc 1 109 5 discriminator 20
 525 00b6 7B68     		ldr	r3, [r7, #4]
 526 00b8 D3F88030 		ldr	r3, [r3, #128]
 527 00bc 1B68     		ldr	r3, [r3]
 528 00be 7A4A     		ldr	r2, .L25+52
 529 00c0 9342     		cmp	r3, r2
 530 00c2 22D0     		beq	.L13
 531              		.loc 1 109 5 discriminator 22
 532 00c4 7B68     		ldr	r3, [r7, #4]
 533 00c6 D3F88030 		ldr	r3, [r3, #128]
 534 00ca 1B68     		ldr	r3, [r3]
 535 00cc 774A     		ldr	r2, .L25+56
 536 00ce 9342     		cmp	r3, r2
 537 00d0 1BD0     		beq	.L13
 538              		.loc 1 109 5 discriminator 24
 539 00d2 7B68     		ldr	r3, [r7, #4]
 540 00d4 D3F88030 		ldr	r3, [r3, #128]
 541 00d8 1B68     		ldr	r3, [r3]
 542 00da 754A     		ldr	r2, .L25+60
 543 00dc 9342     		cmp	r3, r2
 544 00de 14D0     		beq	.L13
 545              		.loc 1 109 5 discriminator 26
 546 00e0 7B68     		ldr	r3, [r7, #4]
 547 00e2 D3F88030 		ldr	r3, [r3, #128]
 548 00e6 1B68     		ldr	r3, [r3]
 549 00e8 724A     		ldr	r2, .L25+64
 550 00ea 9342     		cmp	r3, r2
 551 00ec 0DD0     		beq	.L13
 552              		.loc 1 109 5 discriminator 28
 553 00ee 7B68     		ldr	r3, [r7, #4]
 554 00f0 D3F88030 		ldr	r3, [r3, #128]
 555 00f4 1B68     		ldr	r3, [r3]
 556 00f6 704A     		ldr	r2, .L25+68
 557 00f8 9342     		cmp	r3, r2
 558 00fa 06D0     		beq	.L13
 559              		.loc 1 109 5 discriminator 30
 560 00fc 7B68     		ldr	r3, [r7, #4]
 561 00fe D3F88030 		ldr	r3, [r3, #128]
 562 0102 1B68     		ldr	r3, [r3]
 563 0104 6D4A     		ldr	r2, .L25+72
 564 0106 9342     		cmp	r3, r2
 565 0108 0CD1     		bne	.L14
 566              	.L13:
 567              		.loc 1 109 5 discriminator 31
 568 010a 7B68     		ldr	r3, [r7, #4]
 569 010c D3F88030 		ldr	r3, [r3, #128]
 570 0110 1B68     		ldr	r3, [r3]
 571 0112 1A68     		ldr	r2, [r3]
 572 0114 7B68     		ldr	r3, [r7, #4]
ARM GAS  C:\Users\Godwin\AppData\Local\Temp\ccfJUVUO.s 			page 13


 573 0116 D3F88030 		ldr	r3, [r3, #128]
 574 011a 1B68     		ldr	r3, [r3]
 575 011c 22F00802 		bic	r2, r2, #8
 576 0120 1A60     		str	r2, [r3]
 577              		.loc 1 109 5
 578 0122 6BE1     		b	.L16
 579              	.L14:
 580              		.loc 1 109 5 discriminator 32
 581 0124 7B68     		ldr	r3, [r7, #4]
 582 0126 D3F88030 		ldr	r3, [r3, #128]
 583 012a 1B68     		ldr	r3, [r3]
 584 012c 1A68     		ldr	r2, [r3]
 585 012e 7B68     		ldr	r3, [r7, #4]
 586 0130 D3F88030 		ldr	r3, [r3, #128]
 587 0134 1B68     		ldr	r3, [r3]
 588 0136 22F00402 		bic	r2, r2, #4
 589 013a 1A60     		str	r2, [r3]
 110:User/BSP/UART_data_txrx.c ****   }
 111:User/BSP/UART_data_txrx.c ****   else if (huart == &huart7) // Éý˝µ¸Ë¸ß¶Č¶ÁČˇ
 112:User/BSP/UART_data_txrx.c ****   {
 113:User/BSP/UART_data_txrx.c ****     STP23L_ParseData(UART7_data.rev_data, Size);
 114:User/BSP/UART_data_txrx.c ****     HAL_UARTEx_ReceiveToIdle_DMA(huart, UART7_data.rev_data, UART_BUFFER_SIZE);
 115:User/BSP/UART_data_txrx.c ****     __HAL_DMA_DISABLE_IT(huart->hdmarx, DMA_IT_HT);
 116:User/BSP/UART_data_txrx.c ****   }
 117:User/BSP/UART_data_txrx.c ****   else if (huart == &huart10) // ÍĽ´«Á´Â·˛ĂĹĐĎµÍł
 118:User/BSP/UART_data_txrx.c ****   {
 119:User/BSP/UART_data_txrx.c ****     
 120:User/BSP/UART_data_txrx.c ****   }
 121:User/BSP/UART_data_txrx.c ****   else if (huart == &huart1)
 122:User/BSP/UART_data_txrx.c ****   {
 123:User/BSP/UART_data_txrx.c ****     if (UART1_data.rev_data[0] == 0xA5)
 124:User/BSP/UART_data_txrx.c ****     {
 125:User/BSP/UART_data_txrx.c ****     }
 126:User/BSP/UART_data_txrx.c ****     HAL_UARTEx_ReceiveToIdle_DMA(huart, UART1_data.rev_data, UART_BUFFER_SIZE);
 127:User/BSP/UART_data_txrx.c ****     __HAL_DMA_DISABLE_IT(huart->hdmarx, DMA_IT_HT);
 128:User/BSP/UART_data_txrx.c ****   }
 129:User/BSP/UART_data_txrx.c ****   // else if (huart == &huart2)
 130:User/BSP/UART_data_txrx.c ****   // {
 131:User/BSP/UART_data_txrx.c ****   //   HAL_UARTEx_ReceiveToIdle_DMA(huart, UART2_data.rev_data, UART_BUFFER_SIZE);
 132:User/BSP/UART_data_txrx.c ****   //   __HAL_DMA_DISABLE_IT(huart->hdmarx, DMA_IT_HT);
 133:User/BSP/UART_data_txrx.c ****   // }
 134:User/BSP/UART_data_txrx.c ****   else if (huart == &huart3)
 135:User/BSP/UART_data_txrx.c ****   {
 136:User/BSP/UART_data_txrx.c ****     //  HAL_UART_Receive(&huart1, (uint8_t *)&data.motor_recv_data, sizeof(data.motor_recv_data), 1
 137:User/BSP/UART_data_txrx.c ****     //      __HAL_DMA_DISABLE_IT(huart->hdmarx, DMA_IT_HT);
 138:User/BSP/UART_data_txrx.c ****   }
 139:User/BSP/UART_data_txrx.c **** }
 590              		.loc 1 139 1 is_stmt 1
 591 013c 5EE1     		b	.L24
 592              	.L12:
 111:User/BSP/UART_data_txrx.c ****   {
 593              		.loc 1 111 11
 594 013e 7B68     		ldr	r3, [r7, #4]
 595 0140 5F4A     		ldr	r2, .L25+76
 596 0142 9342     		cmp	r3, r2
 597 0144 40F0C080 		bne	.L17
 113:User/BSP/UART_data_txrx.c ****     HAL_UARTEx_ReceiveToIdle_DMA(huart, UART7_data.rev_data, UART_BUFFER_SIZE);
ARM GAS  C:\Users\Godwin\AppData\Local\Temp\ccfJUVUO.s 			page 14


 598              		.loc 1 113 5
 599 0148 7B88     		ldrh	r3, [r7, #2]
 600 014a 1946     		mov	r1, r3
 601 014c 5D48     		ldr	r0, .L25+80
 602 014e FFF7FEFF 		bl	STP23L_ParseData
 114:User/BSP/UART_data_txrx.c ****     __HAL_DMA_DISABLE_IT(huart->hdmarx, DMA_IT_HT);
 603              		.loc 1 114 5
 604 0152 4FF48072 		mov	r2, #256
 605 0156 5B49     		ldr	r1, .L25+80
 606 0158 7868     		ldr	r0, [r7, #4]
 607 015a FFF7FEFF 		bl	HAL_UARTEx_ReceiveToIdle_DMA
 115:User/BSP/UART_data_txrx.c ****   }
 608              		.loc 1 115 5
 609 015e 7B68     		ldr	r3, [r7, #4]
 610 0160 D3F88030 		ldr	r3, [r3, #128]
 611 0164 1B68     		ldr	r3, [r3]
 612 0166 464A     		ldr	r2, .L25+12
 613 0168 9342     		cmp	r3, r2
 614 016a 68D0     		beq	.L18
 115:User/BSP/UART_data_txrx.c ****   }
 615              		.loc 1 115 5 is_stmt 0 discriminator 2
 616 016c 7B68     		ldr	r3, [r7, #4]
 617 016e D3F88030 		ldr	r3, [r3, #128]
 618 0172 1B68     		ldr	r3, [r3]
 619 0174 434A     		ldr	r2, .L25+16
 620 0176 9342     		cmp	r3, r2
 621 0178 61D0     		beq	.L18
 115:User/BSP/UART_data_txrx.c ****   }
 622              		.loc 1 115 5 discriminator 4
 623 017a 7B68     		ldr	r3, [r7, #4]
 624 017c D3F88030 		ldr	r3, [r3, #128]
 625 0180 1B68     		ldr	r3, [r3]
 626 0182 414A     		ldr	r2, .L25+20
 627 0184 9342     		cmp	r3, r2
 628 0186 5AD0     		beq	.L18
 115:User/BSP/UART_data_txrx.c ****   }
 629              		.loc 1 115 5 discriminator 6
 630 0188 7B68     		ldr	r3, [r7, #4]
 631 018a D3F88030 		ldr	r3, [r3, #128]
 632 018e 1B68     		ldr	r3, [r3]
 633 0190 3E4A     		ldr	r2, .L25+24
 634 0192 9342     		cmp	r3, r2
 635 0194 53D0     		beq	.L18
 115:User/BSP/UART_data_txrx.c ****   }
 636              		.loc 1 115 5 discriminator 8
 637 0196 7B68     		ldr	r3, [r7, #4]
 638 0198 D3F88030 		ldr	r3, [r3, #128]
 639 019c 1B68     		ldr	r3, [r3]
 640 019e 3C4A     		ldr	r2, .L25+28
 641 01a0 9342     		cmp	r3, r2
 642 01a2 4CD0     		beq	.L18
 115:User/BSP/UART_data_txrx.c ****   }
 643              		.loc 1 115 5 discriminator 10
 644 01a4 7B68     		ldr	r3, [r7, #4]
 645 01a6 D3F88030 		ldr	r3, [r3, #128]
 646 01aa 1B68     		ldr	r3, [r3]
 647 01ac 394A     		ldr	r2, .L25+32
ARM GAS  C:\Users\Godwin\AppData\Local\Temp\ccfJUVUO.s 			page 15


 648 01ae 9342     		cmp	r3, r2
 649 01b0 45D0     		beq	.L18
 115:User/BSP/UART_data_txrx.c ****   }
 650              		.loc 1 115 5 discriminator 12
 651 01b2 7B68     		ldr	r3, [r7, #4]
 652 01b4 D3F88030 		ldr	r3, [r3, #128]
 653 01b8 1B68     		ldr	r3, [r3]
 654 01ba 374A     		ldr	r2, .L25+36
 655 01bc 9342     		cmp	r3, r2
 656 01be 3ED0     		beq	.L18
 115:User/BSP/UART_data_txrx.c ****   }
 657              		.loc 1 115 5 discriminator 14
 658 01c0 7B68     		ldr	r3, [r7, #4]
 659 01c2 D3F88030 		ldr	r3, [r3, #128]
 660 01c6 1B68     		ldr	r3, [r3]
 661 01c8 344A     		ldr	r2, .L25+40
 662 01ca 9342     		cmp	r3, r2
 663 01cc 37D0     		beq	.L18
 115:User/BSP/UART_data_txrx.c ****   }
 664              		.loc 1 115 5 discriminator 16
 665 01ce 7B68     		ldr	r3, [r7, #4]
 666 01d0 D3F88030 		ldr	r3, [r3, #128]
 667 01d4 1B68     		ldr	r3, [r3]
 668 01d6 324A     		ldr	r2, .L25+44
 669 01d8 9342     		cmp	r3, r2
 670 01da 30D0     		beq	.L18
 115:User/BSP/UART_data_txrx.c ****   }
 671              		.loc 1 115 5 discriminator 18
 672 01dc 7B68     		ldr	r3, [r7, #4]
 673 01de D3F88030 		ldr	r3, [r3, #128]
 674 01e2 1B68     		ldr	r3, [r3]
 675 01e4 2F4A     		ldr	r2, .L25+48
 676 01e6 9342     		cmp	r3, r2
 677 01e8 29D0     		beq	.L18
 115:User/BSP/UART_data_txrx.c ****   }
 678              		.loc 1 115 5 discriminator 20
 679 01ea 7B68     		ldr	r3, [r7, #4]
 680 01ec D3F88030 		ldr	r3, [r3, #128]
 681 01f0 1B68     		ldr	r3, [r3]
 682 01f2 2D4A     		ldr	r2, .L25+52
 683 01f4 9342     		cmp	r3, r2
 684 01f6 22D0     		beq	.L18
 115:User/BSP/UART_data_txrx.c ****   }
 685              		.loc 1 115 5 discriminator 22
 686 01f8 7B68     		ldr	r3, [r7, #4]
 687 01fa D3F88030 		ldr	r3, [r3, #128]
 688 01fe 1B68     		ldr	r3, [r3]
 689 0200 2A4A     		ldr	r2, .L25+56
 690 0202 9342     		cmp	r3, r2
 691 0204 1BD0     		beq	.L18
 115:User/BSP/UART_data_txrx.c ****   }
 692              		.loc 1 115 5 discriminator 24
 693 0206 7B68     		ldr	r3, [r7, #4]
 694 0208 D3F88030 		ldr	r3, [r3, #128]
 695 020c 1B68     		ldr	r3, [r3]
 696 020e 284A     		ldr	r2, .L25+60
 697 0210 9342     		cmp	r3, r2
ARM GAS  C:\Users\Godwin\AppData\Local\Temp\ccfJUVUO.s 			page 16


 698 0212 14D0     		beq	.L18
 115:User/BSP/UART_data_txrx.c ****   }
 699              		.loc 1 115 5 discriminator 26
 700 0214 7B68     		ldr	r3, [r7, #4]
 701 0216 D3F88030 		ldr	r3, [r3, #128]
 702 021a 1B68     		ldr	r3, [r3]
 703 021c 254A     		ldr	r2, .L25+64
 704 021e 9342     		cmp	r3, r2
 705 0220 0DD0     		beq	.L18
 115:User/BSP/UART_data_txrx.c ****   }
 706              		.loc 1 115 5 discriminator 28
 707 0222 7B68     		ldr	r3, [r7, #4]
 708 0224 D3F88030 		ldr	r3, [r3, #128]
 709 0228 1B68     		ldr	r3, [r3]
 710 022a 234A     		ldr	r2, .L25+68
 711 022c 9342     		cmp	r3, r2
 712 022e 06D0     		beq	.L18
 115:User/BSP/UART_data_txrx.c ****   }
 713              		.loc 1 115 5 discriminator 30
 714 0230 7B68     		ldr	r3, [r7, #4]
 715 0232 D3F88030 		ldr	r3, [r3, #128]
 716 0236 1B68     		ldr	r3, [r3]
 717 0238 204A     		ldr	r2, .L25+72
 718 023a 9342     		cmp	r3, r2
 719 023c 0CD1     		bne	.L19
 720              	.L18:
 115:User/BSP/UART_data_txrx.c ****   }
 721              		.loc 1 115 5 discriminator 31
 722 023e 7B68     		ldr	r3, [r7, #4]
 723 0240 D3F88030 		ldr	r3, [r3, #128]
 724 0244 1B68     		ldr	r3, [r3]
 725 0246 1A68     		ldr	r2, [r3]
 726 0248 7B68     		ldr	r3, [r7, #4]
 727 024a D3F88030 		ldr	r3, [r3, #128]
 728 024e 1B68     		ldr	r3, [r3]
 729 0250 22F00802 		bic	r2, r2, #8
 730 0254 1A60     		str	r2, [r3]
 115:User/BSP/UART_data_txrx.c ****   }
 731              		.loc 1 115 5
 732 0256 D1E0     		b	.L16
 733              	.L19:
 115:User/BSP/UART_data_txrx.c ****   }
 734              		.loc 1 115 5 discriminator 32
 735 0258 7B68     		ldr	r3, [r7, #4]
 736 025a D3F88030 		ldr	r3, [r3, #128]
 737 025e 1B68     		ldr	r3, [r3]
 738 0260 1A68     		ldr	r2, [r3]
 739 0262 7B68     		ldr	r3, [r7, #4]
 740 0264 D3F88030 		ldr	r3, [r3, #128]
 741 0268 1B68     		ldr	r3, [r3]
 742 026a 22F00402 		bic	r2, r2, #4
 743 026e 1A60     		str	r2, [r3]
 744              		.loc 1 139 1 is_stmt 1
 745 0270 C4E0     		b	.L24
 746              	.L26:
 747 0272 00BF     		.align	2
 748              	.L25:
ARM GAS  C:\Users\Godwin\AppData\Local\Temp\ccfJUVUO.s 			page 17


 749 0274 00000000 		.word	huart5
 750 0278 00000000 		.word	SBUS_CH
 751 027c 0C000000 		.word	UART5_data+12
 752 0280 10000240 		.word	1073872912
 753 0284 28000240 		.word	1073872936
 754 0288 40000240 		.word	1073872960
 755 028c 58000240 		.word	1073872984
 756 0290 70000240 		.word	1073873008
 757 0294 88000240 		.word	1073873032
 758 0298 A0000240 		.word	1073873056
 759 029c B8000240 		.word	1073873080
 760 02a0 10040240 		.word	1073873936
 761 02a4 28040240 		.word	1073873960
 762 02a8 40040240 		.word	1073873984
 763 02ac 58040240 		.word	1073874008
 764 02b0 70040240 		.word	1073874032
 765 02b4 88040240 		.word	1073874056
 766 02b8 A0040240 		.word	1073874080
 767 02bc B8040240 		.word	1073874104
 768 02c0 00000000 		.word	huart7
 769 02c4 0C000000 		.word	UART7_data+12
 770              	.L17:
 117:User/BSP/UART_data_txrx.c ****   {
 771              		.loc 1 117 11
 772 02c8 7B68     		ldr	r3, [r7, #4]
 773 02ca 4E4A     		ldr	r2, .L27
 774 02cc 9342     		cmp	r3, r2
 775 02ce 00F09580 		beq	.L24
 121:User/BSP/UART_data_txrx.c ****   {
 776              		.loc 1 121 11
 777 02d2 7B68     		ldr	r3, [r7, #4]
 778 02d4 4C4A     		ldr	r2, .L27+4
 779 02d6 9342     		cmp	r3, r2
 780 02d8 40F09080 		bne	.L24
 126:User/BSP/UART_data_txrx.c ****     __HAL_DMA_DISABLE_IT(huart->hdmarx, DMA_IT_HT);
 781              		.loc 1 126 5
 782 02dc 4FF48072 		mov	r2, #256
 783 02e0 4A49     		ldr	r1, .L27+8
 784 02e2 7868     		ldr	r0, [r7, #4]
 785 02e4 FFF7FEFF 		bl	HAL_UARTEx_ReceiveToIdle_DMA
 127:User/BSP/UART_data_txrx.c ****   }
 786              		.loc 1 127 5
 787 02e8 7B68     		ldr	r3, [r7, #4]
 788 02ea D3F88030 		ldr	r3, [r3, #128]
 789 02ee 1B68     		ldr	r3, [r3]
 790 02f0 474A     		ldr	r2, .L27+12
 791 02f2 9342     		cmp	r3, r2
 792 02f4 68D0     		beq	.L21
 127:User/BSP/UART_data_txrx.c ****   }
 793              		.loc 1 127 5 is_stmt 0 discriminator 2
 794 02f6 7B68     		ldr	r3, [r7, #4]
 795 02f8 D3F88030 		ldr	r3, [r3, #128]
 796 02fc 1B68     		ldr	r3, [r3]
 797 02fe 454A     		ldr	r2, .L27+16
 798 0300 9342     		cmp	r3, r2
 799 0302 61D0     		beq	.L21
 127:User/BSP/UART_data_txrx.c ****   }
ARM GAS  C:\Users\Godwin\AppData\Local\Temp\ccfJUVUO.s 			page 18


 800              		.loc 1 127 5 discriminator 4
 801 0304 7B68     		ldr	r3, [r7, #4]
 802 0306 D3F88030 		ldr	r3, [r3, #128]
 803 030a 1B68     		ldr	r3, [r3]
 804 030c 424A     		ldr	r2, .L27+20
 805 030e 9342     		cmp	r3, r2
 806 0310 5AD0     		beq	.L21
 127:User/BSP/UART_data_txrx.c ****   }
 807              		.loc 1 127 5 discriminator 6
 808 0312 7B68     		ldr	r3, [r7, #4]
 809 0314 D3F88030 		ldr	r3, [r3, #128]
 810 0318 1B68     		ldr	r3, [r3]
 811 031a 404A     		ldr	r2, .L27+24
 812 031c 9342     		cmp	r3, r2
 813 031e 53D0     		beq	.L21
 127:User/BSP/UART_data_txrx.c ****   }
 814              		.loc 1 127 5 discriminator 8
 815 0320 7B68     		ldr	r3, [r7, #4]
 816 0322 D3F88030 		ldr	r3, [r3, #128]
 817 0326 1B68     		ldr	r3, [r3]
 818 0328 3D4A     		ldr	r2, .L27+28
 819 032a 9342     		cmp	r3, r2
 820 032c 4CD0     		beq	.L21
 127:User/BSP/UART_data_txrx.c ****   }
 821              		.loc 1 127 5 discriminator 10
 822 032e 7B68     		ldr	r3, [r7, #4]
 823 0330 D3F88030 		ldr	r3, [r3, #128]
 824 0334 1B68     		ldr	r3, [r3]
 825 0336 3B4A     		ldr	r2, .L27+32
 826 0338 9342     		cmp	r3, r2
 827 033a 45D0     		beq	.L21
 127:User/BSP/UART_data_txrx.c ****   }
 828              		.loc 1 127 5 discriminator 12
 829 033c 7B68     		ldr	r3, [r7, #4]
 830 033e D3F88030 		ldr	r3, [r3, #128]
 831 0342 1B68     		ldr	r3, [r3]
 832 0344 384A     		ldr	r2, .L27+36
 833 0346 9342     		cmp	r3, r2
 834 0348 3ED0     		beq	.L21
 127:User/BSP/UART_data_txrx.c ****   }
 835              		.loc 1 127 5 discriminator 14
 836 034a 7B68     		ldr	r3, [r7, #4]
 837 034c D3F88030 		ldr	r3, [r3, #128]
 838 0350 1B68     		ldr	r3, [r3]
 839 0352 364A     		ldr	r2, .L27+40
 840 0354 9342     		cmp	r3, r2
 841 0356 37D0     		beq	.L21
 127:User/BSP/UART_data_txrx.c ****   }
 842              		.loc 1 127 5 discriminator 16
 843 0358 7B68     		ldr	r3, [r7, #4]
 844 035a D3F88030 		ldr	r3, [r3, #128]
 845 035e 1B68     		ldr	r3, [r3]
 846 0360 334A     		ldr	r2, .L27+44
 847 0362 9342     		cmp	r3, r2
 848 0364 30D0     		beq	.L21
 127:User/BSP/UART_data_txrx.c ****   }
 849              		.loc 1 127 5 discriminator 18
ARM GAS  C:\Users\Godwin\AppData\Local\Temp\ccfJUVUO.s 			page 19


 850 0366 7B68     		ldr	r3, [r7, #4]
 851 0368 D3F88030 		ldr	r3, [r3, #128]
 852 036c 1B68     		ldr	r3, [r3]
 853 036e 314A     		ldr	r2, .L27+48
 854 0370 9342     		cmp	r3, r2
 855 0372 29D0     		beq	.L21
 127:User/BSP/UART_data_txrx.c ****   }
 856              		.loc 1 127 5 discriminator 20
 857 0374 7B68     		ldr	r3, [r7, #4]
 858 0376 D3F88030 		ldr	r3, [r3, #128]
 859 037a 1B68     		ldr	r3, [r3]
 860 037c 2E4A     		ldr	r2, .L27+52
 861 037e 9342     		cmp	r3, r2
 862 0380 22D0     		beq	.L21
 127:User/BSP/UART_data_txrx.c ****   }
 863              		.loc 1 127 5 discriminator 22
 864 0382 7B68     		ldr	r3, [r7, #4]
 865 0384 D3F88030 		ldr	r3, [r3, #128]
 866 0388 1B68     		ldr	r3, [r3]
 867 038a 2C4A     		ldr	r2, .L27+56
 868 038c 9342     		cmp	r3, r2
 869 038e 1BD0     		beq	.L21
 127:User/BSP/UART_data_txrx.c ****   }
 870              		.loc 1 127 5 discriminator 24
 871 0390 7B68     		ldr	r3, [r7, #4]
 872 0392 D3F88030 		ldr	r3, [r3, #128]
 873 0396 1B68     		ldr	r3, [r3]
 874 0398 294A     		ldr	r2, .L27+60
 875 039a 9342     		cmp	r3, r2
 876 039c 14D0     		beq	.L21
 127:User/BSP/UART_data_txrx.c ****   }
 877              		.loc 1 127 5 discriminator 26
 878 039e 7B68     		ldr	r3, [r7, #4]
 879 03a0 D3F88030 		ldr	r3, [r3, #128]
 880 03a4 1B68     		ldr	r3, [r3]
 881 03a6 274A     		ldr	r2, .L27+64
 882 03a8 9342     		cmp	r3, r2
 883 03aa 0DD0     		beq	.L21
 127:User/BSP/UART_data_txrx.c ****   }
 884              		.loc 1 127 5 discriminator 28
 885 03ac 7B68     		ldr	r3, [r7, #4]
 886 03ae D3F88030 		ldr	r3, [r3, #128]
 887 03b2 1B68     		ldr	r3, [r3]
 888 03b4 244A     		ldr	r2, .L27+68
 889 03b6 9342     		cmp	r3, r2
 890 03b8 06D0     		beq	.L21
 127:User/BSP/UART_data_txrx.c ****   }
 891              		.loc 1 127 5 discriminator 30
 892 03ba 7B68     		ldr	r3, [r7, #4]
 893 03bc D3F88030 		ldr	r3, [r3, #128]
 894 03c0 1B68     		ldr	r3, [r3]
 895 03c2 224A     		ldr	r2, .L27+72
 896 03c4 9342     		cmp	r3, r2
 897 03c6 0CD1     		bne	.L22
 898              	.L21:
 127:User/BSP/UART_data_txrx.c ****   }
 899              		.loc 1 127 5 discriminator 31
ARM GAS  C:\Users\Godwin\AppData\Local\Temp\ccfJUVUO.s 			page 20


 900 03c8 7B68     		ldr	r3, [r7, #4]
 901 03ca D3F88030 		ldr	r3, [r3, #128]
 902 03ce 1B68     		ldr	r3, [r3]
 903 03d0 1A68     		ldr	r2, [r3]
 904 03d2 7B68     		ldr	r3, [r7, #4]
 905 03d4 D3F88030 		ldr	r3, [r3, #128]
 906 03d8 1B68     		ldr	r3, [r3]
 907 03da 22F00802 		bic	r2, r2, #8
 908 03de 1A60     		str	r2, [r3]
 127:User/BSP/UART_data_txrx.c ****   }
 909              		.loc 1 127 5
 910 03e0 0CE0     		b	.L16
 911              	.L22:
 127:User/BSP/UART_data_txrx.c ****   }
 912              		.loc 1 127 5 discriminator 32
 913 03e2 7B68     		ldr	r3, [r7, #4]
 914 03e4 D3F88030 		ldr	r3, [r3, #128]
 915 03e8 1B68     		ldr	r3, [r3]
 916 03ea 1A68     		ldr	r2, [r3]
 917 03ec 7B68     		ldr	r3, [r7, #4]
 918 03ee D3F88030 		ldr	r3, [r3, #128]
 919 03f2 1B68     		ldr	r3, [r3]
 920 03f4 22F00402 		bic	r2, r2, #4
 921 03f8 1A60     		str	r2, [r3]
 922              		.loc 1 139 1 is_stmt 1
 923 03fa FFE7     		b	.L24
 924              	.L16:
 925              	.L24:
 926 03fc 00BF     		nop
 927 03fe 0837     		adds	r7, r7, #8
 928              	.LCFI16:
 929              		.cfi_def_cfa_offset 8
 930 0400 BD46     		mov	sp, r7
 931              	.LCFI17:
 932              		.cfi_def_cfa_register 13
 933              		@ sp needed
 934 0402 80BD     		pop	{r7, pc}
 935              	.L28:
 936              		.align	2
 937              	.L27:
 938 0404 00000000 		.word	huart10
 939 0408 00000000 		.word	huart1
 940 040c 0C000000 		.word	UART1_data+12
 941 0410 10000240 		.word	1073872912
 942 0414 28000240 		.word	1073872936
 943 0418 40000240 		.word	1073872960
 944 041c 58000240 		.word	1073872984
 945 0420 70000240 		.word	1073873008
 946 0424 88000240 		.word	1073873032
 947 0428 A0000240 		.word	1073873056
 948 042c B8000240 		.word	1073873080
 949 0430 10040240 		.word	1073873936
 950 0434 28040240 		.word	1073873960
 951 0438 40040240 		.word	1073873984
 952 043c 58040240 		.word	1073874008
 953 0440 70040240 		.word	1073874032
 954 0444 88040240 		.word	1073874056
ARM GAS  C:\Users\Godwin\AppData\Local\Temp\ccfJUVUO.s 			page 21


 955 0448 A0040240 		.word	1073874080
 956 044c B8040240 		.word	1073874104
 957              		.cfi_endproc
 958              	.LFE151:
 960              		.section	.text.HAL_UART_RxCpltCallback,"ax",%progbits
 961              		.align	1
 962              		.global	HAL_UART_RxCpltCallback
 963              		.syntax unified
 964              		.thumb
 965              		.thumb_func
 967              	HAL_UART_RxCpltCallback:
 968              	.LFB152:
 140:User/BSP/UART_data_txrx.c **** 
 141:User/BSP/UART_data_txrx.c **** /**
 142:User/BSP/UART_data_txrx.c ****  * @brief ´®żÚ˝ÓĘÜÍęłÉÖĐ¶Ď»Řµ÷şŻĘýŁ¬ÓĂÓÚ˝ÓĘÜ¶¨ł¤ĘýľÝ
 143:User/BSP/UART_data_txrx.c ****  *
 144:User/BSP/UART_data_txrx.c ****  * @param huart ˝ÓĘÜ´®żÚşĹ
 145:User/BSP/UART_data_txrx.c ****  */
 146:User/BSP/UART_data_txrx.c **** void HAL_UART_RxCpltCallback(UART_HandleTypeDef *huart)
 147:User/BSP/UART_data_txrx.c **** {
 969              		.loc 1 147 1
 970              		.cfi_startproc
 971              		@ args = 0, pretend = 0, frame = 8
 972              		@ frame_needed = 1, uses_anonymous_args = 0
 973              		@ link register save eliminated.
 974 0000 80B4     		push	{r7}
 975              	.LCFI18:
 976              		.cfi_def_cfa_offset 4
 977              		.cfi_offset 7, -4
 978 0002 83B0     		sub	sp, sp, #12
 979              	.LCFI19:
 980              		.cfi_def_cfa_offset 16
 981 0004 00AF     		add	r7, sp, #0
 982              	.LCFI20:
 983              		.cfi_def_cfa_register 7
 984 0006 7860     		str	r0, [r7, #4]
 148:User/BSP/UART_data_txrx.c **** }
 985              		.loc 1 148 1
 986 0008 00BF     		nop
 987 000a 0C37     		adds	r7, r7, #12
 988              	.LCFI21:
 989              		.cfi_def_cfa_offset 4
 990 000c BD46     		mov	sp, r7
 991              	.LCFI22:
 992              		.cfi_def_cfa_register 13
 993              		@ sp needed
 994 000e 5DF8047B 		ldr	r7, [sp], #4
 995              	.LCFI23:
 996              		.cfi_restore 7
 997              		.cfi_def_cfa_offset 0
 998 0012 7047     		bx	lr
 999              		.cfi_endproc
 1000              	.LFE152:
 1002              		.section	.text.HAL_UART_ErrorCallback,"ax",%progbits
 1003              		.align	1
 1004              		.global	HAL_UART_ErrorCallback
 1005              		.syntax unified
ARM GAS  C:\Users\Godwin\AppData\Local\Temp\ccfJUVUO.s 			page 22


 1006              		.thumb
 1007              		.thumb_func
 1009              	HAL_UART_ErrorCallback:
 1010              	.LFB153:
 149:User/BSP/UART_data_txrx.c **** 
 150:User/BSP/UART_data_txrx.c **** // ·˘Éú´íÎóÖŘĆô´®żÚ
 151:User/BSP/UART_data_txrx.c **** void HAL_UART_ErrorCallback(UART_HandleTypeDef *huart)
 152:User/BSP/UART_data_txrx.c **** {
 1011              		.loc 1 152 1
 1012              		.cfi_startproc
 1013              		@ args = 0, pretend = 0, frame = 8
 1014              		@ frame_needed = 1, uses_anonymous_args = 0
 1015 0000 80B5     		push	{r7, lr}
 1016              	.LCFI24:
 1017              		.cfi_def_cfa_offset 8
 1018              		.cfi_offset 7, -8
 1019              		.cfi_offset 14, -4
 1020 0002 82B0     		sub	sp, sp, #8
 1021              	.LCFI25:
 1022              		.cfi_def_cfa_offset 16
 1023 0004 00AF     		add	r7, sp, #0
 1024              	.LCFI26:
 1025              		.cfi_def_cfa_register 7
 1026 0006 7860     		str	r0, [r7, #4]
 153:User/BSP/UART_data_txrx.c ****   if (huart == &huart7)
 1027              		.loc 1 153 6
 1028 0008 7B68     		ldr	r3, [r7, #4]
 1029 000a 944A     		ldr	r2, .L47
 1030 000c 9342     		cmp	r3, r2
 1031 000e 40F09080 		bne	.L31
 154:User/BSP/UART_data_txrx.c ****   {
 155:User/BSP/UART_data_txrx.c ****     HAL_UARTEx_ReceiveToIdle_DMA(&huart7, UART7_data.rev_data, UART_BUFFER_SIZE);
 1032              		.loc 1 155 5
 1033 0012 4FF48072 		mov	r2, #256
 1034 0016 9249     		ldr	r1, .L47+4
 1035 0018 9048     		ldr	r0, .L47
 1036 001a FFF7FEFF 		bl	HAL_UARTEx_ReceiveToIdle_DMA
 156:User/BSP/UART_data_txrx.c ****     __HAL_DMA_DISABLE_IT(huart->hdmarx, DMA_IT_HT);
 1037              		.loc 1 156 5
 1038 001e 7B68     		ldr	r3, [r7, #4]
 1039 0020 D3F88030 		ldr	r3, [r3, #128]
 1040 0024 1B68     		ldr	r3, [r3]
 1041 0026 8F4A     		ldr	r2, .L47+8
 1042 0028 9342     		cmp	r3, r2
 1043 002a 68D0     		beq	.L32
 1044              		.loc 1 156 5 is_stmt 0 discriminator 2
 1045 002c 7B68     		ldr	r3, [r7, #4]
 1046 002e D3F88030 		ldr	r3, [r3, #128]
 1047 0032 1B68     		ldr	r3, [r3]
 1048 0034 8C4A     		ldr	r2, .L47+12
 1049 0036 9342     		cmp	r3, r2
 1050 0038 61D0     		beq	.L32
 1051              		.loc 1 156 5 discriminator 4
 1052 003a 7B68     		ldr	r3, [r7, #4]
 1053 003c D3F88030 		ldr	r3, [r3, #128]
 1054 0040 1B68     		ldr	r3, [r3]
 1055 0042 8A4A     		ldr	r2, .L47+16
ARM GAS  C:\Users\Godwin\AppData\Local\Temp\ccfJUVUO.s 			page 23


 1056 0044 9342     		cmp	r3, r2
 1057 0046 5AD0     		beq	.L32
 1058              		.loc 1 156 5 discriminator 6
 1059 0048 7B68     		ldr	r3, [r7, #4]
 1060 004a D3F88030 		ldr	r3, [r3, #128]
 1061 004e 1B68     		ldr	r3, [r3]
 1062 0050 874A     		ldr	r2, .L47+20
 1063 0052 9342     		cmp	r3, r2
 1064 0054 53D0     		beq	.L32
 1065              		.loc 1 156 5 discriminator 8
 1066 0056 7B68     		ldr	r3, [r7, #4]
 1067 0058 D3F88030 		ldr	r3, [r3, #128]
 1068 005c 1B68     		ldr	r3, [r3]
 1069 005e 854A     		ldr	r2, .L47+24
 1070 0060 9342     		cmp	r3, r2
 1071 0062 4CD0     		beq	.L32
 1072              		.loc 1 156 5 discriminator 10
 1073 0064 7B68     		ldr	r3, [r7, #4]
 1074 0066 D3F88030 		ldr	r3, [r3, #128]
 1075 006a 1B68     		ldr	r3, [r3]
 1076 006c 824A     		ldr	r2, .L47+28
 1077 006e 9342     		cmp	r3, r2
 1078 0070 45D0     		beq	.L32
 1079              		.loc 1 156 5 discriminator 12
 1080 0072 7B68     		ldr	r3, [r7, #4]
 1081 0074 D3F88030 		ldr	r3, [r3, #128]
 1082 0078 1B68     		ldr	r3, [r3]
 1083 007a 804A     		ldr	r2, .L47+32
 1084 007c 9342     		cmp	r3, r2
 1085 007e 3ED0     		beq	.L32
 1086              		.loc 1 156 5 discriminator 14
 1087 0080 7B68     		ldr	r3, [r7, #4]
 1088 0082 D3F88030 		ldr	r3, [r3, #128]
 1089 0086 1B68     		ldr	r3, [r3]
 1090 0088 7D4A     		ldr	r2, .L47+36
 1091 008a 9342     		cmp	r3, r2
 1092 008c 37D0     		beq	.L32
 1093              		.loc 1 156 5 discriminator 16
 1094 008e 7B68     		ldr	r3, [r7, #4]
 1095 0090 D3F88030 		ldr	r3, [r3, #128]
 1096 0094 1B68     		ldr	r3, [r3]
 1097 0096 7B4A     		ldr	r2, .L47+40
 1098 0098 9342     		cmp	r3, r2
 1099 009a 30D0     		beq	.L32
 1100              		.loc 1 156 5 discriminator 18
 1101 009c 7B68     		ldr	r3, [r7, #4]
 1102 009e D3F88030 		ldr	r3, [r3, #128]
 1103 00a2 1B68     		ldr	r3, [r3]
 1104 00a4 784A     		ldr	r2, .L47+44
 1105 00a6 9342     		cmp	r3, r2
 1106 00a8 29D0     		beq	.L32
 1107              		.loc 1 156 5 discriminator 20
 1108 00aa 7B68     		ldr	r3, [r7, #4]
 1109 00ac D3F88030 		ldr	r3, [r3, #128]
 1110 00b0 1B68     		ldr	r3, [r3]
 1111 00b2 764A     		ldr	r2, .L47+48
 1112 00b4 9342     		cmp	r3, r2
ARM GAS  C:\Users\Godwin\AppData\Local\Temp\ccfJUVUO.s 			page 24


 1113 00b6 22D0     		beq	.L32
 1114              		.loc 1 156 5 discriminator 22
 1115 00b8 7B68     		ldr	r3, [r7, #4]
 1116 00ba D3F88030 		ldr	r3, [r3, #128]
 1117 00be 1B68     		ldr	r3, [r3]
 1118 00c0 734A     		ldr	r2, .L47+52
 1119 00c2 9342     		cmp	r3, r2
 1120 00c4 1BD0     		beq	.L32
 1121              		.loc 1 156 5 discriminator 24
 1122 00c6 7B68     		ldr	r3, [r7, #4]
 1123 00c8 D3F88030 		ldr	r3, [r3, #128]
 1124 00cc 1B68     		ldr	r3, [r3]
 1125 00ce 714A     		ldr	r2, .L47+56
 1126 00d0 9342     		cmp	r3, r2
 1127 00d2 14D0     		beq	.L32
 1128              		.loc 1 156 5 discriminator 26
 1129 00d4 7B68     		ldr	r3, [r7, #4]
 1130 00d6 D3F88030 		ldr	r3, [r3, #128]
 1131 00da 1B68     		ldr	r3, [r3]
 1132 00dc 6E4A     		ldr	r2, .L47+60
 1133 00de 9342     		cmp	r3, r2
 1134 00e0 0DD0     		beq	.L32
 1135              		.loc 1 156 5 discriminator 28
 1136 00e2 7B68     		ldr	r3, [r7, #4]
 1137 00e4 D3F88030 		ldr	r3, [r3, #128]
 1138 00e8 1B68     		ldr	r3, [r3]
 1139 00ea 6C4A     		ldr	r2, .L47+64
 1140 00ec 9342     		cmp	r3, r2
 1141 00ee 06D0     		beq	.L32
 1142              		.loc 1 156 5 discriminator 30
 1143 00f0 7B68     		ldr	r3, [r7, #4]
 1144 00f2 D3F88030 		ldr	r3, [r3, #128]
 1145 00f6 1B68     		ldr	r3, [r3]
 1146 00f8 694A     		ldr	r2, .L47+68
 1147 00fa 9342     		cmp	r3, r2
 1148 00fc 0CD1     		bne	.L33
 1149              	.L32:
 1150              		.loc 1 156 5 discriminator 31
 1151 00fe 7B68     		ldr	r3, [r7, #4]
 1152 0100 D3F88030 		ldr	r3, [r3, #128]
 1153 0104 1B68     		ldr	r3, [r3]
 1154 0106 1A68     		ldr	r2, [r3]
 1155 0108 7B68     		ldr	r3, [r7, #4]
 1156 010a D3F88030 		ldr	r3, [r3, #128]
 1157 010e 1B68     		ldr	r3, [r3]
 1158 0110 22F00802 		bic	r2, r2, #8
 1159 0114 1A60     		str	r2, [r3]
 1160              		.loc 1 156 5
 1161 0116 F3E1     		b	.L35
 1162              	.L33:
 1163              		.loc 1 156 5 discriminator 32
 1164 0118 7B68     		ldr	r3, [r7, #4]
 1165 011a D3F88030 		ldr	r3, [r3, #128]
 1166 011e 1B68     		ldr	r3, [r3]
 1167 0120 1A68     		ldr	r2, [r3]
 1168 0122 7B68     		ldr	r3, [r7, #4]
 1169 0124 D3F88030 		ldr	r3, [r3, #128]
ARM GAS  C:\Users\Godwin\AppData\Local\Temp\ccfJUVUO.s 			page 25


 1170 0128 1B68     		ldr	r3, [r3]
 1171 012a 22F00402 		bic	r2, r2, #4
 1172 012e 1A60     		str	r2, [r3]
 157:User/BSP/UART_data_txrx.c ****   }
 158:User/BSP/UART_data_txrx.c ****   else if (huart == &huart10)
 159:User/BSP/UART_data_txrx.c ****   {
 160:User/BSP/UART_data_txrx.c ****     HAL_UARTEx_ReceiveToIdle_DMA(&huart10, UART10_data.rev_data, UART_BUFFER_SIZE);
 161:User/BSP/UART_data_txrx.c ****     __HAL_DMA_DISABLE_IT(huart->hdmarx, DMA_IT_HT);
 162:User/BSP/UART_data_txrx.c ****   }
 163:User/BSP/UART_data_txrx.c ****   else if (huart == &huart5)
 164:User/BSP/UART_data_txrx.c ****   {
 165:User/BSP/UART_data_txrx.c ****     HAL_UARTEx_ReceiveToIdle_DMA(&huart5, UART5_data.rev_data, UART_BUFFER_SIZE);
 166:User/BSP/UART_data_txrx.c ****     __HAL_DMA_DISABLE_IT(huart->hdmarx, DMA_IT_HT);
 167:User/BSP/UART_data_txrx.c ****   }
 168:User/BSP/UART_data_txrx.c ****   else if (huart == &huart1)
 169:User/BSP/UART_data_txrx.c ****   {
 170:User/BSP/UART_data_txrx.c ****     HAL_UARTEx_ReceiveToIdle_DMA(&huart1, UART1_data.rev_data, UART_BUFFER_SIZE);
 171:User/BSP/UART_data_txrx.c ****     __HAL_DMA_DISABLE_IT(huart->hdmarx, DMA_IT_HT);
 172:User/BSP/UART_data_txrx.c ****   }
 173:User/BSP/UART_data_txrx.c **** }
 1173              		.loc 1 173 1 is_stmt 1
 1174 0130 E6E1     		b	.L46
 1175              	.L31:
 158:User/BSP/UART_data_txrx.c ****   {
 1176              		.loc 1 158 11
 1177 0132 7B68     		ldr	r3, [r7, #4]
 1178 0134 5B4A     		ldr	r2, .L47+72
 1179 0136 9342     		cmp	r3, r2
 1180 0138 40F0B880 		bne	.L36
 160:User/BSP/UART_data_txrx.c ****     __HAL_DMA_DISABLE_IT(huart->hdmarx, DMA_IT_HT);
 1181              		.loc 1 160 5
 1182 013c 4FF48072 		mov	r2, #256
 1183 0140 5949     		ldr	r1, .L47+76
 1184 0142 5848     		ldr	r0, .L47+72
 1185 0144 FFF7FEFF 		bl	HAL_UARTEx_ReceiveToIdle_DMA
 161:User/BSP/UART_data_txrx.c ****   }
 1186              		.loc 1 161 5
 1187 0148 7B68     		ldr	r3, [r7, #4]
 1188 014a D3F88030 		ldr	r3, [r3, #128]
 1189 014e 1B68     		ldr	r3, [r3]
 1190 0150 444A     		ldr	r2, .L47+8
 1191 0152 9342     		cmp	r3, r2
 1192 0154 68D0     		beq	.L37
 161:User/BSP/UART_data_txrx.c ****   }
 1193              		.loc 1 161 5 is_stmt 0 discriminator 2
 1194 0156 7B68     		ldr	r3, [r7, #4]
 1195 0158 D3F88030 		ldr	r3, [r3, #128]
 1196 015c 1B68     		ldr	r3, [r3]
 1197 015e 424A     		ldr	r2, .L47+12
 1198 0160 9342     		cmp	r3, r2
 1199 0162 61D0     		beq	.L37
 161:User/BSP/UART_data_txrx.c ****   }
 1200              		.loc 1 161 5 discriminator 4
 1201 0164 7B68     		ldr	r3, [r7, #4]
 1202 0166 D3F88030 		ldr	r3, [r3, #128]
 1203 016a 1B68     		ldr	r3, [r3]
 1204 016c 3F4A     		ldr	r2, .L47+16
ARM GAS  C:\Users\Godwin\AppData\Local\Temp\ccfJUVUO.s 			page 26


 1205 016e 9342     		cmp	r3, r2
 1206 0170 5AD0     		beq	.L37
 161:User/BSP/UART_data_txrx.c ****   }
 1207              		.loc 1 161 5 discriminator 6
 1208 0172 7B68     		ldr	r3, [r7, #4]
 1209 0174 D3F88030 		ldr	r3, [r3, #128]
 1210 0178 1B68     		ldr	r3, [r3]
 1211 017a 3D4A     		ldr	r2, .L47+20
 1212 017c 9342     		cmp	r3, r2
 1213 017e 53D0     		beq	.L37
 161:User/BSP/UART_data_txrx.c ****   }
 1214              		.loc 1 161 5 discriminator 8
 1215 0180 7B68     		ldr	r3, [r7, #4]
 1216 0182 D3F88030 		ldr	r3, [r3, #128]
 1217 0186 1B68     		ldr	r3, [r3]
 1218 0188 3A4A     		ldr	r2, .L47+24
 1219 018a 9342     		cmp	r3, r2
 1220 018c 4CD0     		beq	.L37
 161:User/BSP/UART_data_txrx.c ****   }
 1221              		.loc 1 161 5 discriminator 10
 1222 018e 7B68     		ldr	r3, [r7, #4]
 1223 0190 D3F88030 		ldr	r3, [r3, #128]
 1224 0194 1B68     		ldr	r3, [r3]
 1225 0196 384A     		ldr	r2, .L47+28
 1226 0198 9342     		cmp	r3, r2
 1227 019a 45D0     		beq	.L37
 161:User/BSP/UART_data_txrx.c ****   }
 1228              		.loc 1 161 5 discriminator 12
 1229 019c 7B68     		ldr	r3, [r7, #4]
 1230 019e D3F88030 		ldr	r3, [r3, #128]
 1231 01a2 1B68     		ldr	r3, [r3]
 1232 01a4 354A     		ldr	r2, .L47+32
 1233 01a6 9342     		cmp	r3, r2
 1234 01a8 3ED0     		beq	.L37
 161:User/BSP/UART_data_txrx.c ****   }
 1235              		.loc 1 161 5 discriminator 14
 1236 01aa 7B68     		ldr	r3, [r7, #4]
 1237 01ac D3F88030 		ldr	r3, [r3, #128]
 1238 01b0 1B68     		ldr	r3, [r3]
 1239 01b2 334A     		ldr	r2, .L47+36
 1240 01b4 9342     		cmp	r3, r2
 1241 01b6 37D0     		beq	.L37
 161:User/BSP/UART_data_txrx.c ****   }
 1242              		.loc 1 161 5 discriminator 16
 1243 01b8 7B68     		ldr	r3, [r7, #4]
 1244 01ba D3F88030 		ldr	r3, [r3, #128]
 1245 01be 1B68     		ldr	r3, [r3]
 1246 01c0 304A     		ldr	r2, .L47+40
 1247 01c2 9342     		cmp	r3, r2
 1248 01c4 30D0     		beq	.L37
 161:User/BSP/UART_data_txrx.c ****   }
 1249              		.loc 1 161 5 discriminator 18
 1250 01c6 7B68     		ldr	r3, [r7, #4]
 1251 01c8 D3F88030 		ldr	r3, [r3, #128]
 1252 01cc 1B68     		ldr	r3, [r3]
 1253 01ce 2E4A     		ldr	r2, .L47+44
 1254 01d0 9342     		cmp	r3, r2
ARM GAS  C:\Users\Godwin\AppData\Local\Temp\ccfJUVUO.s 			page 27


 1255 01d2 29D0     		beq	.L37
 161:User/BSP/UART_data_txrx.c ****   }
 1256              		.loc 1 161 5 discriminator 20
 1257 01d4 7B68     		ldr	r3, [r7, #4]
 1258 01d6 D3F88030 		ldr	r3, [r3, #128]
 1259 01da 1B68     		ldr	r3, [r3]
 1260 01dc 2B4A     		ldr	r2, .L47+48
 1261 01de 9342     		cmp	r3, r2
 1262 01e0 22D0     		beq	.L37
 161:User/BSP/UART_data_txrx.c ****   }
 1263              		.loc 1 161 5 discriminator 22
 1264 01e2 7B68     		ldr	r3, [r7, #4]
 1265 01e4 D3F88030 		ldr	r3, [r3, #128]
 1266 01e8 1B68     		ldr	r3, [r3]
 1267 01ea 294A     		ldr	r2, .L47+52
 1268 01ec 9342     		cmp	r3, r2
 1269 01ee 1BD0     		beq	.L37
 161:User/BSP/UART_data_txrx.c ****   }
 1270              		.loc 1 161 5 discriminator 24
 1271 01f0 7B68     		ldr	r3, [r7, #4]
 1272 01f2 D3F88030 		ldr	r3, [r3, #128]
 1273 01f6 1B68     		ldr	r3, [r3]
 1274 01f8 264A     		ldr	r2, .L47+56
 1275 01fa 9342     		cmp	r3, r2
 1276 01fc 14D0     		beq	.L37
 161:User/BSP/UART_data_txrx.c ****   }
 1277              		.loc 1 161 5 discriminator 26
 1278 01fe 7B68     		ldr	r3, [r7, #4]
 1279 0200 D3F88030 		ldr	r3, [r3, #128]
 1280 0204 1B68     		ldr	r3, [r3]
 1281 0206 244A     		ldr	r2, .L47+60
 1282 0208 9342     		cmp	r3, r2
 1283 020a 0DD0     		beq	.L37
 161:User/BSP/UART_data_txrx.c ****   }
 1284              		.loc 1 161 5 discriminator 28
 1285 020c 7B68     		ldr	r3, [r7, #4]
 1286 020e D3F88030 		ldr	r3, [r3, #128]
 1287 0212 1B68     		ldr	r3, [r3]
 1288 0214 214A     		ldr	r2, .L47+64
 1289 0216 9342     		cmp	r3, r2
 1290 0218 06D0     		beq	.L37
 161:User/BSP/UART_data_txrx.c ****   }
 1291              		.loc 1 161 5 discriminator 30
 1292 021a 7B68     		ldr	r3, [r7, #4]
 1293 021c D3F88030 		ldr	r3, [r3, #128]
 1294 0220 1B68     		ldr	r3, [r3]
 1295 0222 1F4A     		ldr	r2, .L47+68
 1296 0224 9342     		cmp	r3, r2
 1297 0226 0CD1     		bne	.L38
 1298              	.L37:
 161:User/BSP/UART_data_txrx.c ****   }
 1299              		.loc 1 161 5 discriminator 31
 1300 0228 7B68     		ldr	r3, [r7, #4]
 1301 022a D3F88030 		ldr	r3, [r3, #128]
 1302 022e 1B68     		ldr	r3, [r3]
 1303 0230 1A68     		ldr	r2, [r3]
 1304 0232 7B68     		ldr	r3, [r7, #4]
ARM GAS  C:\Users\Godwin\AppData\Local\Temp\ccfJUVUO.s 			page 28


 1305 0234 D3F88030 		ldr	r3, [r3, #128]
 1306 0238 1B68     		ldr	r3, [r3]
 1307 023a 22F00802 		bic	r2, r2, #8
 1308 023e 1A60     		str	r2, [r3]
 161:User/BSP/UART_data_txrx.c ****   }
 1309              		.loc 1 161 5
 1310 0240 5EE1     		b	.L35
 1311              	.L38:
 161:User/BSP/UART_data_txrx.c ****   }
 1312              		.loc 1 161 5 discriminator 32
 1313 0242 7B68     		ldr	r3, [r7, #4]
 1314 0244 D3F88030 		ldr	r3, [r3, #128]
 1315 0248 1B68     		ldr	r3, [r3]
 1316 024a 1A68     		ldr	r2, [r3]
 1317 024c 7B68     		ldr	r3, [r7, #4]
 1318 024e D3F88030 		ldr	r3, [r3, #128]
 1319 0252 1B68     		ldr	r3, [r3]
 1320 0254 22F00402 		bic	r2, r2, #4
 1321 0258 1A60     		str	r2, [r3]
 1322              		.loc 1 173 1 is_stmt 1
 1323 025a 51E1     		b	.L46
 1324              	.L48:
 1325              		.align	2
 1326              	.L47:
 1327 025c 00000000 		.word	huart7
 1328 0260 0C000000 		.word	UART7_data+12
 1329 0264 10000240 		.word	1073872912
 1330 0268 28000240 		.word	1073872936
 1331 026c 40000240 		.word	1073872960
 1332 0270 58000240 		.word	1073872984
 1333 0274 70000240 		.word	1073873008
 1334 0278 88000240 		.word	1073873032
 1335 027c A0000240 		.word	1073873056
 1336 0280 B8000240 		.word	1073873080
 1337 0284 10040240 		.word	1073873936
 1338 0288 28040240 		.word	1073873960
 1339 028c 40040240 		.word	1073873984
 1340 0290 58040240 		.word	1073874008
 1341 0294 70040240 		.word	1073874032
 1342 0298 88040240 		.word	1073874056
 1343 029c A0040240 		.word	1073874080
 1344 02a0 B8040240 		.word	1073874104
 1345 02a4 00000000 		.word	huart10
 1346 02a8 0C000000 		.word	UART10_data+12
 1347              	.L36:
 163:User/BSP/UART_data_txrx.c ****   {
 1348              		.loc 1 163 11
 1349 02ac 7B68     		ldr	r3, [r7, #4]
 1350 02ae 964A     		ldr	r2, .L49
 1351 02b0 9342     		cmp	r3, r2
 1352 02b2 40F09080 		bne	.L40
 165:User/BSP/UART_data_txrx.c ****     __HAL_DMA_DISABLE_IT(huart->hdmarx, DMA_IT_HT);
 1353              		.loc 1 165 5
 1354 02b6 4FF48072 		mov	r2, #256
 1355 02ba 9449     		ldr	r1, .L49+4
 1356 02bc 9248     		ldr	r0, .L49
 1357 02be FFF7FEFF 		bl	HAL_UARTEx_ReceiveToIdle_DMA
ARM GAS  C:\Users\Godwin\AppData\Local\Temp\ccfJUVUO.s 			page 29


 166:User/BSP/UART_data_txrx.c ****   }
 1358              		.loc 1 166 5
 1359 02c2 7B68     		ldr	r3, [r7, #4]
 1360 02c4 D3F88030 		ldr	r3, [r3, #128]
 1361 02c8 1B68     		ldr	r3, [r3]
 1362 02ca 914A     		ldr	r2, .L49+8
 1363 02cc 9342     		cmp	r3, r2
 1364 02ce 68D0     		beq	.L41
 166:User/BSP/UART_data_txrx.c ****   }
 1365              		.loc 1 166 5 is_stmt 0 discriminator 2
 1366 02d0 7B68     		ldr	r3, [r7, #4]
 1367 02d2 D3F88030 		ldr	r3, [r3, #128]
 1368 02d6 1B68     		ldr	r3, [r3]
 1369 02d8 8E4A     		ldr	r2, .L49+12
 1370 02da 9342     		cmp	r3, r2
 1371 02dc 61D0     		beq	.L41
 166:User/BSP/UART_data_txrx.c ****   }
 1372              		.loc 1 166 5 discriminator 4
 1373 02de 7B68     		ldr	r3, [r7, #4]
 1374 02e0 D3F88030 		ldr	r3, [r3, #128]
 1375 02e4 1B68     		ldr	r3, [r3]
 1376 02e6 8C4A     		ldr	r2, .L49+16
 1377 02e8 9342     		cmp	r3, r2
 1378 02ea 5AD0     		beq	.L41
 166:User/BSP/UART_data_txrx.c ****   }
 1379              		.loc 1 166 5 discriminator 6
 1380 02ec 7B68     		ldr	r3, [r7, #4]
 1381 02ee D3F88030 		ldr	r3, [r3, #128]
 1382 02f2 1B68     		ldr	r3, [r3]
 1383 02f4 894A     		ldr	r2, .L49+20
 1384 02f6 9342     		cmp	r3, r2
 1385 02f8 53D0     		beq	.L41
 166:User/BSP/UART_data_txrx.c ****   }
 1386              		.loc 1 166 5 discriminator 8
 1387 02fa 7B68     		ldr	r3, [r7, #4]
 1388 02fc D3F88030 		ldr	r3, [r3, #128]
 1389 0300 1B68     		ldr	r3, [r3]
 1390 0302 874A     		ldr	r2, .L49+24
 1391 0304 9342     		cmp	r3, r2
 1392 0306 4CD0     		beq	.L41
 166:User/BSP/UART_data_txrx.c ****   }
 1393              		.loc 1 166 5 discriminator 10
 1394 0308 7B68     		ldr	r3, [r7, #4]
 1395 030a D3F88030 		ldr	r3, [r3, #128]
 1396 030e 1B68     		ldr	r3, [r3]
 1397 0310 844A     		ldr	r2, .L49+28
 1398 0312 9342     		cmp	r3, r2
 1399 0314 45D0     		beq	.L41
 166:User/BSP/UART_data_txrx.c ****   }
 1400              		.loc 1 166 5 discriminator 12
 1401 0316 7B68     		ldr	r3, [r7, #4]
 1402 0318 D3F88030 		ldr	r3, [r3, #128]
 1403 031c 1B68     		ldr	r3, [r3]
 1404 031e 824A     		ldr	r2, .L49+32
 1405 0320 9342     		cmp	r3, r2
 1406 0322 3ED0     		beq	.L41
 166:User/BSP/UART_data_txrx.c ****   }
ARM GAS  C:\Users\Godwin\AppData\Local\Temp\ccfJUVUO.s 			page 30


 1407              		.loc 1 166 5 discriminator 14
 1408 0324 7B68     		ldr	r3, [r7, #4]
 1409 0326 D3F88030 		ldr	r3, [r3, #128]
 1410 032a 1B68     		ldr	r3, [r3]
 1411 032c 7F4A     		ldr	r2, .L49+36
 1412 032e 9342     		cmp	r3, r2
 1413 0330 37D0     		beq	.L41
 166:User/BSP/UART_data_txrx.c ****   }
 1414              		.loc 1 166 5 discriminator 16
 1415 0332 7B68     		ldr	r3, [r7, #4]
 1416 0334 D3F88030 		ldr	r3, [r3, #128]
 1417 0338 1B68     		ldr	r3, [r3]
 1418 033a 7D4A     		ldr	r2, .L49+40
 1419 033c 9342     		cmp	r3, r2
 1420 033e 30D0     		beq	.L41
 166:User/BSP/UART_data_txrx.c ****   }
 1421              		.loc 1 166 5 discriminator 18
 1422 0340 7B68     		ldr	r3, [r7, #4]
 1423 0342 D3F88030 		ldr	r3, [r3, #128]
 1424 0346 1B68     		ldr	r3, [r3]
 1425 0348 7A4A     		ldr	r2, .L49+44
 1426 034a 9342     		cmp	r3, r2
 1427 034c 29D0     		beq	.L41
 166:User/BSP/UART_data_txrx.c ****   }
 1428              		.loc 1 166 5 discriminator 20
 1429 034e 7B68     		ldr	r3, [r7, #4]
 1430 0350 D3F88030 		ldr	r3, [r3, #128]
 1431 0354 1B68     		ldr	r3, [r3]
 1432 0356 784A     		ldr	r2, .L49+48
 1433 0358 9342     		cmp	r3, r2
 1434 035a 22D0     		beq	.L41
 166:User/BSP/UART_data_txrx.c ****   }
 1435              		.loc 1 166 5 discriminator 22
 1436 035c 7B68     		ldr	r3, [r7, #4]
 1437 035e D3F88030 		ldr	r3, [r3, #128]
 1438 0362 1B68     		ldr	r3, [r3]
 1439 0364 754A     		ldr	r2, .L49+52
 1440 0366 9342     		cmp	r3, r2
 1441 0368 1BD0     		beq	.L41
 166:User/BSP/UART_data_txrx.c ****   }
 1442              		.loc 1 166 5 discriminator 24
 1443 036a 7B68     		ldr	r3, [r7, #4]
 1444 036c D3F88030 		ldr	r3, [r3, #128]
 1445 0370 1B68     		ldr	r3, [r3]
 1446 0372 734A     		ldr	r2, .L49+56
 1447 0374 9342     		cmp	r3, r2
 1448 0376 14D0     		beq	.L41
 166:User/BSP/UART_data_txrx.c ****   }
 1449              		.loc 1 166 5 discriminator 26
 1450 0378 7B68     		ldr	r3, [r7, #4]
 1451 037a D3F88030 		ldr	r3, [r3, #128]
 1452 037e 1B68     		ldr	r3, [r3]
 1453 0380 704A     		ldr	r2, .L49+60
 1454 0382 9342     		cmp	r3, r2
 1455 0384 0DD0     		beq	.L41
 166:User/BSP/UART_data_txrx.c ****   }
 1456              		.loc 1 166 5 discriminator 28
ARM GAS  C:\Users\Godwin\AppData\Local\Temp\ccfJUVUO.s 			page 31


 1457 0386 7B68     		ldr	r3, [r7, #4]
 1458 0388 D3F88030 		ldr	r3, [r3, #128]
 1459 038c 1B68     		ldr	r3, [r3]
 1460 038e 6E4A     		ldr	r2, .L49+64
 1461 0390 9342     		cmp	r3, r2
 1462 0392 06D0     		beq	.L41
 166:User/BSP/UART_data_txrx.c ****   }
 1463              		.loc 1 166 5 discriminator 30
 1464 0394 7B68     		ldr	r3, [r7, #4]
 1465 0396 D3F88030 		ldr	r3, [r3, #128]
 1466 039a 1B68     		ldr	r3, [r3]
 1467 039c 6B4A     		ldr	r2, .L49+68
 1468 039e 9342     		cmp	r3, r2
 1469 03a0 0CD1     		bne	.L42
 1470              	.L41:
 166:User/BSP/UART_data_txrx.c ****   }
 1471              		.loc 1 166 5 discriminator 31
 1472 03a2 7B68     		ldr	r3, [r7, #4]
 1473 03a4 D3F88030 		ldr	r3, [r3, #128]
 1474 03a8 1B68     		ldr	r3, [r3]
 1475 03aa 1A68     		ldr	r2, [r3]
 1476 03ac 7B68     		ldr	r3, [r7, #4]
 1477 03ae D3F88030 		ldr	r3, [r3, #128]
 1478 03b2 1B68     		ldr	r3, [r3]
 1479 03b4 22F00802 		bic	r2, r2, #8
 1480 03b8 1A60     		str	r2, [r3]
 166:User/BSP/UART_data_txrx.c ****   }
 1481              		.loc 1 166 5
 1482 03ba A1E0     		b	.L35
 1483              	.L42:
 166:User/BSP/UART_data_txrx.c ****   }
 1484              		.loc 1 166 5 discriminator 32
 1485 03bc 7B68     		ldr	r3, [r7, #4]
 1486 03be D3F88030 		ldr	r3, [r3, #128]
 1487 03c2 1B68     		ldr	r3, [r3]
 1488 03c4 1A68     		ldr	r2, [r3]
 1489 03c6 7B68     		ldr	r3, [r7, #4]
 1490 03c8 D3F88030 		ldr	r3, [r3, #128]
 1491 03cc 1B68     		ldr	r3, [r3]
 1492 03ce 22F00402 		bic	r2, r2, #4
 1493 03d2 1A60     		str	r2, [r3]
 1494              		.loc 1 173 1 is_stmt 1
 1495 03d4 94E0     		b	.L46
 1496              	.L40:
 168:User/BSP/UART_data_txrx.c ****   {
 1497              		.loc 1 168 11
 1498 03d6 7B68     		ldr	r3, [r7, #4]
 1499 03d8 5D4A     		ldr	r2, .L49+72
 1500 03da 9342     		cmp	r3, r2
 1501 03dc 40F09080 		bne	.L46
 170:User/BSP/UART_data_txrx.c ****     __HAL_DMA_DISABLE_IT(huart->hdmarx, DMA_IT_HT);
 1502              		.loc 1 170 5
 1503 03e0 4FF48072 		mov	r2, #256
 1504 03e4 5B49     		ldr	r1, .L49+76
 1505 03e6 5A48     		ldr	r0, .L49+72
 1506 03e8 FFF7FEFF 		bl	HAL_UARTEx_ReceiveToIdle_DMA
 171:User/BSP/UART_data_txrx.c ****   }
ARM GAS  C:\Users\Godwin\AppData\Local\Temp\ccfJUVUO.s 			page 32


 1507              		.loc 1 171 5
 1508 03ec 7B68     		ldr	r3, [r7, #4]
 1509 03ee D3F88030 		ldr	r3, [r3, #128]
 1510 03f2 1B68     		ldr	r3, [r3]
 1511 03f4 464A     		ldr	r2, .L49+8
 1512 03f6 9342     		cmp	r3, r2
 1513 03f8 68D0     		beq	.L44
 171:User/BSP/UART_data_txrx.c ****   }
 1514              		.loc 1 171 5 is_stmt 0 discriminator 2
 1515 03fa 7B68     		ldr	r3, [r7, #4]
 1516 03fc D3F88030 		ldr	r3, [r3, #128]
 1517 0400 1B68     		ldr	r3, [r3]
 1518 0402 444A     		ldr	r2, .L49+12
 1519 0404 9342     		cmp	r3, r2
 1520 0406 61D0     		beq	.L44
 171:User/BSP/UART_data_txrx.c ****   }
 1521              		.loc 1 171 5 discriminator 4
 1522 0408 7B68     		ldr	r3, [r7, #4]
 1523 040a D3F88030 		ldr	r3, [r3, #128]
 1524 040e 1B68     		ldr	r3, [r3]
 1525 0410 414A     		ldr	r2, .L49+16
 1526 0412 9342     		cmp	r3, r2
 1527 0414 5AD0     		beq	.L44
 171:User/BSP/UART_data_txrx.c ****   }
 1528              		.loc 1 171 5 discriminator 6
 1529 0416 7B68     		ldr	r3, [r7, #4]
 1530 0418 D3F88030 		ldr	r3, [r3, #128]
 1531 041c 1B68     		ldr	r3, [r3]
 1532 041e 3F4A     		ldr	r2, .L49+20
 1533 0420 9342     		cmp	r3, r2
 1534 0422 53D0     		beq	.L44
 171:User/BSP/UART_data_txrx.c ****   }
 1535              		.loc 1 171 5 discriminator 8
 1536 0424 7B68     		ldr	r3, [r7, #4]
 1537 0426 D3F88030 		ldr	r3, [r3, #128]
 1538 042a 1B68     		ldr	r3, [r3]
 1539 042c 3C4A     		ldr	r2, .L49+24
 1540 042e 9342     		cmp	r3, r2
 1541 0430 4CD0     		beq	.L44
 171:User/BSP/UART_data_txrx.c ****   }
 1542              		.loc 1 171 5 discriminator 10
 1543 0432 7B68     		ldr	r3, [r7, #4]
 1544 0434 D3F88030 		ldr	r3, [r3, #128]
 1545 0438 1B68     		ldr	r3, [r3]
 1546 043a 3A4A     		ldr	r2, .L49+28
 1547 043c 9342     		cmp	r3, r2
 1548 043e 45D0     		beq	.L44
 171:User/BSP/UART_data_txrx.c ****   }
 1549              		.loc 1 171 5 discriminator 12
 1550 0440 7B68     		ldr	r3, [r7, #4]
 1551 0442 D3F88030 		ldr	r3, [r3, #128]
 1552 0446 1B68     		ldr	r3, [r3]
 1553 0448 374A     		ldr	r2, .L49+32
 1554 044a 9342     		cmp	r3, r2
 1555 044c 3ED0     		beq	.L44
 171:User/BSP/UART_data_txrx.c ****   }
 1556              		.loc 1 171 5 discriminator 14
ARM GAS  C:\Users\Godwin\AppData\Local\Temp\ccfJUVUO.s 			page 33


 1557 044e 7B68     		ldr	r3, [r7, #4]
 1558 0450 D3F88030 		ldr	r3, [r3, #128]
 1559 0454 1B68     		ldr	r3, [r3]
 1560 0456 354A     		ldr	r2, .L49+36
 1561 0458 9342     		cmp	r3, r2
 1562 045a 37D0     		beq	.L44
 171:User/BSP/UART_data_txrx.c ****   }
 1563              		.loc 1 171 5 discriminator 16
 1564 045c 7B68     		ldr	r3, [r7, #4]
 1565 045e D3F88030 		ldr	r3, [r3, #128]
 1566 0462 1B68     		ldr	r3, [r3]
 1567 0464 324A     		ldr	r2, .L49+40
 1568 0466 9342     		cmp	r3, r2
 1569 0468 30D0     		beq	.L44
 171:User/BSP/UART_data_txrx.c ****   }
 1570              		.loc 1 171 5 discriminator 18
 1571 046a 7B68     		ldr	r3, [r7, #4]
 1572 046c D3F88030 		ldr	r3, [r3, #128]
 1573 0470 1B68     		ldr	r3, [r3]
 1574 0472 304A     		ldr	r2, .L49+44
 1575 0474 9342     		cmp	r3, r2
 1576 0476 29D0     		beq	.L44
 171:User/BSP/UART_data_txrx.c ****   }
 1577              		.loc 1 171 5 discriminator 20
 1578 0478 7B68     		ldr	r3, [r7, #4]
 1579 047a D3F88030 		ldr	r3, [r3, #128]
 1580 047e 1B68     		ldr	r3, [r3]
 1581 0480 2D4A     		ldr	r2, .L49+48
 1582 0482 9342     		cmp	r3, r2
 1583 0484 22D0     		beq	.L44
 171:User/BSP/UART_data_txrx.c ****   }
 1584              		.loc 1 171 5 discriminator 22
 1585 0486 7B68     		ldr	r3, [r7, #4]
 1586 0488 D3F88030 		ldr	r3, [r3, #128]
 1587 048c 1B68     		ldr	r3, [r3]
 1588 048e 2B4A     		ldr	r2, .L49+52
 1589 0490 9342     		cmp	r3, r2
 1590 0492 1BD0     		beq	.L44
 171:User/BSP/UART_data_txrx.c ****   }
 1591              		.loc 1 171 5 discriminator 24
 1592 0494 7B68     		ldr	r3, [r7, #4]
 1593 0496 D3F88030 		ldr	r3, [r3, #128]
 1594 049a 1B68     		ldr	r3, [r3]
 1595 049c 284A     		ldr	r2, .L49+56
 1596 049e 9342     		cmp	r3, r2
 1597 04a0 14D0     		beq	.L44
 171:User/BSP/UART_data_txrx.c ****   }
 1598              		.loc 1 171 5 discriminator 26
 1599 04a2 7B68     		ldr	r3, [r7, #4]
 1600 04a4 D3F88030 		ldr	r3, [r3, #128]
 1601 04a8 1B68     		ldr	r3, [r3]
 1602 04aa 264A     		ldr	r2, .L49+60
 1603 04ac 9342     		cmp	r3, r2
 1604 04ae 0DD0     		beq	.L44
 171:User/BSP/UART_data_txrx.c ****   }
 1605              		.loc 1 171 5 discriminator 28
 1606 04b0 7B68     		ldr	r3, [r7, #4]
ARM GAS  C:\Users\Godwin\AppData\Local\Temp\ccfJUVUO.s 			page 34


 1607 04b2 D3F88030 		ldr	r3, [r3, #128]
 1608 04b6 1B68     		ldr	r3, [r3]
 1609 04b8 234A     		ldr	r2, .L49+64
 1610 04ba 9342     		cmp	r3, r2
 1611 04bc 06D0     		beq	.L44
 171:User/BSP/UART_data_txrx.c ****   }
 1612              		.loc 1 171 5 discriminator 30
 1613 04be 7B68     		ldr	r3, [r7, #4]
 1614 04c0 D3F88030 		ldr	r3, [r3, #128]
 1615 04c4 1B68     		ldr	r3, [r3]
 1616 04c6 214A     		ldr	r2, .L49+68
 1617 04c8 9342     		cmp	r3, r2
 1618 04ca 0CD1     		bne	.L45
 1619              	.L44:
 171:User/BSP/UART_data_txrx.c ****   }
 1620              		.loc 1 171 5 discriminator 31
 1621 04cc 7B68     		ldr	r3, [r7, #4]
 1622 04ce D3F88030 		ldr	r3, [r3, #128]
 1623 04d2 1B68     		ldr	r3, [r3]
 1624 04d4 1A68     		ldr	r2, [r3]
 1625 04d6 7B68     		ldr	r3, [r7, #4]
 1626 04d8 D3F88030 		ldr	r3, [r3, #128]
 1627 04dc 1B68     		ldr	r3, [r3]
 1628 04de 22F00802 		bic	r2, r2, #8
 1629 04e2 1A60     		str	r2, [r3]
 171:User/BSP/UART_data_txrx.c ****   }
 1630              		.loc 1 171 5
 1631 04e4 0CE0     		b	.L35
 1632              	.L45:
 171:User/BSP/UART_data_txrx.c ****   }
 1633              		.loc 1 171 5 discriminator 32
 1634 04e6 7B68     		ldr	r3, [r7, #4]
 1635 04e8 D3F88030 		ldr	r3, [r3, #128]
 1636 04ec 1B68     		ldr	r3, [r3]
 1637 04ee 1A68     		ldr	r2, [r3]
 1638 04f0 7B68     		ldr	r3, [r7, #4]
 1639 04f2 D3F88030 		ldr	r3, [r3, #128]
 1640 04f6 1B68     		ldr	r3, [r3]
 1641 04f8 22F00402 		bic	r2, r2, #4
 1642 04fc 1A60     		str	r2, [r3]
 1643              		.loc 1 173 1 is_stmt 1
 1644 04fe FFE7     		b	.L46
 1645              	.L35:
 1646              	.L46:
 1647 0500 00BF     		nop
 1648 0502 0837     		adds	r7, r7, #8
 1649              	.LCFI27:
 1650              		.cfi_def_cfa_offset 8
 1651 0504 BD46     		mov	sp, r7
 1652              	.LCFI28:
 1653              		.cfi_def_cfa_register 13
 1654              		@ sp needed
 1655 0506 80BD     		pop	{r7, pc}
 1656              	.L50:
 1657              		.align	2
 1658              	.L49:
 1659 0508 00000000 		.word	huart5
ARM GAS  C:\Users\Godwin\AppData\Local\Temp\ccfJUVUO.s 			page 35


 1660 050c 0C000000 		.word	UART5_data+12
 1661 0510 10000240 		.word	1073872912
 1662 0514 28000240 		.word	1073872936
 1663 0518 40000240 		.word	1073872960
 1664 051c 58000240 		.word	1073872984
 1665 0520 70000240 		.word	1073873008
 1666 0524 88000240 		.word	1073873032
 1667 0528 A0000240 		.word	1073873056
 1668 052c B8000240 		.word	1073873080
 1669 0530 10040240 		.word	1073873936
 1670 0534 28040240 		.word	1073873960
 1671 0538 40040240 		.word	1073873984
 1672 053c 58040240 		.word	1073874008
 1673 0540 70040240 		.word	1073874032
 1674 0544 88040240 		.word	1073874056
 1675 0548 A0040240 		.word	1073874080
 1676 054c B8040240 		.word	1073874104
 1677 0550 00000000 		.word	huart1
 1678 0554 0C000000 		.word	UART1_data+12
 1679              		.cfi_endproc
 1680              	.LFE153:
 1682              		.text
 1683              	.Letext0:
 1684              		.file 2 "C:/Users/Godwin/13.2 Rel1/arm-none-eabi/include/machine/_default_types.h"
 1685              		.file 3 "C:/Users/Godwin/13.2 Rel1/arm-none-eabi/include/sys/_stdint.h"
 1686              		.file 4 "Drivers/CMSIS/Device/ST/STM32H7xx/Include/stm32h723xx.h"
 1687              		.file 5 "Drivers/STM32H7xx_HAL_Driver/Inc/stm32h7xx_hal_def.h"
 1688              		.file 6 "Drivers/STM32H7xx_HAL_Driver/Inc/stm32h7xx_hal_dma.h"
 1689              		.file 7 "Drivers/STM32H7xx_HAL_Driver/Inc/stm32h7xx_hal_uart.h"
 1690              		.file 8 "Core/Inc/usart.h"
 1691              		.file 9 "User/BSP/UART_data_txrx.h"
 1692              		.file 10 "User/Hardware/Sbus.h"
 1693              		.file 11 "User/Hardware/stp23l.h"
 1694              		.file 12 "Drivers/STM32H7xx_HAL_Driver/Inc/stm32h7xx_hal_uart_ex.h"
ARM GAS  C:\Users\Godwin\AppData\Local\Temp\ccfJUVUO.s 			page 36


DEFINED SYMBOLS
                            *ABS*:00000000 UART_data_txrx.c
C:\Users\Godwin\AppData\Local\Temp\ccfJUVUO.s:24     .bss.Flag_T13:00000000 Flag_T13
C:\Users\Godwin\AppData\Local\Temp\ccfJUVUO.s:21     .bss.Flag_T13:00000000 $d
C:\Users\Godwin\AppData\Local\Temp\ccfJUVUO.s:31     .bss.UART1_data:00000000 UART1_data
C:\Users\Godwin\AppData\Local\Temp\ccfJUVUO.s:28     .bss.UART1_data:00000000 $d
C:\Users\Godwin\AppData\Local\Temp\ccfJUVUO.s:38     .bss.UART2_data:00000000 UART2_data
C:\Users\Godwin\AppData\Local\Temp\ccfJUVUO.s:35     .bss.UART2_data:00000000 $d
C:\Users\Godwin\AppData\Local\Temp\ccfJUVUO.s:45     .bss.UART3_data:00000000 UART3_data
C:\Users\Godwin\AppData\Local\Temp\ccfJUVUO.s:42     .bss.UART3_data:00000000 $d
C:\Users\Godwin\AppData\Local\Temp\ccfJUVUO.s:52     .bss.UART5_data:00000000 UART5_data
C:\Users\Godwin\AppData\Local\Temp\ccfJUVUO.s:49     .bss.UART5_data:00000000 $d
C:\Users\Godwin\AppData\Local\Temp\ccfJUVUO.s:59     .bss.UART7_data:00000000 UART7_data
C:\Users\Godwin\AppData\Local\Temp\ccfJUVUO.s:56     .bss.UART7_data:00000000 $d
C:\Users\Godwin\AppData\Local\Temp\ccfJUVUO.s:66     .bss.UART10_data:00000000 UART10_data
C:\Users\Godwin\AppData\Local\Temp\ccfJUVUO.s:63     .bss.UART10_data:00000000 $d
C:\Users\Godwin\AppData\Local\Temp\ccfJUVUO.s:69     .text.uart_init:00000000 $t
C:\Users\Godwin\AppData\Local\Temp\ccfJUVUO.s:75     .text.uart_init:00000000 uart_init
C:\Users\Godwin\AppData\Local\Temp\ccfJUVUO.s:152    .text.UART_DMA_rxtx_start:00000000 UART_DMA_rxtx_start
C:\Users\Godwin\AppData\Local\Temp\ccfJUVUO.s:125    .text.uart_init:00000044 $d
C:\Users\Godwin\AppData\Local\Temp\ccfJUVUO.s:146    .text.UART_DMA_rxtx_start:00000000 $t
C:\Users\Godwin\AppData\Local\Temp\ccfJUVUO.s:344    .text.UART_DMA_rxtx_start:0000014c $d
C:\Users\Godwin\AppData\Local\Temp\ccfJUVUO.s:364    .text.UART_send_data:00000000 $t
C:\Users\Godwin\AppData\Local\Temp\ccfJUVUO.s:370    .text.UART_send_data:00000000 UART_send_data
C:\Users\Godwin\AppData\Local\Temp\ccfJUVUO.s:414    .text.HAL_UARTEx_RxEventCallback:00000000 $t
C:\Users\Godwin\AppData\Local\Temp\ccfJUVUO.s:420    .text.HAL_UARTEx_RxEventCallback:00000000 HAL_UARTEx_RxEventCallback
C:\Users\Godwin\AppData\Local\Temp\ccfJUVUO.s:749    .text.HAL_UARTEx_RxEventCallback:00000274 $d
C:\Users\Godwin\AppData\Local\Temp\ccfJUVUO.s:772    .text.HAL_UARTEx_RxEventCallback:000002c8 $t
C:\Users\Godwin\AppData\Local\Temp\ccfJUVUO.s:938    .text.HAL_UARTEx_RxEventCallback:00000404 $d
C:\Users\Godwin\AppData\Local\Temp\ccfJUVUO.s:961    .text.HAL_UART_RxCpltCallback:00000000 $t
C:\Users\Godwin\AppData\Local\Temp\ccfJUVUO.s:967    .text.HAL_UART_RxCpltCallback:00000000 HAL_UART_RxCpltCallback
C:\Users\Godwin\AppData\Local\Temp\ccfJUVUO.s:1003   .text.HAL_UART_ErrorCallback:00000000 $t
C:\Users\Godwin\AppData\Local\Temp\ccfJUVUO.s:1009   .text.HAL_UART_ErrorCallback:00000000 HAL_UART_ErrorCallback
C:\Users\Godwin\AppData\Local\Temp\ccfJUVUO.s:1327   .text.HAL_UART_ErrorCallback:0000025c $d
C:\Users\Godwin\AppData\Local\Temp\ccfJUVUO.s:1349   .text.HAL_UART_ErrorCallback:000002ac $t
C:\Users\Godwin\AppData\Local\Temp\ccfJUVUO.s:1659   .text.HAL_UART_ErrorCallback:00000508 $d

UNDEFINED SYMBOLS
hdma_usart1_rx
huart1
hdma_usart3_rx
huart3
hdma_uart5_rx
huart5
hdma_uart7_tx
hdma_uart7_rx
huart7
hdma_usart10_tx
hdma_usart10_rx
huart10
HAL_UARTEx_ReceiveToIdle_DMA
HAL_UART_Transmit_DMA
update_sbus
STP23L_ParseData
SBUS_CH
