ARM GAS  C:\Users\Godwin\AppData\Local\Temp\ccIOrPOQ.s 			page 1


   1              		.cpu cortex-m7
   2              		.arch armv7e-m
   3              		.fpu fpv5-d16
   4              		.eabi_attribute 28, 1
   5              		.eabi_attribute 20, 1
   6              		.eabi_attribute 21, 1
   7              		.eabi_attribute 23, 3
   8              		.eabi_attribute 24, 1
   9              		.eabi_attribute 25, 1
  10              		.eabi_attribute 26, 1
  11              		.eabi_attribute 30, 6
  12              		.eabi_attribute 34, 1
  13              		.eabi_attribute 18, 4
  14              		.file	"usbd_cdc.c"
  15              		.text
  16              	.Ltext0:
  17              		.cfi_sections	.debug_frame
  18              		.file 1 "Middlewares/ST/STM32_USB_Device_Library/Class/CDC/Src/usbd_cdc.c"
  19              		.section	.data.USBD_CDC_DeviceQualifierDesc,"aw"
  20              		.align	2
  23              	USBD_CDC_DeviceQualifierDesc:
  24 0000 0A060002 		.ascii	"\012\006\000\002\000\000\000@\001\000"
  24      00000040 
  24      0100
  25              		.global	USBD_CDC
  26              		.section	.data.USBD_CDC,"aw"
  27              		.align	2
  30              	USBD_CDC:
  31 0000 00000000 		.word	USBD_CDC_Init
  32 0004 00000000 		.word	USBD_CDC_DeInit
  33 0008 00000000 		.word	USBD_CDC_Setup
  34 000c 00000000 		.word	0
  35 0010 00000000 		.word	USBD_CDC_EP0_RxReady
  36 0014 00000000 		.word	USBD_CDC_DataIn
  37 0018 00000000 		.word	USBD_CDC_DataOut
  38 001c 00000000 		.word	0
  39 0020 00000000 		.word	0
  40 0024 00000000 		.word	0
  41 0028 00000000 		.word	USBD_CDC_GetHSCfgDesc
  42 002c 00000000 		.word	USBD_CDC_GetFSCfgDesc
  43 0030 00000000 		.word	USBD_CDC_GetOtherSpeedCfgDesc
  44 0034 00000000 		.word	USBD_CDC_GetDeviceQualifierDescriptor
  45              		.section	.data.USBD_CDC_CfgDesc,"aw"
  46              		.align	2
  49              	USBD_CDC_CfgDesc:
  50 0000 09024300 		.ascii	"\011\002C\000\002\001\000\3002\011\004\000\000\001\002"
  50      020100C0 
  50      32090400 
  50      000102
  51 000f 02010005 		.ascii	"\002\001\000\005$\000\020\001\005$\001\000\001\004$"
  51      24001001 
  51      05240100 
  51      010424
  52 001e 02020524 		.ascii	"\002\002\005$\006\000\001\007\005\202\003\010\000\020"
  52      06000107 
  52      05820308 
  52      0010
ARM GAS  C:\Users\Godwin\AppData\Local\Temp\ccIOrPOQ.s 			page 2


  53 002c 09040100 		.ascii	"\011\004\001\000\002\012\000\000\000\007\005\001\002"
  53      020A0000 
  53      00070501 
  53      02
  54 0039 40000007 		.ascii	"@\000\000\007\005\201\002@\000\000"
  54      05810240 
  54      0000
  55              		.section	.data.CDCInEpAdd,"aw"
  58              	CDCInEpAdd:
  59 0000 81       		.byte	-127
  60              		.section	.data.CDCOutEpAdd,"aw"
  63              	CDCOutEpAdd:
  64 0000 01       		.byte	1
  65              		.section	.data.CDCCmdEpAdd,"aw"
  68              	CDCCmdEpAdd:
  69 0000 82       		.byte	-126
  70              		.section	.text.USBD_CDC_Init,"ax",%progbits
  71              		.align	1
  72              		.syntax unified
  73              		.thumb
  74              		.thumb_func
  76              	USBD_CDC_Init:
  77              	.LFB148:
   1:Middlewares/ST/STM32_USB_Device_Library/Class/CDC/Src/usbd_cdc.c **** /**
   2:Middlewares/ST/STM32_USB_Device_Library/Class/CDC/Src/usbd_cdc.c ****   ******************************************************************************
   3:Middlewares/ST/STM32_USB_Device_Library/Class/CDC/Src/usbd_cdc.c ****   * @file    usbd_cdc.c
   4:Middlewares/ST/STM32_USB_Device_Library/Class/CDC/Src/usbd_cdc.c ****   * @author  MCD Application Team
   5:Middlewares/ST/STM32_USB_Device_Library/Class/CDC/Src/usbd_cdc.c ****   * @brief   This file provides the high layer firmware functions to manage the
   6:Middlewares/ST/STM32_USB_Device_Library/Class/CDC/Src/usbd_cdc.c ****   *          following functionalities of the USB CDC Class:
   7:Middlewares/ST/STM32_USB_Device_Library/Class/CDC/Src/usbd_cdc.c ****   *           - Initialization and Configuration of high and low layer
   8:Middlewares/ST/STM32_USB_Device_Library/Class/CDC/Src/usbd_cdc.c ****   *           - Enumeration as CDC Device (and enumeration for each implemented memory interface)
   9:Middlewares/ST/STM32_USB_Device_Library/Class/CDC/Src/usbd_cdc.c ****   *           - OUT/IN data transfer
  10:Middlewares/ST/STM32_USB_Device_Library/Class/CDC/Src/usbd_cdc.c ****   *           - Command IN transfer (class requests management)
  11:Middlewares/ST/STM32_USB_Device_Library/Class/CDC/Src/usbd_cdc.c ****   *           - Error management
  12:Middlewares/ST/STM32_USB_Device_Library/Class/CDC/Src/usbd_cdc.c ****   *
  13:Middlewares/ST/STM32_USB_Device_Library/Class/CDC/Src/usbd_cdc.c ****   ******************************************************************************
  14:Middlewares/ST/STM32_USB_Device_Library/Class/CDC/Src/usbd_cdc.c ****   * @attention
  15:Middlewares/ST/STM32_USB_Device_Library/Class/CDC/Src/usbd_cdc.c ****   *
  16:Middlewares/ST/STM32_USB_Device_Library/Class/CDC/Src/usbd_cdc.c ****   * Copyright (c) 2015 STMicroelectronics.
  17:Middlewares/ST/STM32_USB_Device_Library/Class/CDC/Src/usbd_cdc.c ****   * All rights reserved.
  18:Middlewares/ST/STM32_USB_Device_Library/Class/CDC/Src/usbd_cdc.c ****   *
  19:Middlewares/ST/STM32_USB_Device_Library/Class/CDC/Src/usbd_cdc.c ****   * This software is licensed under terms that can be found in the LICENSE file
  20:Middlewares/ST/STM32_USB_Device_Library/Class/CDC/Src/usbd_cdc.c ****   * in the root directory of this software component.
  21:Middlewares/ST/STM32_USB_Device_Library/Class/CDC/Src/usbd_cdc.c ****   * If no LICENSE file comes with this software, it is provided AS-IS.
  22:Middlewares/ST/STM32_USB_Device_Library/Class/CDC/Src/usbd_cdc.c ****   *
  23:Middlewares/ST/STM32_USB_Device_Library/Class/CDC/Src/usbd_cdc.c ****   ******************************************************************************
  24:Middlewares/ST/STM32_USB_Device_Library/Class/CDC/Src/usbd_cdc.c ****   *  @verbatim
  25:Middlewares/ST/STM32_USB_Device_Library/Class/CDC/Src/usbd_cdc.c ****   *
  26:Middlewares/ST/STM32_USB_Device_Library/Class/CDC/Src/usbd_cdc.c ****   *          ===================================================================
  27:Middlewares/ST/STM32_USB_Device_Library/Class/CDC/Src/usbd_cdc.c ****   *                                CDC Class Driver Description
  28:Middlewares/ST/STM32_USB_Device_Library/Class/CDC/Src/usbd_cdc.c ****   *          ===================================================================
  29:Middlewares/ST/STM32_USB_Device_Library/Class/CDC/Src/usbd_cdc.c ****   *           This driver manages the "Universal Serial Bus Class Definitions for Communications De
  30:Middlewares/ST/STM32_USB_Device_Library/Class/CDC/Src/usbd_cdc.c ****   *           Revision 1.2 November 16, 2007" and the sub-protocol specification of "Universal Seri
  31:Middlewares/ST/STM32_USB_Device_Library/Class/CDC/Src/usbd_cdc.c ****   *           Communications Class Subclass Specification for PSTN Devices Revision 1.2 February 9,
  32:Middlewares/ST/STM32_USB_Device_Library/Class/CDC/Src/usbd_cdc.c ****   *           This driver implements the following aspects of the specification:
  33:Middlewares/ST/STM32_USB_Device_Library/Class/CDC/Src/usbd_cdc.c ****   *             - Device descriptor management
  34:Middlewares/ST/STM32_USB_Device_Library/Class/CDC/Src/usbd_cdc.c ****   *             - Configuration descriptor management
ARM GAS  C:\Users\Godwin\AppData\Local\Temp\ccIOrPOQ.s 			page 3


  35:Middlewares/ST/STM32_USB_Device_Library/Class/CDC/Src/usbd_cdc.c ****   *             - Enumeration as CDC device with 2 data endpoints (IN and OUT) and 1 command endpoi
  36:Middlewares/ST/STM32_USB_Device_Library/Class/CDC/Src/usbd_cdc.c ****   *             - Requests management (as described in section 6.2 in specification)
  37:Middlewares/ST/STM32_USB_Device_Library/Class/CDC/Src/usbd_cdc.c ****   *             - Abstract Control Model compliant
  38:Middlewares/ST/STM32_USB_Device_Library/Class/CDC/Src/usbd_cdc.c ****   *             - Union Functional collection (using 1 IN endpoint for control)
  39:Middlewares/ST/STM32_USB_Device_Library/Class/CDC/Src/usbd_cdc.c ****   *             - Data interface class
  40:Middlewares/ST/STM32_USB_Device_Library/Class/CDC/Src/usbd_cdc.c ****   *
  41:Middlewares/ST/STM32_USB_Device_Library/Class/CDC/Src/usbd_cdc.c ****   *           These aspects may be enriched or modified for a specific user application.
  42:Middlewares/ST/STM32_USB_Device_Library/Class/CDC/Src/usbd_cdc.c ****   *
  43:Middlewares/ST/STM32_USB_Device_Library/Class/CDC/Src/usbd_cdc.c ****   *            This driver doesn't implement the following aspects of the specification
  44:Middlewares/ST/STM32_USB_Device_Library/Class/CDC/Src/usbd_cdc.c ****   *            (but it is possible to manage these features with some modifications on this driver)
  45:Middlewares/ST/STM32_USB_Device_Library/Class/CDC/Src/usbd_cdc.c ****   *             - Any class-specific aspect relative to communication classes should be managed by 
  46:Middlewares/ST/STM32_USB_Device_Library/Class/CDC/Src/usbd_cdc.c ****   *             - All communication classes other than PSTN are not managed
  47:Middlewares/ST/STM32_USB_Device_Library/Class/CDC/Src/usbd_cdc.c ****   *
  48:Middlewares/ST/STM32_USB_Device_Library/Class/CDC/Src/usbd_cdc.c ****   *  @endverbatim
  49:Middlewares/ST/STM32_USB_Device_Library/Class/CDC/Src/usbd_cdc.c ****   *
  50:Middlewares/ST/STM32_USB_Device_Library/Class/CDC/Src/usbd_cdc.c ****   ******************************************************************************
  51:Middlewares/ST/STM32_USB_Device_Library/Class/CDC/Src/usbd_cdc.c ****   */
  52:Middlewares/ST/STM32_USB_Device_Library/Class/CDC/Src/usbd_cdc.c **** 
  53:Middlewares/ST/STM32_USB_Device_Library/Class/CDC/Src/usbd_cdc.c **** /* BSPDependencies
  54:Middlewares/ST/STM32_USB_Device_Library/Class/CDC/Src/usbd_cdc.c **** - "stm32xxxxx_{eval}{discovery}{nucleo_144}.c"
  55:Middlewares/ST/STM32_USB_Device_Library/Class/CDC/Src/usbd_cdc.c **** - "stm32xxxxx_{eval}{discovery}_io.c"
  56:Middlewares/ST/STM32_USB_Device_Library/Class/CDC/Src/usbd_cdc.c **** EndBSPDependencies */
  57:Middlewares/ST/STM32_USB_Device_Library/Class/CDC/Src/usbd_cdc.c **** 
  58:Middlewares/ST/STM32_USB_Device_Library/Class/CDC/Src/usbd_cdc.c **** /* Includes ------------------------------------------------------------------*/
  59:Middlewares/ST/STM32_USB_Device_Library/Class/CDC/Src/usbd_cdc.c **** #include "usbd_cdc.h"
  60:Middlewares/ST/STM32_USB_Device_Library/Class/CDC/Src/usbd_cdc.c **** #include "usbd_ctlreq.h"
  61:Middlewares/ST/STM32_USB_Device_Library/Class/CDC/Src/usbd_cdc.c **** 
  62:Middlewares/ST/STM32_USB_Device_Library/Class/CDC/Src/usbd_cdc.c **** 
  63:Middlewares/ST/STM32_USB_Device_Library/Class/CDC/Src/usbd_cdc.c **** /** @addtogroup STM32_USB_DEVICE_LIBRARY
  64:Middlewares/ST/STM32_USB_Device_Library/Class/CDC/Src/usbd_cdc.c ****   * @{
  65:Middlewares/ST/STM32_USB_Device_Library/Class/CDC/Src/usbd_cdc.c ****   */
  66:Middlewares/ST/STM32_USB_Device_Library/Class/CDC/Src/usbd_cdc.c **** 
  67:Middlewares/ST/STM32_USB_Device_Library/Class/CDC/Src/usbd_cdc.c **** 
  68:Middlewares/ST/STM32_USB_Device_Library/Class/CDC/Src/usbd_cdc.c **** /** @defgroup USBD_CDC
  69:Middlewares/ST/STM32_USB_Device_Library/Class/CDC/Src/usbd_cdc.c ****   * @brief usbd core module
  70:Middlewares/ST/STM32_USB_Device_Library/Class/CDC/Src/usbd_cdc.c ****   * @{
  71:Middlewares/ST/STM32_USB_Device_Library/Class/CDC/Src/usbd_cdc.c ****   */
  72:Middlewares/ST/STM32_USB_Device_Library/Class/CDC/Src/usbd_cdc.c **** 
  73:Middlewares/ST/STM32_USB_Device_Library/Class/CDC/Src/usbd_cdc.c **** /** @defgroup USBD_CDC_Private_TypesDefinitions
  74:Middlewares/ST/STM32_USB_Device_Library/Class/CDC/Src/usbd_cdc.c ****   * @{
  75:Middlewares/ST/STM32_USB_Device_Library/Class/CDC/Src/usbd_cdc.c ****   */
  76:Middlewares/ST/STM32_USB_Device_Library/Class/CDC/Src/usbd_cdc.c **** /**
  77:Middlewares/ST/STM32_USB_Device_Library/Class/CDC/Src/usbd_cdc.c ****   * @}
  78:Middlewares/ST/STM32_USB_Device_Library/Class/CDC/Src/usbd_cdc.c ****   */
  79:Middlewares/ST/STM32_USB_Device_Library/Class/CDC/Src/usbd_cdc.c **** 
  80:Middlewares/ST/STM32_USB_Device_Library/Class/CDC/Src/usbd_cdc.c **** 
  81:Middlewares/ST/STM32_USB_Device_Library/Class/CDC/Src/usbd_cdc.c **** /** @defgroup USBD_CDC_Private_Defines
  82:Middlewares/ST/STM32_USB_Device_Library/Class/CDC/Src/usbd_cdc.c ****   * @{
  83:Middlewares/ST/STM32_USB_Device_Library/Class/CDC/Src/usbd_cdc.c ****   */
  84:Middlewares/ST/STM32_USB_Device_Library/Class/CDC/Src/usbd_cdc.c **** /**
  85:Middlewares/ST/STM32_USB_Device_Library/Class/CDC/Src/usbd_cdc.c ****   * @}
  86:Middlewares/ST/STM32_USB_Device_Library/Class/CDC/Src/usbd_cdc.c ****   */
  87:Middlewares/ST/STM32_USB_Device_Library/Class/CDC/Src/usbd_cdc.c **** 
  88:Middlewares/ST/STM32_USB_Device_Library/Class/CDC/Src/usbd_cdc.c **** 
  89:Middlewares/ST/STM32_USB_Device_Library/Class/CDC/Src/usbd_cdc.c **** /** @defgroup USBD_CDC_Private_Macros
  90:Middlewares/ST/STM32_USB_Device_Library/Class/CDC/Src/usbd_cdc.c ****   * @{
  91:Middlewares/ST/STM32_USB_Device_Library/Class/CDC/Src/usbd_cdc.c ****   */
ARM GAS  C:\Users\Godwin\AppData\Local\Temp\ccIOrPOQ.s 			page 4


  92:Middlewares/ST/STM32_USB_Device_Library/Class/CDC/Src/usbd_cdc.c **** 
  93:Middlewares/ST/STM32_USB_Device_Library/Class/CDC/Src/usbd_cdc.c **** /**
  94:Middlewares/ST/STM32_USB_Device_Library/Class/CDC/Src/usbd_cdc.c ****   * @}
  95:Middlewares/ST/STM32_USB_Device_Library/Class/CDC/Src/usbd_cdc.c ****   */
  96:Middlewares/ST/STM32_USB_Device_Library/Class/CDC/Src/usbd_cdc.c **** 
  97:Middlewares/ST/STM32_USB_Device_Library/Class/CDC/Src/usbd_cdc.c **** 
  98:Middlewares/ST/STM32_USB_Device_Library/Class/CDC/Src/usbd_cdc.c **** /** @defgroup USBD_CDC_Private_FunctionPrototypes
  99:Middlewares/ST/STM32_USB_Device_Library/Class/CDC/Src/usbd_cdc.c ****   * @{
 100:Middlewares/ST/STM32_USB_Device_Library/Class/CDC/Src/usbd_cdc.c ****   */
 101:Middlewares/ST/STM32_USB_Device_Library/Class/CDC/Src/usbd_cdc.c **** 
 102:Middlewares/ST/STM32_USB_Device_Library/Class/CDC/Src/usbd_cdc.c **** static uint8_t USBD_CDC_Init(USBD_HandleTypeDef *pdev, uint8_t cfgidx);
 103:Middlewares/ST/STM32_USB_Device_Library/Class/CDC/Src/usbd_cdc.c **** static uint8_t USBD_CDC_DeInit(USBD_HandleTypeDef *pdev, uint8_t cfgidx);
 104:Middlewares/ST/STM32_USB_Device_Library/Class/CDC/Src/usbd_cdc.c **** static uint8_t USBD_CDC_Setup(USBD_HandleTypeDef *pdev, USBD_SetupReqTypedef *req);
 105:Middlewares/ST/STM32_USB_Device_Library/Class/CDC/Src/usbd_cdc.c **** static uint8_t USBD_CDC_DataIn(USBD_HandleTypeDef *pdev, uint8_t epnum);
 106:Middlewares/ST/STM32_USB_Device_Library/Class/CDC/Src/usbd_cdc.c **** static uint8_t USBD_CDC_DataOut(USBD_HandleTypeDef *pdev, uint8_t epnum);
 107:Middlewares/ST/STM32_USB_Device_Library/Class/CDC/Src/usbd_cdc.c **** static uint8_t USBD_CDC_EP0_RxReady(USBD_HandleTypeDef *pdev);
 108:Middlewares/ST/STM32_USB_Device_Library/Class/CDC/Src/usbd_cdc.c **** #ifndef USE_USBD_COMPOSITE
 109:Middlewares/ST/STM32_USB_Device_Library/Class/CDC/Src/usbd_cdc.c **** static uint8_t *USBD_CDC_GetFSCfgDesc(uint16_t *length);
 110:Middlewares/ST/STM32_USB_Device_Library/Class/CDC/Src/usbd_cdc.c **** static uint8_t *USBD_CDC_GetHSCfgDesc(uint16_t *length);
 111:Middlewares/ST/STM32_USB_Device_Library/Class/CDC/Src/usbd_cdc.c **** static uint8_t *USBD_CDC_GetOtherSpeedCfgDesc(uint16_t *length);
 112:Middlewares/ST/STM32_USB_Device_Library/Class/CDC/Src/usbd_cdc.c **** uint8_t *USBD_CDC_GetDeviceQualifierDescriptor(uint16_t *length);
 113:Middlewares/ST/STM32_USB_Device_Library/Class/CDC/Src/usbd_cdc.c **** #endif /* USE_USBD_COMPOSITE  */
 114:Middlewares/ST/STM32_USB_Device_Library/Class/CDC/Src/usbd_cdc.c **** 
 115:Middlewares/ST/STM32_USB_Device_Library/Class/CDC/Src/usbd_cdc.c **** #ifndef USE_USBD_COMPOSITE
 116:Middlewares/ST/STM32_USB_Device_Library/Class/CDC/Src/usbd_cdc.c **** /* USB Standard Device Descriptor */
 117:Middlewares/ST/STM32_USB_Device_Library/Class/CDC/Src/usbd_cdc.c **** __ALIGN_BEGIN static uint8_t USBD_CDC_DeviceQualifierDesc[USB_LEN_DEV_QUALIFIER_DESC] __ALIGN_END =
 118:Middlewares/ST/STM32_USB_Device_Library/Class/CDC/Src/usbd_cdc.c **** {
 119:Middlewares/ST/STM32_USB_Device_Library/Class/CDC/Src/usbd_cdc.c ****   USB_LEN_DEV_QUALIFIER_DESC,
 120:Middlewares/ST/STM32_USB_Device_Library/Class/CDC/Src/usbd_cdc.c ****   USB_DESC_TYPE_DEVICE_QUALIFIER,
 121:Middlewares/ST/STM32_USB_Device_Library/Class/CDC/Src/usbd_cdc.c ****   0x00,
 122:Middlewares/ST/STM32_USB_Device_Library/Class/CDC/Src/usbd_cdc.c ****   0x02,
 123:Middlewares/ST/STM32_USB_Device_Library/Class/CDC/Src/usbd_cdc.c ****   0x00,
 124:Middlewares/ST/STM32_USB_Device_Library/Class/CDC/Src/usbd_cdc.c ****   0x00,
 125:Middlewares/ST/STM32_USB_Device_Library/Class/CDC/Src/usbd_cdc.c ****   0x00,
 126:Middlewares/ST/STM32_USB_Device_Library/Class/CDC/Src/usbd_cdc.c ****   0x40,
 127:Middlewares/ST/STM32_USB_Device_Library/Class/CDC/Src/usbd_cdc.c ****   0x01,
 128:Middlewares/ST/STM32_USB_Device_Library/Class/CDC/Src/usbd_cdc.c ****   0x00,
 129:Middlewares/ST/STM32_USB_Device_Library/Class/CDC/Src/usbd_cdc.c **** };
 130:Middlewares/ST/STM32_USB_Device_Library/Class/CDC/Src/usbd_cdc.c **** #endif /* USE_USBD_COMPOSITE  */
 131:Middlewares/ST/STM32_USB_Device_Library/Class/CDC/Src/usbd_cdc.c **** /**
 132:Middlewares/ST/STM32_USB_Device_Library/Class/CDC/Src/usbd_cdc.c ****   * @}
 133:Middlewares/ST/STM32_USB_Device_Library/Class/CDC/Src/usbd_cdc.c ****   */
 134:Middlewares/ST/STM32_USB_Device_Library/Class/CDC/Src/usbd_cdc.c **** 
 135:Middlewares/ST/STM32_USB_Device_Library/Class/CDC/Src/usbd_cdc.c **** /** @defgroup USBD_CDC_Private_Variables
 136:Middlewares/ST/STM32_USB_Device_Library/Class/CDC/Src/usbd_cdc.c ****   * @{
 137:Middlewares/ST/STM32_USB_Device_Library/Class/CDC/Src/usbd_cdc.c ****   */
 138:Middlewares/ST/STM32_USB_Device_Library/Class/CDC/Src/usbd_cdc.c **** 
 139:Middlewares/ST/STM32_USB_Device_Library/Class/CDC/Src/usbd_cdc.c **** 
 140:Middlewares/ST/STM32_USB_Device_Library/Class/CDC/Src/usbd_cdc.c **** /* CDC interface class callbacks structure */
 141:Middlewares/ST/STM32_USB_Device_Library/Class/CDC/Src/usbd_cdc.c **** USBD_ClassTypeDef  USBD_CDC =
 142:Middlewares/ST/STM32_USB_Device_Library/Class/CDC/Src/usbd_cdc.c **** {
 143:Middlewares/ST/STM32_USB_Device_Library/Class/CDC/Src/usbd_cdc.c ****   USBD_CDC_Init,
 144:Middlewares/ST/STM32_USB_Device_Library/Class/CDC/Src/usbd_cdc.c ****   USBD_CDC_DeInit,
 145:Middlewares/ST/STM32_USB_Device_Library/Class/CDC/Src/usbd_cdc.c ****   USBD_CDC_Setup,
 146:Middlewares/ST/STM32_USB_Device_Library/Class/CDC/Src/usbd_cdc.c ****   NULL,                 /* EP0_TxSent */
 147:Middlewares/ST/STM32_USB_Device_Library/Class/CDC/Src/usbd_cdc.c ****   USBD_CDC_EP0_RxReady,
 148:Middlewares/ST/STM32_USB_Device_Library/Class/CDC/Src/usbd_cdc.c ****   USBD_CDC_DataIn,
ARM GAS  C:\Users\Godwin\AppData\Local\Temp\ccIOrPOQ.s 			page 5


 149:Middlewares/ST/STM32_USB_Device_Library/Class/CDC/Src/usbd_cdc.c ****   USBD_CDC_DataOut,
 150:Middlewares/ST/STM32_USB_Device_Library/Class/CDC/Src/usbd_cdc.c ****   NULL,
 151:Middlewares/ST/STM32_USB_Device_Library/Class/CDC/Src/usbd_cdc.c ****   NULL,
 152:Middlewares/ST/STM32_USB_Device_Library/Class/CDC/Src/usbd_cdc.c ****   NULL,
 153:Middlewares/ST/STM32_USB_Device_Library/Class/CDC/Src/usbd_cdc.c **** #ifdef USE_USBD_COMPOSITE
 154:Middlewares/ST/STM32_USB_Device_Library/Class/CDC/Src/usbd_cdc.c ****   NULL,
 155:Middlewares/ST/STM32_USB_Device_Library/Class/CDC/Src/usbd_cdc.c ****   NULL,
 156:Middlewares/ST/STM32_USB_Device_Library/Class/CDC/Src/usbd_cdc.c ****   NULL,
 157:Middlewares/ST/STM32_USB_Device_Library/Class/CDC/Src/usbd_cdc.c ****   NULL,
 158:Middlewares/ST/STM32_USB_Device_Library/Class/CDC/Src/usbd_cdc.c **** #else
 159:Middlewares/ST/STM32_USB_Device_Library/Class/CDC/Src/usbd_cdc.c ****   USBD_CDC_GetHSCfgDesc,
 160:Middlewares/ST/STM32_USB_Device_Library/Class/CDC/Src/usbd_cdc.c ****   USBD_CDC_GetFSCfgDesc,
 161:Middlewares/ST/STM32_USB_Device_Library/Class/CDC/Src/usbd_cdc.c ****   USBD_CDC_GetOtherSpeedCfgDesc,
 162:Middlewares/ST/STM32_USB_Device_Library/Class/CDC/Src/usbd_cdc.c ****   USBD_CDC_GetDeviceQualifierDescriptor,
 163:Middlewares/ST/STM32_USB_Device_Library/Class/CDC/Src/usbd_cdc.c **** #endif /* USE_USBD_COMPOSITE  */
 164:Middlewares/ST/STM32_USB_Device_Library/Class/CDC/Src/usbd_cdc.c **** };
 165:Middlewares/ST/STM32_USB_Device_Library/Class/CDC/Src/usbd_cdc.c **** 
 166:Middlewares/ST/STM32_USB_Device_Library/Class/CDC/Src/usbd_cdc.c **** #ifndef USE_USBD_COMPOSITE
 167:Middlewares/ST/STM32_USB_Device_Library/Class/CDC/Src/usbd_cdc.c **** /* USB CDC device Configuration Descriptor */
 168:Middlewares/ST/STM32_USB_Device_Library/Class/CDC/Src/usbd_cdc.c **** __ALIGN_BEGIN static uint8_t USBD_CDC_CfgDesc[USB_CDC_CONFIG_DESC_SIZ] __ALIGN_END =
 169:Middlewares/ST/STM32_USB_Device_Library/Class/CDC/Src/usbd_cdc.c **** {
 170:Middlewares/ST/STM32_USB_Device_Library/Class/CDC/Src/usbd_cdc.c ****   /* Configuration Descriptor */
 171:Middlewares/ST/STM32_USB_Device_Library/Class/CDC/Src/usbd_cdc.c ****   0x09,                                       /* bLength: Configuration Descriptor size */
 172:Middlewares/ST/STM32_USB_Device_Library/Class/CDC/Src/usbd_cdc.c ****   USB_DESC_TYPE_CONFIGURATION,                /* bDescriptorType: Configuration */
 173:Middlewares/ST/STM32_USB_Device_Library/Class/CDC/Src/usbd_cdc.c ****   USB_CDC_CONFIG_DESC_SIZ,                    /* wTotalLength */
 174:Middlewares/ST/STM32_USB_Device_Library/Class/CDC/Src/usbd_cdc.c ****   0x00,
 175:Middlewares/ST/STM32_USB_Device_Library/Class/CDC/Src/usbd_cdc.c ****   0x02,                                       /* bNumInterfaces: 2 interfaces */
 176:Middlewares/ST/STM32_USB_Device_Library/Class/CDC/Src/usbd_cdc.c ****   0x01,                                       /* bConfigurationValue: Configuration value */
 177:Middlewares/ST/STM32_USB_Device_Library/Class/CDC/Src/usbd_cdc.c ****   0x00,                                       /* iConfiguration: Index of string descriptor
 178:Middlewares/ST/STM32_USB_Device_Library/Class/CDC/Src/usbd_cdc.c ****                                                  describing the configuration */
 179:Middlewares/ST/STM32_USB_Device_Library/Class/CDC/Src/usbd_cdc.c **** #if (USBD_SELF_POWERED == 1U)
 180:Middlewares/ST/STM32_USB_Device_Library/Class/CDC/Src/usbd_cdc.c ****   0xC0,                                       /* bmAttributes: Bus Powered according to user config
 181:Middlewares/ST/STM32_USB_Device_Library/Class/CDC/Src/usbd_cdc.c **** #else
 182:Middlewares/ST/STM32_USB_Device_Library/Class/CDC/Src/usbd_cdc.c ****   0x80,                                       /* bmAttributes: Bus Powered according to user config
 183:Middlewares/ST/STM32_USB_Device_Library/Class/CDC/Src/usbd_cdc.c **** #endif /* USBD_SELF_POWERED */
 184:Middlewares/ST/STM32_USB_Device_Library/Class/CDC/Src/usbd_cdc.c ****   USBD_MAX_POWER,                             /* MaxPower (mA) */
 185:Middlewares/ST/STM32_USB_Device_Library/Class/CDC/Src/usbd_cdc.c **** 
 186:Middlewares/ST/STM32_USB_Device_Library/Class/CDC/Src/usbd_cdc.c ****   /*---------------------------------------------------------------------------*/
 187:Middlewares/ST/STM32_USB_Device_Library/Class/CDC/Src/usbd_cdc.c **** 
 188:Middlewares/ST/STM32_USB_Device_Library/Class/CDC/Src/usbd_cdc.c ****   /* Interface Descriptor */
 189:Middlewares/ST/STM32_USB_Device_Library/Class/CDC/Src/usbd_cdc.c ****   0x09,                                       /* bLength: Interface Descriptor size */
 190:Middlewares/ST/STM32_USB_Device_Library/Class/CDC/Src/usbd_cdc.c ****   USB_DESC_TYPE_INTERFACE,                    /* bDescriptorType: Interface */
 191:Middlewares/ST/STM32_USB_Device_Library/Class/CDC/Src/usbd_cdc.c ****   /* Interface descriptor type */
 192:Middlewares/ST/STM32_USB_Device_Library/Class/CDC/Src/usbd_cdc.c ****   0x00,                                       /* bInterfaceNumber: Number of Interface */
 193:Middlewares/ST/STM32_USB_Device_Library/Class/CDC/Src/usbd_cdc.c ****   0x00,                                       /* bAlternateSetting: Alternate setting */
 194:Middlewares/ST/STM32_USB_Device_Library/Class/CDC/Src/usbd_cdc.c ****   0x01,                                       /* bNumEndpoints: One endpoint used */
 195:Middlewares/ST/STM32_USB_Device_Library/Class/CDC/Src/usbd_cdc.c ****   0x02,                                       /* bInterfaceClass: Communication Interface Class */
 196:Middlewares/ST/STM32_USB_Device_Library/Class/CDC/Src/usbd_cdc.c ****   0x02,                                       /* bInterfaceSubClass: Abstract Control Model */
 197:Middlewares/ST/STM32_USB_Device_Library/Class/CDC/Src/usbd_cdc.c ****   0x01,                                       /* bInterfaceProtocol: Common AT commands */
 198:Middlewares/ST/STM32_USB_Device_Library/Class/CDC/Src/usbd_cdc.c ****   0x00,                                       /* iInterface */
 199:Middlewares/ST/STM32_USB_Device_Library/Class/CDC/Src/usbd_cdc.c **** 
 200:Middlewares/ST/STM32_USB_Device_Library/Class/CDC/Src/usbd_cdc.c ****   /* Header Functional Descriptor */
 201:Middlewares/ST/STM32_USB_Device_Library/Class/CDC/Src/usbd_cdc.c ****   0x05,                                       /* bLength: Endpoint Descriptor size */
 202:Middlewares/ST/STM32_USB_Device_Library/Class/CDC/Src/usbd_cdc.c ****   0x24,                                       /* bDescriptorType: CS_INTERFACE */
 203:Middlewares/ST/STM32_USB_Device_Library/Class/CDC/Src/usbd_cdc.c ****   0x00,                                       /* bDescriptorSubtype: Header Func Desc */
 204:Middlewares/ST/STM32_USB_Device_Library/Class/CDC/Src/usbd_cdc.c ****   0x10,                                       /* bcdCDC: spec release number */
 205:Middlewares/ST/STM32_USB_Device_Library/Class/CDC/Src/usbd_cdc.c ****   0x01,
ARM GAS  C:\Users\Godwin\AppData\Local\Temp\ccIOrPOQ.s 			page 6


 206:Middlewares/ST/STM32_USB_Device_Library/Class/CDC/Src/usbd_cdc.c **** 
 207:Middlewares/ST/STM32_USB_Device_Library/Class/CDC/Src/usbd_cdc.c ****   /* Call Management Functional Descriptor */
 208:Middlewares/ST/STM32_USB_Device_Library/Class/CDC/Src/usbd_cdc.c ****   0x05,                                       /* bFunctionLength */
 209:Middlewares/ST/STM32_USB_Device_Library/Class/CDC/Src/usbd_cdc.c ****   0x24,                                       /* bDescriptorType: CS_INTERFACE */
 210:Middlewares/ST/STM32_USB_Device_Library/Class/CDC/Src/usbd_cdc.c ****   0x01,                                       /* bDescriptorSubtype: Call Management Func Desc */
 211:Middlewares/ST/STM32_USB_Device_Library/Class/CDC/Src/usbd_cdc.c ****   0x00,                                       /* bmCapabilities: D0+D1 */
 212:Middlewares/ST/STM32_USB_Device_Library/Class/CDC/Src/usbd_cdc.c ****   0x01,                                       /* bDataInterface */
 213:Middlewares/ST/STM32_USB_Device_Library/Class/CDC/Src/usbd_cdc.c **** 
 214:Middlewares/ST/STM32_USB_Device_Library/Class/CDC/Src/usbd_cdc.c ****   /* ACM Functional Descriptor */
 215:Middlewares/ST/STM32_USB_Device_Library/Class/CDC/Src/usbd_cdc.c ****   0x04,                                       /* bFunctionLength */
 216:Middlewares/ST/STM32_USB_Device_Library/Class/CDC/Src/usbd_cdc.c ****   0x24,                                       /* bDescriptorType: CS_INTERFACE */
 217:Middlewares/ST/STM32_USB_Device_Library/Class/CDC/Src/usbd_cdc.c ****   0x02,                                       /* bDescriptorSubtype: Abstract Control Management de
 218:Middlewares/ST/STM32_USB_Device_Library/Class/CDC/Src/usbd_cdc.c ****   0x02,                                       /* bmCapabilities */
 219:Middlewares/ST/STM32_USB_Device_Library/Class/CDC/Src/usbd_cdc.c **** 
 220:Middlewares/ST/STM32_USB_Device_Library/Class/CDC/Src/usbd_cdc.c ****   /* Union Functional Descriptor */
 221:Middlewares/ST/STM32_USB_Device_Library/Class/CDC/Src/usbd_cdc.c ****   0x05,                                       /* bFunctionLength */
 222:Middlewares/ST/STM32_USB_Device_Library/Class/CDC/Src/usbd_cdc.c ****   0x24,                                       /* bDescriptorType: CS_INTERFACE */
 223:Middlewares/ST/STM32_USB_Device_Library/Class/CDC/Src/usbd_cdc.c ****   0x06,                                       /* bDescriptorSubtype: Union func desc */
 224:Middlewares/ST/STM32_USB_Device_Library/Class/CDC/Src/usbd_cdc.c ****   0x00,                                       /* bMasterInterface: Communication class interface */
 225:Middlewares/ST/STM32_USB_Device_Library/Class/CDC/Src/usbd_cdc.c ****   0x01,                                       /* bSlaveInterface0: Data Class Interface */
 226:Middlewares/ST/STM32_USB_Device_Library/Class/CDC/Src/usbd_cdc.c **** 
 227:Middlewares/ST/STM32_USB_Device_Library/Class/CDC/Src/usbd_cdc.c ****   /* Endpoint 2 Descriptor */
 228:Middlewares/ST/STM32_USB_Device_Library/Class/CDC/Src/usbd_cdc.c ****   0x07,                                       /* bLength: Endpoint Descriptor size */
 229:Middlewares/ST/STM32_USB_Device_Library/Class/CDC/Src/usbd_cdc.c ****   USB_DESC_TYPE_ENDPOINT,                     /* bDescriptorType: Endpoint */
 230:Middlewares/ST/STM32_USB_Device_Library/Class/CDC/Src/usbd_cdc.c ****   CDC_CMD_EP,                                 /* bEndpointAddress */
 231:Middlewares/ST/STM32_USB_Device_Library/Class/CDC/Src/usbd_cdc.c ****   0x03,                                       /* bmAttributes: Interrupt */
 232:Middlewares/ST/STM32_USB_Device_Library/Class/CDC/Src/usbd_cdc.c ****   LOBYTE(CDC_CMD_PACKET_SIZE),                /* wMaxPacketSize */
 233:Middlewares/ST/STM32_USB_Device_Library/Class/CDC/Src/usbd_cdc.c ****   HIBYTE(CDC_CMD_PACKET_SIZE),
 234:Middlewares/ST/STM32_USB_Device_Library/Class/CDC/Src/usbd_cdc.c ****   CDC_FS_BINTERVAL,                           /* bInterval */
 235:Middlewares/ST/STM32_USB_Device_Library/Class/CDC/Src/usbd_cdc.c ****   /*---------------------------------------------------------------------------*/
 236:Middlewares/ST/STM32_USB_Device_Library/Class/CDC/Src/usbd_cdc.c **** 
 237:Middlewares/ST/STM32_USB_Device_Library/Class/CDC/Src/usbd_cdc.c ****   /* Data class interface descriptor */
 238:Middlewares/ST/STM32_USB_Device_Library/Class/CDC/Src/usbd_cdc.c ****   0x09,                                       /* bLength: Endpoint Descriptor size */
 239:Middlewares/ST/STM32_USB_Device_Library/Class/CDC/Src/usbd_cdc.c ****   USB_DESC_TYPE_INTERFACE,                    /* bDescriptorType: */
 240:Middlewares/ST/STM32_USB_Device_Library/Class/CDC/Src/usbd_cdc.c ****   0x01,                                       /* bInterfaceNumber: Number of Interface */
 241:Middlewares/ST/STM32_USB_Device_Library/Class/CDC/Src/usbd_cdc.c ****   0x00,                                       /* bAlternateSetting: Alternate setting */
 242:Middlewares/ST/STM32_USB_Device_Library/Class/CDC/Src/usbd_cdc.c ****   0x02,                                       /* bNumEndpoints: Two endpoints used */
 243:Middlewares/ST/STM32_USB_Device_Library/Class/CDC/Src/usbd_cdc.c ****   0x0A,                                       /* bInterfaceClass: CDC */
 244:Middlewares/ST/STM32_USB_Device_Library/Class/CDC/Src/usbd_cdc.c ****   0x00,                                       /* bInterfaceSubClass */
 245:Middlewares/ST/STM32_USB_Device_Library/Class/CDC/Src/usbd_cdc.c ****   0x00,                                       /* bInterfaceProtocol */
 246:Middlewares/ST/STM32_USB_Device_Library/Class/CDC/Src/usbd_cdc.c ****   0x00,                                       /* iInterface */
 247:Middlewares/ST/STM32_USB_Device_Library/Class/CDC/Src/usbd_cdc.c **** 
 248:Middlewares/ST/STM32_USB_Device_Library/Class/CDC/Src/usbd_cdc.c ****   /* Endpoint OUT Descriptor */
 249:Middlewares/ST/STM32_USB_Device_Library/Class/CDC/Src/usbd_cdc.c ****   0x07,                                       /* bLength: Endpoint Descriptor size */
 250:Middlewares/ST/STM32_USB_Device_Library/Class/CDC/Src/usbd_cdc.c ****   USB_DESC_TYPE_ENDPOINT,                     /* bDescriptorType: Endpoint */
 251:Middlewares/ST/STM32_USB_Device_Library/Class/CDC/Src/usbd_cdc.c ****   CDC_OUT_EP,                                 /* bEndpointAddress */
 252:Middlewares/ST/STM32_USB_Device_Library/Class/CDC/Src/usbd_cdc.c ****   0x02,                                       /* bmAttributes: Bulk */
 253:Middlewares/ST/STM32_USB_Device_Library/Class/CDC/Src/usbd_cdc.c ****   LOBYTE(CDC_DATA_FS_MAX_PACKET_SIZE),        /* wMaxPacketSize */
 254:Middlewares/ST/STM32_USB_Device_Library/Class/CDC/Src/usbd_cdc.c ****   HIBYTE(CDC_DATA_FS_MAX_PACKET_SIZE),
 255:Middlewares/ST/STM32_USB_Device_Library/Class/CDC/Src/usbd_cdc.c ****   0x00,                                       /* bInterval */
 256:Middlewares/ST/STM32_USB_Device_Library/Class/CDC/Src/usbd_cdc.c **** 
 257:Middlewares/ST/STM32_USB_Device_Library/Class/CDC/Src/usbd_cdc.c ****   /* Endpoint IN Descriptor */
 258:Middlewares/ST/STM32_USB_Device_Library/Class/CDC/Src/usbd_cdc.c ****   0x07,                                       /* bLength: Endpoint Descriptor size */
 259:Middlewares/ST/STM32_USB_Device_Library/Class/CDC/Src/usbd_cdc.c ****   USB_DESC_TYPE_ENDPOINT,                     /* bDescriptorType: Endpoint */
 260:Middlewares/ST/STM32_USB_Device_Library/Class/CDC/Src/usbd_cdc.c ****   CDC_IN_EP,                                  /* bEndpointAddress */
 261:Middlewares/ST/STM32_USB_Device_Library/Class/CDC/Src/usbd_cdc.c ****   0x02,                                       /* bmAttributes: Bulk */
 262:Middlewares/ST/STM32_USB_Device_Library/Class/CDC/Src/usbd_cdc.c ****   LOBYTE(CDC_DATA_FS_MAX_PACKET_SIZE),        /* wMaxPacketSize */
ARM GAS  C:\Users\Godwin\AppData\Local\Temp\ccIOrPOQ.s 			page 7


 263:Middlewares/ST/STM32_USB_Device_Library/Class/CDC/Src/usbd_cdc.c ****   HIBYTE(CDC_DATA_FS_MAX_PACKET_SIZE),
 264:Middlewares/ST/STM32_USB_Device_Library/Class/CDC/Src/usbd_cdc.c ****   0x00                                        /* bInterval */
 265:Middlewares/ST/STM32_USB_Device_Library/Class/CDC/Src/usbd_cdc.c **** };
 266:Middlewares/ST/STM32_USB_Device_Library/Class/CDC/Src/usbd_cdc.c **** #endif /* USE_USBD_COMPOSITE  */
 267:Middlewares/ST/STM32_USB_Device_Library/Class/CDC/Src/usbd_cdc.c **** 
 268:Middlewares/ST/STM32_USB_Device_Library/Class/CDC/Src/usbd_cdc.c **** static uint8_t CDCInEpAdd = CDC_IN_EP;
 269:Middlewares/ST/STM32_USB_Device_Library/Class/CDC/Src/usbd_cdc.c **** static uint8_t CDCOutEpAdd = CDC_OUT_EP;
 270:Middlewares/ST/STM32_USB_Device_Library/Class/CDC/Src/usbd_cdc.c **** static uint8_t CDCCmdEpAdd = CDC_CMD_EP;
 271:Middlewares/ST/STM32_USB_Device_Library/Class/CDC/Src/usbd_cdc.c **** 
 272:Middlewares/ST/STM32_USB_Device_Library/Class/CDC/Src/usbd_cdc.c **** /**
 273:Middlewares/ST/STM32_USB_Device_Library/Class/CDC/Src/usbd_cdc.c ****   * @}
 274:Middlewares/ST/STM32_USB_Device_Library/Class/CDC/Src/usbd_cdc.c ****   */
 275:Middlewares/ST/STM32_USB_Device_Library/Class/CDC/Src/usbd_cdc.c **** 
 276:Middlewares/ST/STM32_USB_Device_Library/Class/CDC/Src/usbd_cdc.c **** /** @defgroup USBD_CDC_Private_Functions
 277:Middlewares/ST/STM32_USB_Device_Library/Class/CDC/Src/usbd_cdc.c ****   * @{
 278:Middlewares/ST/STM32_USB_Device_Library/Class/CDC/Src/usbd_cdc.c ****   */
 279:Middlewares/ST/STM32_USB_Device_Library/Class/CDC/Src/usbd_cdc.c **** 
 280:Middlewares/ST/STM32_USB_Device_Library/Class/CDC/Src/usbd_cdc.c **** /**
 281:Middlewares/ST/STM32_USB_Device_Library/Class/CDC/Src/usbd_cdc.c ****   * @brief  USBD_CDC_Init
 282:Middlewares/ST/STM32_USB_Device_Library/Class/CDC/Src/usbd_cdc.c ****   *         Initialize the CDC interface
 283:Middlewares/ST/STM32_USB_Device_Library/Class/CDC/Src/usbd_cdc.c ****   * @param  pdev: device instance
 284:Middlewares/ST/STM32_USB_Device_Library/Class/CDC/Src/usbd_cdc.c ****   * @param  cfgidx: Configuration index
 285:Middlewares/ST/STM32_USB_Device_Library/Class/CDC/Src/usbd_cdc.c ****   * @retval status
 286:Middlewares/ST/STM32_USB_Device_Library/Class/CDC/Src/usbd_cdc.c ****   */
 287:Middlewares/ST/STM32_USB_Device_Library/Class/CDC/Src/usbd_cdc.c **** static uint8_t USBD_CDC_Init(USBD_HandleTypeDef *pdev, uint8_t cfgidx)
 288:Middlewares/ST/STM32_USB_Device_Library/Class/CDC/Src/usbd_cdc.c **** {
  78              		.loc 1 288 1
  79              		.cfi_startproc
  80              		@ args = 0, pretend = 0, frame = 16
  81              		@ frame_needed = 1, uses_anonymous_args = 0
  82 0000 80B5     		push	{r7, lr}
  83              	.LCFI0:
  84              		.cfi_def_cfa_offset 8
  85              		.cfi_offset 7, -8
  86              		.cfi_offset 14, -4
  87 0002 84B0     		sub	sp, sp, #16
  88              	.LCFI1:
  89              		.cfi_def_cfa_offset 24
  90 0004 00AF     		add	r7, sp, #0
  91              	.LCFI2:
  92              		.cfi_def_cfa_register 7
  93 0006 7860     		str	r0, [r7, #4]
  94 0008 0B46     		mov	r3, r1
  95 000a FB70     		strb	r3, [r7, #3]
 289:Middlewares/ST/STM32_USB_Device_Library/Class/CDC/Src/usbd_cdc.c ****   UNUSED(cfgidx);
 290:Middlewares/ST/STM32_USB_Device_Library/Class/CDC/Src/usbd_cdc.c ****   USBD_CDC_HandleTypeDef *hcdc;
 291:Middlewares/ST/STM32_USB_Device_Library/Class/CDC/Src/usbd_cdc.c **** 
 292:Middlewares/ST/STM32_USB_Device_Library/Class/CDC/Src/usbd_cdc.c ****   hcdc = (USBD_CDC_HandleTypeDef *)USBD_malloc(sizeof(USBD_CDC_HandleTypeDef));
  96              		.loc 1 292 36
  97 000c 4FF40770 		mov	r0, #540
  98 0010 FFF7FEFF 		bl	USBD_static_malloc
  99 0014 F860     		str	r0, [r7, #12]
 293:Middlewares/ST/STM32_USB_Device_Library/Class/CDC/Src/usbd_cdc.c **** 
 294:Middlewares/ST/STM32_USB_Device_Library/Class/CDC/Src/usbd_cdc.c ****   if (hcdc == NULL)
 100              		.loc 1 294 6
 101 0016 FB68     		ldr	r3, [r7, #12]
 102 0018 002B     		cmp	r3, #0
ARM GAS  C:\Users\Godwin\AppData\Local\Temp\ccIOrPOQ.s 			page 8


 103 001a 09D1     		bne	.L2
 295:Middlewares/ST/STM32_USB_Device_Library/Class/CDC/Src/usbd_cdc.c ****   {
 296:Middlewares/ST/STM32_USB_Device_Library/Class/CDC/Src/usbd_cdc.c ****     pdev->pClassDataCmsit[pdev->classId] = NULL;
 104              		.loc 1 296 31
 105 001c 7B68     		ldr	r3, [r7, #4]
 106 001e D3F8D422 		ldr	r2, [r3, #724]
 107              		.loc 1 296 42
 108 0022 7B68     		ldr	r3, [r7, #4]
 109 0024 B032     		adds	r2, r2, #176
 110 0026 0021     		movs	r1, #0
 111 0028 43F82210 		str	r1, [r3, r2, lsl #2]
 297:Middlewares/ST/STM32_USB_Device_Library/Class/CDC/Src/usbd_cdc.c ****     return (uint8_t)USBD_EMEM;
 112              		.loc 1 297 12
 113 002c 0223     		movs	r3, #2
 114 002e D4E0     		b	.L3
 115              	.L2:
 298:Middlewares/ST/STM32_USB_Device_Library/Class/CDC/Src/usbd_cdc.c ****   }
 299:Middlewares/ST/STM32_USB_Device_Library/Class/CDC/Src/usbd_cdc.c **** 
 300:Middlewares/ST/STM32_USB_Device_Library/Class/CDC/Src/usbd_cdc.c ****   (void)USBD_memset(hcdc, 0, sizeof(USBD_CDC_HandleTypeDef));
 116              		.loc 1 300 9
 117 0030 4FF40772 		mov	r2, #540
 118 0034 0021     		movs	r1, #0
 119 0036 F868     		ldr	r0, [r7, #12]
 120 0038 FFF7FEFF 		bl	memset
 301:Middlewares/ST/STM32_USB_Device_Library/Class/CDC/Src/usbd_cdc.c **** 
 302:Middlewares/ST/STM32_USB_Device_Library/Class/CDC/Src/usbd_cdc.c ****   pdev->pClassDataCmsit[pdev->classId] = (void *)hcdc;
 121              		.loc 1 302 29
 122 003c 7B68     		ldr	r3, [r7, #4]
 123 003e D3F8D422 		ldr	r2, [r3, #724]
 124              		.loc 1 302 40
 125 0042 7B68     		ldr	r3, [r7, #4]
 126 0044 B032     		adds	r2, r2, #176
 127 0046 F968     		ldr	r1, [r7, #12]
 128 0048 43F82210 		str	r1, [r3, r2, lsl #2]
 303:Middlewares/ST/STM32_USB_Device_Library/Class/CDC/Src/usbd_cdc.c ****   pdev->pClassData = pdev->pClassDataCmsit[pdev->classId];
 129              		.loc 1 303 48
 130 004c 7B68     		ldr	r3, [r7, #4]
 131 004e D3F8D422 		ldr	r2, [r3, #724]
 132              		.loc 1 303 43
 133 0052 7B68     		ldr	r3, [r7, #4]
 134 0054 B032     		adds	r2, r2, #176
 135 0056 53F82220 		ldr	r2, [r3, r2, lsl #2]
 136              		.loc 1 303 20
 137 005a 7B68     		ldr	r3, [r7, #4]
 138 005c C3F8BC22 		str	r2, [r3, #700]
 304:Middlewares/ST/STM32_USB_Device_Library/Class/CDC/Src/usbd_cdc.c **** 
 305:Middlewares/ST/STM32_USB_Device_Library/Class/CDC/Src/usbd_cdc.c **** #ifdef USE_USBD_COMPOSITE
 306:Middlewares/ST/STM32_USB_Device_Library/Class/CDC/Src/usbd_cdc.c ****   /* Get the Endpoints addresses allocated for this class instance */
 307:Middlewares/ST/STM32_USB_Device_Library/Class/CDC/Src/usbd_cdc.c ****   CDCInEpAdd  = USBD_CoreGetEPAdd(pdev, USBD_EP_IN, USBD_EP_TYPE_BULK, (uint8_t)pdev->classId);
 308:Middlewares/ST/STM32_USB_Device_Library/Class/CDC/Src/usbd_cdc.c ****   CDCOutEpAdd = USBD_CoreGetEPAdd(pdev, USBD_EP_OUT, USBD_EP_TYPE_BULK, (uint8_t)pdev->classId);
 309:Middlewares/ST/STM32_USB_Device_Library/Class/CDC/Src/usbd_cdc.c ****   CDCCmdEpAdd = USBD_CoreGetEPAdd(pdev, USBD_EP_IN, USBD_EP_TYPE_INTR, (uint8_t)pdev->classId);
 310:Middlewares/ST/STM32_USB_Device_Library/Class/CDC/Src/usbd_cdc.c **** #endif /* USE_USBD_COMPOSITE */
 311:Middlewares/ST/STM32_USB_Device_Library/Class/CDC/Src/usbd_cdc.c **** 
 312:Middlewares/ST/STM32_USB_Device_Library/Class/CDC/Src/usbd_cdc.c ****   if (pdev->dev_speed == USBD_SPEED_HIGH)
 139              		.loc 1 312 11
 140 0060 7B68     		ldr	r3, [r7, #4]
 141 0062 1B7C     		ldrb	r3, [r3, #16]	@ zero_extendqisi2
ARM GAS  C:\Users\Godwin\AppData\Local\Temp\ccIOrPOQ.s 			page 9


 142              		.loc 1 312 6
 143 0064 002B     		cmp	r3, #0
 144 0066 38D1     		bne	.L4
 313:Middlewares/ST/STM32_USB_Device_Library/Class/CDC/Src/usbd_cdc.c ****   {
 314:Middlewares/ST/STM32_USB_Device_Library/Class/CDC/Src/usbd_cdc.c ****     /* Open EP IN */
 315:Middlewares/ST/STM32_USB_Device_Library/Class/CDC/Src/usbd_cdc.c ****     (void)USBD_LL_OpenEP(pdev, CDCInEpAdd, USBD_EP_TYPE_BULK,
 145              		.loc 1 315 5
 146 0068 5E4B     		ldr	r3, .L9
 147 006a 1978     		ldrb	r1, [r3]	@ zero_extendqisi2
 148              		.loc 1 315 11
 149 006c 4FF40073 		mov	r3, #512
 150 0070 0222     		movs	r2, #2
 151 0072 7868     		ldr	r0, [r7, #4]
 152 0074 FFF7FEFF 		bl	USBD_LL_OpenEP
 316:Middlewares/ST/STM32_USB_Device_Library/Class/CDC/Src/usbd_cdc.c ****                          CDC_DATA_HS_IN_PACKET_SIZE);
 317:Middlewares/ST/STM32_USB_Device_Library/Class/CDC/Src/usbd_cdc.c **** 
 318:Middlewares/ST/STM32_USB_Device_Library/Class/CDC/Src/usbd_cdc.c ****     pdev->ep_in[CDCInEpAdd & 0xFU].is_used = 1U;
 153              		.loc 1 318 28
 154 0078 5A4B     		ldr	r3, .L9
 155 007a 1B78     		ldrb	r3, [r3]	@ zero_extendqisi2
 156 007c 03F00F02 		and	r2, r3, #15
 157              		.loc 1 318 44
 158 0080 7968     		ldr	r1, [r7, #4]
 159 0082 1346     		mov	r3, r2
 160 0084 9B00     		lsls	r3, r3, #2
 161 0086 1344     		add	r3, r3, r2
 162 0088 9B00     		lsls	r3, r3, #2
 163 008a 0B44     		add	r3, r3, r1
 164 008c 2433     		adds	r3, r3, #36
 165 008e 0122     		movs	r2, #1
 166 0090 1A80     		strh	r2, [r3]	@ movhi
 319:Middlewares/ST/STM32_USB_Device_Library/Class/CDC/Src/usbd_cdc.c **** 
 320:Middlewares/ST/STM32_USB_Device_Library/Class/CDC/Src/usbd_cdc.c ****     /* Open EP OUT */
 321:Middlewares/ST/STM32_USB_Device_Library/Class/CDC/Src/usbd_cdc.c ****     (void)USBD_LL_OpenEP(pdev, CDCOutEpAdd, USBD_EP_TYPE_BULK,
 167              		.loc 1 321 5
 168 0092 554B     		ldr	r3, .L9+4
 169 0094 1978     		ldrb	r1, [r3]	@ zero_extendqisi2
 170              		.loc 1 321 11
 171 0096 4FF40073 		mov	r3, #512
 172 009a 0222     		movs	r2, #2
 173 009c 7868     		ldr	r0, [r7, #4]
 174 009e FFF7FEFF 		bl	USBD_LL_OpenEP
 322:Middlewares/ST/STM32_USB_Device_Library/Class/CDC/Src/usbd_cdc.c ****                          CDC_DATA_HS_OUT_PACKET_SIZE);
 323:Middlewares/ST/STM32_USB_Device_Library/Class/CDC/Src/usbd_cdc.c **** 
 324:Middlewares/ST/STM32_USB_Device_Library/Class/CDC/Src/usbd_cdc.c ****     pdev->ep_out[CDCOutEpAdd & 0xFU].is_used = 1U;
 175              		.loc 1 324 30
 176 00a2 514B     		ldr	r3, .L9+4
 177 00a4 1B78     		ldrb	r3, [r3]	@ zero_extendqisi2
 178 00a6 03F00F02 		and	r2, r3, #15
 179              		.loc 1 324 46
 180 00aa 7968     		ldr	r1, [r7, #4]
 181 00ac 1346     		mov	r3, r2
 182 00ae 9B00     		lsls	r3, r3, #2
 183 00b0 1344     		add	r3, r3, r2
 184 00b2 9B00     		lsls	r3, r3, #2
 185 00b4 0B44     		add	r3, r3, r1
 186 00b6 03F5B273 		add	r3, r3, #356
ARM GAS  C:\Users\Godwin\AppData\Local\Temp\ccIOrPOQ.s 			page 10


 187 00ba 0122     		movs	r2, #1
 188 00bc 1A80     		strh	r2, [r3]	@ movhi
 325:Middlewares/ST/STM32_USB_Device_Library/Class/CDC/Src/usbd_cdc.c **** 
 326:Middlewares/ST/STM32_USB_Device_Library/Class/CDC/Src/usbd_cdc.c ****     /* Set bInterval for CDC CMD Endpoint */
 327:Middlewares/ST/STM32_USB_Device_Library/Class/CDC/Src/usbd_cdc.c ****     pdev->ep_in[CDCCmdEpAdd & 0xFU].bInterval = CDC_HS_BINTERVAL;
 189              		.loc 1 327 29
 190 00be 4B4B     		ldr	r3, .L9+8
 191 00c0 1B78     		ldrb	r3, [r3]	@ zero_extendqisi2
 192 00c2 03F00F02 		and	r2, r3, #15
 193              		.loc 1 327 47
 194 00c6 7968     		ldr	r1, [r7, #4]
 195 00c8 1346     		mov	r3, r2
 196 00ca 9B00     		lsls	r3, r3, #2
 197 00cc 1344     		add	r3, r3, r2
 198 00ce 9B00     		lsls	r3, r3, #2
 199 00d0 0B44     		add	r3, r3, r1
 200 00d2 2633     		adds	r3, r3, #38
 201 00d4 1022     		movs	r2, #16
 202 00d6 1A80     		strh	r2, [r3]	@ movhi
 203 00d8 35E0     		b	.L5
 204              	.L4:
 328:Middlewares/ST/STM32_USB_Device_Library/Class/CDC/Src/usbd_cdc.c ****   }
 329:Middlewares/ST/STM32_USB_Device_Library/Class/CDC/Src/usbd_cdc.c ****   else
 330:Middlewares/ST/STM32_USB_Device_Library/Class/CDC/Src/usbd_cdc.c ****   {
 331:Middlewares/ST/STM32_USB_Device_Library/Class/CDC/Src/usbd_cdc.c ****     /* Open EP IN */
 332:Middlewares/ST/STM32_USB_Device_Library/Class/CDC/Src/usbd_cdc.c ****     (void)USBD_LL_OpenEP(pdev, CDCInEpAdd, USBD_EP_TYPE_BULK,
 205              		.loc 1 332 5
 206 00da 424B     		ldr	r3, .L9
 207 00dc 1978     		ldrb	r1, [r3]	@ zero_extendqisi2
 208              		.loc 1 332 11
 209 00de 4023     		movs	r3, #64
 210 00e0 0222     		movs	r2, #2
 211 00e2 7868     		ldr	r0, [r7, #4]
 212 00e4 FFF7FEFF 		bl	USBD_LL_OpenEP
 333:Middlewares/ST/STM32_USB_Device_Library/Class/CDC/Src/usbd_cdc.c ****                          CDC_DATA_FS_IN_PACKET_SIZE);
 334:Middlewares/ST/STM32_USB_Device_Library/Class/CDC/Src/usbd_cdc.c **** 
 335:Middlewares/ST/STM32_USB_Device_Library/Class/CDC/Src/usbd_cdc.c ****     pdev->ep_in[CDCInEpAdd & 0xFU].is_used = 1U;
 213              		.loc 1 335 28
 214 00e8 3E4B     		ldr	r3, .L9
 215 00ea 1B78     		ldrb	r3, [r3]	@ zero_extendqisi2
 216 00ec 03F00F02 		and	r2, r3, #15
 217              		.loc 1 335 44
 218 00f0 7968     		ldr	r1, [r7, #4]
 219 00f2 1346     		mov	r3, r2
 220 00f4 9B00     		lsls	r3, r3, #2
 221 00f6 1344     		add	r3, r3, r2
 222 00f8 9B00     		lsls	r3, r3, #2
 223 00fa 0B44     		add	r3, r3, r1
 224 00fc 2433     		adds	r3, r3, #36
 225 00fe 0122     		movs	r2, #1
 226 0100 1A80     		strh	r2, [r3]	@ movhi
 336:Middlewares/ST/STM32_USB_Device_Library/Class/CDC/Src/usbd_cdc.c **** 
 337:Middlewares/ST/STM32_USB_Device_Library/Class/CDC/Src/usbd_cdc.c ****     /* Open EP OUT */
 338:Middlewares/ST/STM32_USB_Device_Library/Class/CDC/Src/usbd_cdc.c ****     (void)USBD_LL_OpenEP(pdev, CDCOutEpAdd, USBD_EP_TYPE_BULK,
 227              		.loc 1 338 5
 228 0102 394B     		ldr	r3, .L9+4
 229 0104 1978     		ldrb	r1, [r3]	@ zero_extendqisi2
ARM GAS  C:\Users\Godwin\AppData\Local\Temp\ccIOrPOQ.s 			page 11


 230              		.loc 1 338 11
 231 0106 4023     		movs	r3, #64
 232 0108 0222     		movs	r2, #2
 233 010a 7868     		ldr	r0, [r7, #4]
 234 010c FFF7FEFF 		bl	USBD_LL_OpenEP
 339:Middlewares/ST/STM32_USB_Device_Library/Class/CDC/Src/usbd_cdc.c ****                          CDC_DATA_FS_OUT_PACKET_SIZE);
 340:Middlewares/ST/STM32_USB_Device_Library/Class/CDC/Src/usbd_cdc.c **** 
 341:Middlewares/ST/STM32_USB_Device_Library/Class/CDC/Src/usbd_cdc.c ****     pdev->ep_out[CDCOutEpAdd & 0xFU].is_used = 1U;
 235              		.loc 1 341 30
 236 0110 354B     		ldr	r3, .L9+4
 237 0112 1B78     		ldrb	r3, [r3]	@ zero_extendqisi2
 238 0114 03F00F02 		and	r2, r3, #15
 239              		.loc 1 341 46
 240 0118 7968     		ldr	r1, [r7, #4]
 241 011a 1346     		mov	r3, r2
 242 011c 9B00     		lsls	r3, r3, #2
 243 011e 1344     		add	r3, r3, r2
 244 0120 9B00     		lsls	r3, r3, #2
 245 0122 0B44     		add	r3, r3, r1
 246 0124 03F5B273 		add	r3, r3, #356
 247 0128 0122     		movs	r2, #1
 248 012a 1A80     		strh	r2, [r3]	@ movhi
 342:Middlewares/ST/STM32_USB_Device_Library/Class/CDC/Src/usbd_cdc.c **** 
 343:Middlewares/ST/STM32_USB_Device_Library/Class/CDC/Src/usbd_cdc.c ****     /* Set bInterval for CMD Endpoint */
 344:Middlewares/ST/STM32_USB_Device_Library/Class/CDC/Src/usbd_cdc.c ****     pdev->ep_in[CDCCmdEpAdd & 0xFU].bInterval = CDC_FS_BINTERVAL;
 249              		.loc 1 344 29
 250 012c 2F4B     		ldr	r3, .L9+8
 251 012e 1B78     		ldrb	r3, [r3]	@ zero_extendqisi2
 252 0130 03F00F02 		and	r2, r3, #15
 253              		.loc 1 344 47
 254 0134 7968     		ldr	r1, [r7, #4]
 255 0136 1346     		mov	r3, r2
 256 0138 9B00     		lsls	r3, r3, #2
 257 013a 1344     		add	r3, r3, r2
 258 013c 9B00     		lsls	r3, r3, #2
 259 013e 0B44     		add	r3, r3, r1
 260 0140 2633     		adds	r3, r3, #38
 261 0142 1022     		movs	r2, #16
 262 0144 1A80     		strh	r2, [r3]	@ movhi
 263              	.L5:
 345:Middlewares/ST/STM32_USB_Device_Library/Class/CDC/Src/usbd_cdc.c ****   }
 346:Middlewares/ST/STM32_USB_Device_Library/Class/CDC/Src/usbd_cdc.c **** 
 347:Middlewares/ST/STM32_USB_Device_Library/Class/CDC/Src/usbd_cdc.c ****   /* Open Command IN EP */
 348:Middlewares/ST/STM32_USB_Device_Library/Class/CDC/Src/usbd_cdc.c ****   (void)USBD_LL_OpenEP(pdev, CDCCmdEpAdd, USBD_EP_TYPE_INTR, CDC_CMD_PACKET_SIZE);
 264              		.loc 1 348 3
 265 0146 294B     		ldr	r3, .L9+8
 266 0148 1978     		ldrb	r1, [r3]	@ zero_extendqisi2
 267              		.loc 1 348 9
 268 014a 0823     		movs	r3, #8
 269 014c 0322     		movs	r2, #3
 270 014e 7868     		ldr	r0, [r7, #4]
 271 0150 FFF7FEFF 		bl	USBD_LL_OpenEP
 349:Middlewares/ST/STM32_USB_Device_Library/Class/CDC/Src/usbd_cdc.c ****   pdev->ep_in[CDCCmdEpAdd & 0xFU].is_used = 1U;
 272              		.loc 1 349 27
 273 0154 254B     		ldr	r3, .L9+8
 274 0156 1B78     		ldrb	r3, [r3]	@ zero_extendqisi2
 275 0158 03F00F02 		and	r2, r3, #15
ARM GAS  C:\Users\Godwin\AppData\Local\Temp\ccIOrPOQ.s 			page 12


 276              		.loc 1 349 43
 277 015c 7968     		ldr	r1, [r7, #4]
 278 015e 1346     		mov	r3, r2
 279 0160 9B00     		lsls	r3, r3, #2
 280 0162 1344     		add	r3, r3, r2
 281 0164 9B00     		lsls	r3, r3, #2
 282 0166 0B44     		add	r3, r3, r1
 283 0168 2433     		adds	r3, r3, #36
 284 016a 0122     		movs	r2, #1
 285 016c 1A80     		strh	r2, [r3]	@ movhi
 350:Middlewares/ST/STM32_USB_Device_Library/Class/CDC/Src/usbd_cdc.c **** 
 351:Middlewares/ST/STM32_USB_Device_Library/Class/CDC/Src/usbd_cdc.c ****   hcdc->RxBuffer = NULL;
 286              		.loc 1 351 18
 287 016e FB68     		ldr	r3, [r7, #12]
 288 0170 0022     		movs	r2, #0
 289 0172 C3F80422 		str	r2, [r3, #516]
 352:Middlewares/ST/STM32_USB_Device_Library/Class/CDC/Src/usbd_cdc.c **** 
 353:Middlewares/ST/STM32_USB_Device_Library/Class/CDC/Src/usbd_cdc.c ****   /* Init  physical Interface components */
 354:Middlewares/ST/STM32_USB_Device_Library/Class/CDC/Src/usbd_cdc.c ****   ((USBD_CDC_ItfTypeDef *)pdev->pUserData[pdev->classId])->Init();
 290              		.loc 1 354 47
 291 0176 7B68     		ldr	r3, [r7, #4]
 292 0178 D3F8D432 		ldr	r3, [r3, #724]
 293              		.loc 1 354 42
 294 017c 7A68     		ldr	r2, [r7, #4]
 295 017e B033     		adds	r3, r3, #176
 296 0180 9B00     		lsls	r3, r3, #2
 297 0182 1344     		add	r3, r3, r2
 298 0184 5B68     		ldr	r3, [r3, #4]
 299              		.loc 1 354 58
 300 0186 1B68     		ldr	r3, [r3]
 301              		.loc 1 354 4
 302 0188 9847     		blx	r3
 303              	.LVL0:
 355:Middlewares/ST/STM32_USB_Device_Library/Class/CDC/Src/usbd_cdc.c **** 
 356:Middlewares/ST/STM32_USB_Device_Library/Class/CDC/Src/usbd_cdc.c ****   /* Init Xfer states */
 357:Middlewares/ST/STM32_USB_Device_Library/Class/CDC/Src/usbd_cdc.c ****   hcdc->TxState = 0U;
 304              		.loc 1 357 17
 305 018a FB68     		ldr	r3, [r7, #12]
 306 018c 0022     		movs	r2, #0
 307 018e C3F81422 		str	r2, [r3, #532]
 358:Middlewares/ST/STM32_USB_Device_Library/Class/CDC/Src/usbd_cdc.c ****   hcdc->RxState = 0U;
 308              		.loc 1 358 17
 309 0192 FB68     		ldr	r3, [r7, #12]
 310 0194 0022     		movs	r2, #0
 311 0196 C3F81822 		str	r2, [r3, #536]
 359:Middlewares/ST/STM32_USB_Device_Library/Class/CDC/Src/usbd_cdc.c **** 
 360:Middlewares/ST/STM32_USB_Device_Library/Class/CDC/Src/usbd_cdc.c ****   if (hcdc->RxBuffer == NULL)
 312              		.loc 1 360 11
 313 019a FB68     		ldr	r3, [r7, #12]
 314 019c D3F80432 		ldr	r3, [r3, #516]
 315              		.loc 1 360 6
 316 01a0 002B     		cmp	r3, #0
 317 01a2 01D1     		bne	.L6
 361:Middlewares/ST/STM32_USB_Device_Library/Class/CDC/Src/usbd_cdc.c ****   {
 362:Middlewares/ST/STM32_USB_Device_Library/Class/CDC/Src/usbd_cdc.c ****     return (uint8_t)USBD_EMEM;
 318              		.loc 1 362 12
 319 01a4 0223     		movs	r3, #2
ARM GAS  C:\Users\Godwin\AppData\Local\Temp\ccIOrPOQ.s 			page 13


 320 01a6 18E0     		b	.L3
 321              	.L6:
 363:Middlewares/ST/STM32_USB_Device_Library/Class/CDC/Src/usbd_cdc.c ****   }
 364:Middlewares/ST/STM32_USB_Device_Library/Class/CDC/Src/usbd_cdc.c **** 
 365:Middlewares/ST/STM32_USB_Device_Library/Class/CDC/Src/usbd_cdc.c ****   if (pdev->dev_speed == USBD_SPEED_HIGH)
 322              		.loc 1 365 11
 323 01a8 7B68     		ldr	r3, [r7, #4]
 324 01aa 1B7C     		ldrb	r3, [r3, #16]	@ zero_extendqisi2
 325              		.loc 1 365 6
 326 01ac 002B     		cmp	r3, #0
 327 01ae 0AD1     		bne	.L7
 366:Middlewares/ST/STM32_USB_Device_Library/Class/CDC/Src/usbd_cdc.c ****   {
 367:Middlewares/ST/STM32_USB_Device_Library/Class/CDC/Src/usbd_cdc.c ****     /* Prepare Out endpoint to receive next packet */
 368:Middlewares/ST/STM32_USB_Device_Library/Class/CDC/Src/usbd_cdc.c ****     (void)USBD_LL_PrepareReceive(pdev, CDCOutEpAdd, hcdc->RxBuffer,
 328              		.loc 1 368 5
 329 01b0 0D4B     		ldr	r3, .L9+4
 330 01b2 1978     		ldrb	r1, [r3]	@ zero_extendqisi2
 331              		.loc 1 368 11
 332 01b4 FB68     		ldr	r3, [r7, #12]
 333 01b6 D3F80422 		ldr	r2, [r3, #516]
 334 01ba 4FF40073 		mov	r3, #512
 335 01be 7868     		ldr	r0, [r7, #4]
 336 01c0 FFF7FEFF 		bl	USBD_LL_PrepareReceive
 337 01c4 08E0     		b	.L8
 338              	.L7:
 369:Middlewares/ST/STM32_USB_Device_Library/Class/CDC/Src/usbd_cdc.c ****                                  CDC_DATA_HS_OUT_PACKET_SIZE);
 370:Middlewares/ST/STM32_USB_Device_Library/Class/CDC/Src/usbd_cdc.c ****   }
 371:Middlewares/ST/STM32_USB_Device_Library/Class/CDC/Src/usbd_cdc.c ****   else
 372:Middlewares/ST/STM32_USB_Device_Library/Class/CDC/Src/usbd_cdc.c ****   {
 373:Middlewares/ST/STM32_USB_Device_Library/Class/CDC/Src/usbd_cdc.c ****     /* Prepare Out endpoint to receive next packet */
 374:Middlewares/ST/STM32_USB_Device_Library/Class/CDC/Src/usbd_cdc.c ****     (void)USBD_LL_PrepareReceive(pdev, CDCOutEpAdd, hcdc->RxBuffer,
 339              		.loc 1 374 5
 340 01c6 084B     		ldr	r3, .L9+4
 341 01c8 1978     		ldrb	r1, [r3]	@ zero_extendqisi2
 342              		.loc 1 374 11
 343 01ca FB68     		ldr	r3, [r7, #12]
 344 01cc D3F80422 		ldr	r2, [r3, #516]
 345 01d0 4023     		movs	r3, #64
 346 01d2 7868     		ldr	r0, [r7, #4]
 347 01d4 FFF7FEFF 		bl	USBD_LL_PrepareReceive
 348              	.L8:
 375:Middlewares/ST/STM32_USB_Device_Library/Class/CDC/Src/usbd_cdc.c ****                                  CDC_DATA_FS_OUT_PACKET_SIZE);
 376:Middlewares/ST/STM32_USB_Device_Library/Class/CDC/Src/usbd_cdc.c ****   }
 377:Middlewares/ST/STM32_USB_Device_Library/Class/CDC/Src/usbd_cdc.c **** 
 378:Middlewares/ST/STM32_USB_Device_Library/Class/CDC/Src/usbd_cdc.c ****   return (uint8_t)USBD_OK;
 349              		.loc 1 378 10
 350 01d8 0023     		movs	r3, #0
 351              	.L3:
 379:Middlewares/ST/STM32_USB_Device_Library/Class/CDC/Src/usbd_cdc.c **** }
 352              		.loc 1 379 1
 353 01da 1846     		mov	r0, r3
 354 01dc 1037     		adds	r7, r7, #16
 355              	.LCFI3:
 356              		.cfi_def_cfa_offset 8
 357 01de BD46     		mov	sp, r7
 358              	.LCFI4:
 359              		.cfi_def_cfa_register 13
ARM GAS  C:\Users\Godwin\AppData\Local\Temp\ccIOrPOQ.s 			page 14


 360              		@ sp needed
 361 01e0 80BD     		pop	{r7, pc}
 362              	.L10:
 363 01e2 00BF     		.align	2
 364              	.L9:
 365 01e4 00000000 		.word	CDCInEpAdd
 366 01e8 00000000 		.word	CDCOutEpAdd
 367 01ec 00000000 		.word	CDCCmdEpAdd
 368              		.cfi_endproc
 369              	.LFE148:
 371              		.section	.text.USBD_CDC_DeInit,"ax",%progbits
 372              		.align	1
 373              		.syntax unified
 374              		.thumb
 375              		.thumb_func
 377              	USBD_CDC_DeInit:
 378              	.LFB149:
 380:Middlewares/ST/STM32_USB_Device_Library/Class/CDC/Src/usbd_cdc.c **** 
 381:Middlewares/ST/STM32_USB_Device_Library/Class/CDC/Src/usbd_cdc.c **** /**
 382:Middlewares/ST/STM32_USB_Device_Library/Class/CDC/Src/usbd_cdc.c ****   * @brief  USBD_CDC_Init
 383:Middlewares/ST/STM32_USB_Device_Library/Class/CDC/Src/usbd_cdc.c ****   *         DeInitialize the CDC layer
 384:Middlewares/ST/STM32_USB_Device_Library/Class/CDC/Src/usbd_cdc.c ****   * @param  pdev: device instance
 385:Middlewares/ST/STM32_USB_Device_Library/Class/CDC/Src/usbd_cdc.c ****   * @param  cfgidx: Configuration index
 386:Middlewares/ST/STM32_USB_Device_Library/Class/CDC/Src/usbd_cdc.c ****   * @retval status
 387:Middlewares/ST/STM32_USB_Device_Library/Class/CDC/Src/usbd_cdc.c ****   */
 388:Middlewares/ST/STM32_USB_Device_Library/Class/CDC/Src/usbd_cdc.c **** static uint8_t USBD_CDC_DeInit(USBD_HandleTypeDef *pdev, uint8_t cfgidx)
 389:Middlewares/ST/STM32_USB_Device_Library/Class/CDC/Src/usbd_cdc.c **** {
 379              		.loc 1 389 1
 380              		.cfi_startproc
 381              		@ args = 0, pretend = 0, frame = 8
 382              		@ frame_needed = 1, uses_anonymous_args = 0
 383 0000 80B5     		push	{r7, lr}
 384              	.LCFI5:
 385              		.cfi_def_cfa_offset 8
 386              		.cfi_offset 7, -8
 387              		.cfi_offset 14, -4
 388 0002 82B0     		sub	sp, sp, #8
 389              	.LCFI6:
 390              		.cfi_def_cfa_offset 16
 391 0004 00AF     		add	r7, sp, #0
 392              	.LCFI7:
 393              		.cfi_def_cfa_register 7
 394 0006 7860     		str	r0, [r7, #4]
 395 0008 0B46     		mov	r3, r1
 396 000a FB70     		strb	r3, [r7, #3]
 390:Middlewares/ST/STM32_USB_Device_Library/Class/CDC/Src/usbd_cdc.c ****   UNUSED(cfgidx);
 391:Middlewares/ST/STM32_USB_Device_Library/Class/CDC/Src/usbd_cdc.c **** 
 392:Middlewares/ST/STM32_USB_Device_Library/Class/CDC/Src/usbd_cdc.c **** 
 393:Middlewares/ST/STM32_USB_Device_Library/Class/CDC/Src/usbd_cdc.c **** #ifdef USE_USBD_COMPOSITE
 394:Middlewares/ST/STM32_USB_Device_Library/Class/CDC/Src/usbd_cdc.c ****   /* Get the Endpoints addresses allocated for this CDC class instance */
 395:Middlewares/ST/STM32_USB_Device_Library/Class/CDC/Src/usbd_cdc.c ****   CDCInEpAdd  = USBD_CoreGetEPAdd(pdev, USBD_EP_IN, USBD_EP_TYPE_BULK, (uint8_t)pdev->classId);
 396:Middlewares/ST/STM32_USB_Device_Library/Class/CDC/Src/usbd_cdc.c ****   CDCOutEpAdd = USBD_CoreGetEPAdd(pdev, USBD_EP_OUT, USBD_EP_TYPE_BULK, (uint8_t)pdev->classId);
 397:Middlewares/ST/STM32_USB_Device_Library/Class/CDC/Src/usbd_cdc.c ****   CDCCmdEpAdd = USBD_CoreGetEPAdd(pdev, USBD_EP_IN, USBD_EP_TYPE_INTR, (uint8_t)pdev->classId);
 398:Middlewares/ST/STM32_USB_Device_Library/Class/CDC/Src/usbd_cdc.c **** #endif /* USE_USBD_COMPOSITE */
 399:Middlewares/ST/STM32_USB_Device_Library/Class/CDC/Src/usbd_cdc.c **** 
 400:Middlewares/ST/STM32_USB_Device_Library/Class/CDC/Src/usbd_cdc.c ****   /* Close EP IN */
 401:Middlewares/ST/STM32_USB_Device_Library/Class/CDC/Src/usbd_cdc.c ****   (void)USBD_LL_CloseEP(pdev, CDCInEpAdd);
ARM GAS  C:\Users\Godwin\AppData\Local\Temp\ccIOrPOQ.s 			page 15


 397              		.loc 1 401 3
 398 000c 3A4B     		ldr	r3, .L14
 399 000e 1B78     		ldrb	r3, [r3]	@ zero_extendqisi2
 400              		.loc 1 401 9
 401 0010 1946     		mov	r1, r3
 402 0012 7868     		ldr	r0, [r7, #4]
 403 0014 FFF7FEFF 		bl	USBD_LL_CloseEP
 402:Middlewares/ST/STM32_USB_Device_Library/Class/CDC/Src/usbd_cdc.c ****   pdev->ep_in[CDCInEpAdd & 0xFU].is_used = 0U;
 404              		.loc 1 402 26
 405 0018 374B     		ldr	r3, .L14
 406 001a 1B78     		ldrb	r3, [r3]	@ zero_extendqisi2
 407 001c 03F00F02 		and	r2, r3, #15
 408              		.loc 1 402 42
 409 0020 7968     		ldr	r1, [r7, #4]
 410 0022 1346     		mov	r3, r2
 411 0024 9B00     		lsls	r3, r3, #2
 412 0026 1344     		add	r3, r3, r2
 413 0028 9B00     		lsls	r3, r3, #2
 414 002a 0B44     		add	r3, r3, r1
 415 002c 2433     		adds	r3, r3, #36
 416 002e 0022     		movs	r2, #0
 417 0030 1A80     		strh	r2, [r3]	@ movhi
 403:Middlewares/ST/STM32_USB_Device_Library/Class/CDC/Src/usbd_cdc.c **** 
 404:Middlewares/ST/STM32_USB_Device_Library/Class/CDC/Src/usbd_cdc.c ****   /* Close EP OUT */
 405:Middlewares/ST/STM32_USB_Device_Library/Class/CDC/Src/usbd_cdc.c ****   (void)USBD_LL_CloseEP(pdev, CDCOutEpAdd);
 418              		.loc 1 405 3
 419 0032 324B     		ldr	r3, .L14+4
 420 0034 1B78     		ldrb	r3, [r3]	@ zero_extendqisi2
 421              		.loc 1 405 9
 422 0036 1946     		mov	r1, r3
 423 0038 7868     		ldr	r0, [r7, #4]
 424 003a FFF7FEFF 		bl	USBD_LL_CloseEP
 406:Middlewares/ST/STM32_USB_Device_Library/Class/CDC/Src/usbd_cdc.c ****   pdev->ep_out[CDCOutEpAdd & 0xFU].is_used = 0U;
 425              		.loc 1 406 28
 426 003e 2F4B     		ldr	r3, .L14+4
 427 0040 1B78     		ldrb	r3, [r3]	@ zero_extendqisi2
 428 0042 03F00F02 		and	r2, r3, #15
 429              		.loc 1 406 44
 430 0046 7968     		ldr	r1, [r7, #4]
 431 0048 1346     		mov	r3, r2
 432 004a 9B00     		lsls	r3, r3, #2
 433 004c 1344     		add	r3, r3, r2
 434 004e 9B00     		lsls	r3, r3, #2
 435 0050 0B44     		add	r3, r3, r1
 436 0052 03F5B273 		add	r3, r3, #356
 437 0056 0022     		movs	r2, #0
 438 0058 1A80     		strh	r2, [r3]	@ movhi
 407:Middlewares/ST/STM32_USB_Device_Library/Class/CDC/Src/usbd_cdc.c **** 
 408:Middlewares/ST/STM32_USB_Device_Library/Class/CDC/Src/usbd_cdc.c ****   /* Close Command IN EP */
 409:Middlewares/ST/STM32_USB_Device_Library/Class/CDC/Src/usbd_cdc.c ****   (void)USBD_LL_CloseEP(pdev, CDCCmdEpAdd);
 439              		.loc 1 409 3
 440 005a 294B     		ldr	r3, .L14+8
 441 005c 1B78     		ldrb	r3, [r3]	@ zero_extendqisi2
 442              		.loc 1 409 9
 443 005e 1946     		mov	r1, r3
 444 0060 7868     		ldr	r0, [r7, #4]
 445 0062 FFF7FEFF 		bl	USBD_LL_CloseEP
ARM GAS  C:\Users\Godwin\AppData\Local\Temp\ccIOrPOQ.s 			page 16


 410:Middlewares/ST/STM32_USB_Device_Library/Class/CDC/Src/usbd_cdc.c ****   pdev->ep_in[CDCCmdEpAdd & 0xFU].is_used = 0U;
 446              		.loc 1 410 27
 447 0066 264B     		ldr	r3, .L14+8
 448 0068 1B78     		ldrb	r3, [r3]	@ zero_extendqisi2
 449 006a 03F00F02 		and	r2, r3, #15
 450              		.loc 1 410 43
 451 006e 7968     		ldr	r1, [r7, #4]
 452 0070 1346     		mov	r3, r2
 453 0072 9B00     		lsls	r3, r3, #2
 454 0074 1344     		add	r3, r3, r2
 455 0076 9B00     		lsls	r3, r3, #2
 456 0078 0B44     		add	r3, r3, r1
 457 007a 2433     		adds	r3, r3, #36
 458 007c 0022     		movs	r2, #0
 459 007e 1A80     		strh	r2, [r3]	@ movhi
 411:Middlewares/ST/STM32_USB_Device_Library/Class/CDC/Src/usbd_cdc.c ****   pdev->ep_in[CDCCmdEpAdd & 0xFU].bInterval = 0U;
 460              		.loc 1 411 27
 461 0080 1F4B     		ldr	r3, .L14+8
 462 0082 1B78     		ldrb	r3, [r3]	@ zero_extendqisi2
 463 0084 03F00F02 		and	r2, r3, #15
 464              		.loc 1 411 45
 465 0088 7968     		ldr	r1, [r7, #4]
 466 008a 1346     		mov	r3, r2
 467 008c 9B00     		lsls	r3, r3, #2
 468 008e 1344     		add	r3, r3, r2
 469 0090 9B00     		lsls	r3, r3, #2
 470 0092 0B44     		add	r3, r3, r1
 471 0094 2633     		adds	r3, r3, #38
 472 0096 0022     		movs	r2, #0
 473 0098 1A80     		strh	r2, [r3]	@ movhi
 412:Middlewares/ST/STM32_USB_Device_Library/Class/CDC/Src/usbd_cdc.c **** 
 413:Middlewares/ST/STM32_USB_Device_Library/Class/CDC/Src/usbd_cdc.c ****   /* DeInit  physical Interface components */
 414:Middlewares/ST/STM32_USB_Device_Library/Class/CDC/Src/usbd_cdc.c ****   if (pdev->pClassDataCmsit[pdev->classId] != NULL)
 474              		.loc 1 414 33
 475 009a 7B68     		ldr	r3, [r7, #4]
 476 009c D3F8D422 		ldr	r2, [r3, #724]
 477              		.loc 1 414 28
 478 00a0 7B68     		ldr	r3, [r7, #4]
 479 00a2 B032     		adds	r2, r2, #176
 480 00a4 53F82230 		ldr	r3, [r3, r2, lsl #2]
 481              		.loc 1 414 6
 482 00a8 002B     		cmp	r3, #0
 483 00aa 1FD0     		beq	.L12
 415:Middlewares/ST/STM32_USB_Device_Library/Class/CDC/Src/usbd_cdc.c ****   {
 416:Middlewares/ST/STM32_USB_Device_Library/Class/CDC/Src/usbd_cdc.c ****     ((USBD_CDC_ItfTypeDef *)pdev->pUserData[pdev->classId])->DeInit();
 484              		.loc 1 416 49
 485 00ac 7B68     		ldr	r3, [r7, #4]
 486 00ae D3F8D432 		ldr	r3, [r3, #724]
 487              		.loc 1 416 44
 488 00b2 7A68     		ldr	r2, [r7, #4]
 489 00b4 B033     		adds	r3, r3, #176
 490 00b6 9B00     		lsls	r3, r3, #2
 491 00b8 1344     		add	r3, r3, r2
 492 00ba 5B68     		ldr	r3, [r3, #4]
 493              		.loc 1 416 60
 494 00bc 5B68     		ldr	r3, [r3, #4]
 495              		.loc 1 416 6
ARM GAS  C:\Users\Godwin\AppData\Local\Temp\ccIOrPOQ.s 			page 17


 496 00be 9847     		blx	r3
 497              	.LVL1:
 417:Middlewares/ST/STM32_USB_Device_Library/Class/CDC/Src/usbd_cdc.c ****     (void)USBD_free(pdev->pClassDataCmsit[pdev->classId]);
 498              		.loc 1 417 47
 499 00c0 7B68     		ldr	r3, [r7, #4]
 500 00c2 D3F8D422 		ldr	r2, [r3, #724]
 501              		.loc 1 417 5
 502 00c6 7B68     		ldr	r3, [r7, #4]
 503 00c8 B032     		adds	r2, r2, #176
 504 00ca 53F82230 		ldr	r3, [r3, r2, lsl #2]
 505 00ce 1846     		mov	r0, r3
 506 00d0 FFF7FEFF 		bl	USBD_static_free
 418:Middlewares/ST/STM32_USB_Device_Library/Class/CDC/Src/usbd_cdc.c ****     pdev->pClassDataCmsit[pdev->classId] = NULL;
 507              		.loc 1 418 31
 508 00d4 7B68     		ldr	r3, [r7, #4]
 509 00d6 D3F8D422 		ldr	r2, [r3, #724]
 510              		.loc 1 418 42
 511 00da 7B68     		ldr	r3, [r7, #4]
 512 00dc B032     		adds	r2, r2, #176
 513 00de 0021     		movs	r1, #0
 514 00e0 43F82210 		str	r1, [r3, r2, lsl #2]
 419:Middlewares/ST/STM32_USB_Device_Library/Class/CDC/Src/usbd_cdc.c ****     pdev->pClassData = NULL;
 515              		.loc 1 419 22
 516 00e4 7B68     		ldr	r3, [r7, #4]
 517 00e6 0022     		movs	r2, #0
 518 00e8 C3F8BC22 		str	r2, [r3, #700]
 519              	.L12:
 420:Middlewares/ST/STM32_USB_Device_Library/Class/CDC/Src/usbd_cdc.c ****   }
 421:Middlewares/ST/STM32_USB_Device_Library/Class/CDC/Src/usbd_cdc.c **** 
 422:Middlewares/ST/STM32_USB_Device_Library/Class/CDC/Src/usbd_cdc.c ****   return (uint8_t)USBD_OK;
 520              		.loc 1 422 10
 521 00ec 0023     		movs	r3, #0
 423:Middlewares/ST/STM32_USB_Device_Library/Class/CDC/Src/usbd_cdc.c **** }
 522              		.loc 1 423 1
 523 00ee 1846     		mov	r0, r3
 524 00f0 0837     		adds	r7, r7, #8
 525              	.LCFI8:
 526              		.cfi_def_cfa_offset 8
 527 00f2 BD46     		mov	sp, r7
 528              	.LCFI9:
 529              		.cfi_def_cfa_register 13
 530              		@ sp needed
 531 00f4 80BD     		pop	{r7, pc}
 532              	.L15:
 533 00f6 00BF     		.align	2
 534              	.L14:
 535 00f8 00000000 		.word	CDCInEpAdd
 536 00fc 00000000 		.word	CDCOutEpAdd
 537 0100 00000000 		.word	CDCCmdEpAdd
 538              		.cfi_endproc
 539              	.LFE149:
 541              		.section	.text.USBD_CDC_Setup,"ax",%progbits
 542              		.align	1
 543              		.syntax unified
 544              		.thumb
 545              		.thumb_func
 547              	USBD_CDC_Setup:
ARM GAS  C:\Users\Godwin\AppData\Local\Temp\ccIOrPOQ.s 			page 18


 548              	.LFB150:
 424:Middlewares/ST/STM32_USB_Device_Library/Class/CDC/Src/usbd_cdc.c **** 
 425:Middlewares/ST/STM32_USB_Device_Library/Class/CDC/Src/usbd_cdc.c **** /**
 426:Middlewares/ST/STM32_USB_Device_Library/Class/CDC/Src/usbd_cdc.c ****   * @brief  USBD_CDC_Setup
 427:Middlewares/ST/STM32_USB_Device_Library/Class/CDC/Src/usbd_cdc.c ****   *         Handle the CDC specific requests
 428:Middlewares/ST/STM32_USB_Device_Library/Class/CDC/Src/usbd_cdc.c ****   * @param  pdev: instance
 429:Middlewares/ST/STM32_USB_Device_Library/Class/CDC/Src/usbd_cdc.c ****   * @param  req: usb requests
 430:Middlewares/ST/STM32_USB_Device_Library/Class/CDC/Src/usbd_cdc.c ****   * @retval status
 431:Middlewares/ST/STM32_USB_Device_Library/Class/CDC/Src/usbd_cdc.c ****   */
 432:Middlewares/ST/STM32_USB_Device_Library/Class/CDC/Src/usbd_cdc.c **** static uint8_t USBD_CDC_Setup(USBD_HandleTypeDef *pdev,
 433:Middlewares/ST/STM32_USB_Device_Library/Class/CDC/Src/usbd_cdc.c ****                               USBD_SetupReqTypedef *req)
 434:Middlewares/ST/STM32_USB_Device_Library/Class/CDC/Src/usbd_cdc.c **** {
 549              		.loc 1 434 1
 550              		.cfi_startproc
 551              		@ args = 0, pretend = 0, frame = 24
 552              		@ frame_needed = 1, uses_anonymous_args = 0
 553 0000 80B5     		push	{r7, lr}
 554              	.LCFI10:
 555              		.cfi_def_cfa_offset 8
 556              		.cfi_offset 7, -8
 557              		.cfi_offset 14, -4
 558 0002 86B0     		sub	sp, sp, #24
 559              	.LCFI11:
 560              		.cfi_def_cfa_offset 32
 561 0004 00AF     		add	r7, sp, #0
 562              	.LCFI12:
 563              		.cfi_def_cfa_register 7
 564 0006 7860     		str	r0, [r7, #4]
 565 0008 3960     		str	r1, [r7]
 435:Middlewares/ST/STM32_USB_Device_Library/Class/CDC/Src/usbd_cdc.c ****   USBD_CDC_HandleTypeDef *hcdc = (USBD_CDC_HandleTypeDef *)pdev->pClassDataCmsit[pdev->classId];
 566              		.loc 1 435 86
 567 000a 7B68     		ldr	r3, [r7, #4]
 568 000c D3F8D422 		ldr	r2, [r3, #724]
 569              		.loc 1 435 27
 570 0010 7B68     		ldr	r3, [r7, #4]
 571 0012 B032     		adds	r2, r2, #176
 572 0014 53F82230 		ldr	r3, [r3, r2, lsl #2]
 573 0018 3B61     		str	r3, [r7, #16]
 436:Middlewares/ST/STM32_USB_Device_Library/Class/CDC/Src/usbd_cdc.c ****   uint16_t len;
 437:Middlewares/ST/STM32_USB_Device_Library/Class/CDC/Src/usbd_cdc.c ****   uint8_t ifalt = 0U;
 574              		.loc 1 437 11
 575 001a 0023     		movs	r3, #0
 576 001c 7B73     		strb	r3, [r7, #13]
 438:Middlewares/ST/STM32_USB_Device_Library/Class/CDC/Src/usbd_cdc.c ****   uint16_t status_info = 0U;
 577              		.loc 1 438 12
 578 001e 0023     		movs	r3, #0
 579 0020 7B81     		strh	r3, [r7, #10]	@ movhi
 439:Middlewares/ST/STM32_USB_Device_Library/Class/CDC/Src/usbd_cdc.c ****   USBD_StatusTypeDef ret = USBD_OK;
 580              		.loc 1 439 22
 581 0022 0023     		movs	r3, #0
 582 0024 FB75     		strb	r3, [r7, #23]
 440:Middlewares/ST/STM32_USB_Device_Library/Class/CDC/Src/usbd_cdc.c **** 
 441:Middlewares/ST/STM32_USB_Device_Library/Class/CDC/Src/usbd_cdc.c ****   if (hcdc == NULL)
 583              		.loc 1 441 6
 584 0026 3B69     		ldr	r3, [r7, #16]
 585 0028 002B     		cmp	r3, #0
 586 002a 01D1     		bne	.L17
ARM GAS  C:\Users\Godwin\AppData\Local\Temp\ccIOrPOQ.s 			page 19


 442:Middlewares/ST/STM32_USB_Device_Library/Class/CDC/Src/usbd_cdc.c ****   {
 443:Middlewares/ST/STM32_USB_Device_Library/Class/CDC/Src/usbd_cdc.c ****     return (uint8_t)USBD_FAIL;
 587              		.loc 1 443 12
 588 002c 0323     		movs	r3, #3
 589 002e BFE0     		b	.L39
 590              	.L17:
 444:Middlewares/ST/STM32_USB_Device_Library/Class/CDC/Src/usbd_cdc.c ****   }
 445:Middlewares/ST/STM32_USB_Device_Library/Class/CDC/Src/usbd_cdc.c **** 
 446:Middlewares/ST/STM32_USB_Device_Library/Class/CDC/Src/usbd_cdc.c ****   switch (req->bmRequest & USB_REQ_TYPE_MASK)
 591              		.loc 1 446 14
 592 0030 3B68     		ldr	r3, [r7]
 593 0032 1B78     		ldrb	r3, [r3]	@ zero_extendqisi2
 594              		.loc 1 446 26
 595 0034 03F06003 		and	r3, r3, #96
 596              		.loc 1 446 3
 597 0038 002B     		cmp	r3, #0
 598 003a 50D0     		beq	.L19
 599 003c 202B     		cmp	r3, #32
 600 003e 40F0AF80 		bne	.L20
 447:Middlewares/ST/STM32_USB_Device_Library/Class/CDC/Src/usbd_cdc.c ****   {
 448:Middlewares/ST/STM32_USB_Device_Library/Class/CDC/Src/usbd_cdc.c ****     case USB_REQ_TYPE_CLASS:
 449:Middlewares/ST/STM32_USB_Device_Library/Class/CDC/Src/usbd_cdc.c ****       if (req->wLength != 0U)
 601              		.loc 1 449 14
 602 0042 3B68     		ldr	r3, [r7]
 603 0044 DB88     		ldrh	r3, [r3, #6]
 604              		.loc 1 449 10
 605 0046 002B     		cmp	r3, #0
 606 0048 3AD0     		beq	.L21
 450:Middlewares/ST/STM32_USB_Device_Library/Class/CDC/Src/usbd_cdc.c ****       {
 451:Middlewares/ST/STM32_USB_Device_Library/Class/CDC/Src/usbd_cdc.c ****         if ((req->bmRequest & 0x80U) != 0U)
 607              		.loc 1 451 17
 608 004a 3B68     		ldr	r3, [r7]
 609 004c 1B78     		ldrb	r3, [r3]	@ zero_extendqisi2
 610              		.loc 1 451 38
 611 004e 5BB2     		sxtb	r3, r3
 612              		.loc 1 451 12
 613 0050 002B     		cmp	r3, #0
 614 0052 1BDA     		bge	.L22
 452:Middlewares/ST/STM32_USB_Device_Library/Class/CDC/Src/usbd_cdc.c ****         {
 453:Middlewares/ST/STM32_USB_Device_Library/Class/CDC/Src/usbd_cdc.c ****           ((USBD_CDC_ItfTypeDef *)pdev->pUserData[pdev->classId])->Control(req->bRequest,
 615              		.loc 1 453 55
 616 0054 7B68     		ldr	r3, [r7, #4]
 617 0056 D3F8D432 		ldr	r3, [r3, #724]
 618              		.loc 1 453 50
 619 005a 7A68     		ldr	r2, [r7, #4]
 620 005c B033     		adds	r3, r3, #176
 621 005e 9B00     		lsls	r3, r3, #2
 622 0060 1344     		add	r3, r3, r2
 623 0062 5B68     		ldr	r3, [r3, #4]
 624              		.loc 1 453 66
 625 0064 9B68     		ldr	r3, [r3, #8]
 626              		.loc 1 453 12
 627 0066 3A68     		ldr	r2, [r7]
 628 0068 5078     		ldrb	r0, [r2, #1]	@ zero_extendqisi2
 454:Middlewares/ST/STM32_USB_Device_Library/Class/CDC/Src/usbd_cdc.c ****                                                                            (uint8_t *)hcdc->data,
 629              		.loc 1 454 87
 630 006a 3969     		ldr	r1, [r7, #16]
ARM GAS  C:\Users\Godwin\AppData\Local\Temp\ccIOrPOQ.s 			page 20


 453:Middlewares/ST/STM32_USB_Device_Library/Class/CDC/Src/usbd_cdc.c ****                                                                            (uint8_t *)hcdc->data,
 631              		.loc 1 453 12
 632 006c 3A68     		ldr	r2, [r7]
 633 006e D288     		ldrh	r2, [r2, #6]
 634 0070 9847     		blx	r3
 635              	.LVL2:
 455:Middlewares/ST/STM32_USB_Device_Library/Class/CDC/Src/usbd_cdc.c ****                                                                            req->wLength);
 456:Middlewares/ST/STM32_USB_Device_Library/Class/CDC/Src/usbd_cdc.c **** 
 457:Middlewares/ST/STM32_USB_Device_Library/Class/CDC/Src/usbd_cdc.c ****           len = MIN(CDC_REQ_MAX_DATA_SIZE, req->wLength);
 636              		.loc 1 457 17
 637 0072 3B68     		ldr	r3, [r7]
 638 0074 DB88     		ldrh	r3, [r3, #6]
 639              		.loc 1 457 15
 640 0076 072B     		cmp	r3, #7
 641 0078 28BF     		it	cs
 642 007a 0723     		movcs	r3, #7
 643 007c FB81     		strh	r3, [r7, #14]	@ movhi
 458:Middlewares/ST/STM32_USB_Device_Library/Class/CDC/Src/usbd_cdc.c ****           (void)USBD_CtlSendData(pdev, (uint8_t *)hcdc->data, len);
 644              		.loc 1 458 51
 645 007e 3B69     		ldr	r3, [r7, #16]
 646              		.loc 1 458 17
 647 0080 FA89     		ldrh	r2, [r7, #14]
 648 0082 1946     		mov	r1, r3
 649 0084 7868     		ldr	r0, [r7, #4]
 650 0086 FFF7FEFF 		bl	USBD_CtlSendData
 459:Middlewares/ST/STM32_USB_Device_Library/Class/CDC/Src/usbd_cdc.c ****         }
 460:Middlewares/ST/STM32_USB_Device_Library/Class/CDC/Src/usbd_cdc.c ****         else
 461:Middlewares/ST/STM32_USB_Device_Library/Class/CDC/Src/usbd_cdc.c ****         {
 462:Middlewares/ST/STM32_USB_Device_Library/Class/CDC/Src/usbd_cdc.c ****           hcdc->CmdOpCode = req->bRequest;
 463:Middlewares/ST/STM32_USB_Device_Library/Class/CDC/Src/usbd_cdc.c ****           hcdc->CmdLength = (uint8_t)MIN(req->wLength, USB_MAX_EP0_SIZE);
 464:Middlewares/ST/STM32_USB_Device_Library/Class/CDC/Src/usbd_cdc.c **** 
 465:Middlewares/ST/STM32_USB_Device_Library/Class/CDC/Src/usbd_cdc.c ****           (void)USBD_CtlPrepareRx(pdev, (uint8_t *)hcdc->data, hcdc->CmdLength);
 466:Middlewares/ST/STM32_USB_Device_Library/Class/CDC/Src/usbd_cdc.c ****         }
 467:Middlewares/ST/STM32_USB_Device_Library/Class/CDC/Src/usbd_cdc.c ****       }
 468:Middlewares/ST/STM32_USB_Device_Library/Class/CDC/Src/usbd_cdc.c ****       else
 469:Middlewares/ST/STM32_USB_Device_Library/Class/CDC/Src/usbd_cdc.c ****       {
 470:Middlewares/ST/STM32_USB_Device_Library/Class/CDC/Src/usbd_cdc.c ****         ((USBD_CDC_ItfTypeDef *)pdev->pUserData[pdev->classId])->Control(req->bRequest,
 471:Middlewares/ST/STM32_USB_Device_Library/Class/CDC/Src/usbd_cdc.c ****                                                                          (uint8_t *)req, 0U);
 472:Middlewares/ST/STM32_USB_Device_Library/Class/CDC/Src/usbd_cdc.c ****       }
 473:Middlewares/ST/STM32_USB_Device_Library/Class/CDC/Src/usbd_cdc.c ****       break;
 651              		.loc 1 473 7
 652 008a 90E0     		b	.L26
 653              	.L22:
 462:Middlewares/ST/STM32_USB_Device_Library/Class/CDC/Src/usbd_cdc.c ****           hcdc->CmdLength = (uint8_t)MIN(req->wLength, USB_MAX_EP0_SIZE);
 654              		.loc 1 462 32
 655 008c 3B68     		ldr	r3, [r7]
 656 008e 5A78     		ldrb	r2, [r3, #1]	@ zero_extendqisi2
 462:Middlewares/ST/STM32_USB_Device_Library/Class/CDC/Src/usbd_cdc.c ****           hcdc->CmdLength = (uint8_t)MIN(req->wLength, USB_MAX_EP0_SIZE);
 657              		.loc 1 462 27
 658 0090 3B69     		ldr	r3, [r7, #16]
 659 0092 83F80022 		strb	r2, [r3, #512]
 463:Middlewares/ST/STM32_USB_Device_Library/Class/CDC/Src/usbd_cdc.c **** 
 660              		.loc 1 463 38
 661 0096 3B68     		ldr	r3, [r7]
 662 0098 DB88     		ldrh	r3, [r3, #6]
 463:Middlewares/ST/STM32_USB_Device_Library/Class/CDC/Src/usbd_cdc.c **** 
 663              		.loc 1 463 29
ARM GAS  C:\Users\Godwin\AppData\Local\Temp\ccIOrPOQ.s 			page 21


 664 009a 3F2B     		cmp	r3, #63
 665 009c 03D8     		bhi	.L24
 463:Middlewares/ST/STM32_USB_Device_Library/Class/CDC/Src/usbd_cdc.c **** 
 666              		.loc 1 463 38 discriminator 1
 667 009e 3B68     		ldr	r3, [r7]
 668 00a0 DB88     		ldrh	r3, [r3, #6]
 463:Middlewares/ST/STM32_USB_Device_Library/Class/CDC/Src/usbd_cdc.c **** 
 669              		.loc 1 463 29 discriminator 1
 670 00a2 DAB2     		uxtb	r2, r3
 671 00a4 00E0     		b	.L25
 672              	.L24:
 463:Middlewares/ST/STM32_USB_Device_Library/Class/CDC/Src/usbd_cdc.c **** 
 673              		.loc 1 463 29 is_stmt 0 discriminator 2
 674 00a6 4022     		movs	r2, #64
 675              	.L25:
 463:Middlewares/ST/STM32_USB_Device_Library/Class/CDC/Src/usbd_cdc.c **** 
 676              		.loc 1 463 27 is_stmt 1 discriminator 4
 677 00a8 3B69     		ldr	r3, [r7, #16]
 678 00aa 83F80122 		strb	r2, [r3, #513]
 465:Middlewares/ST/STM32_USB_Device_Library/Class/CDC/Src/usbd_cdc.c ****         }
 679              		.loc 1 465 52
 680 00ae 3969     		ldr	r1, [r7, #16]
 465:Middlewares/ST/STM32_USB_Device_Library/Class/CDC/Src/usbd_cdc.c ****         }
 681              		.loc 1 465 68
 682 00b0 3B69     		ldr	r3, [r7, #16]
 683 00b2 93F80132 		ldrb	r3, [r3, #513]	@ zero_extendqisi2
 465:Middlewares/ST/STM32_USB_Device_Library/Class/CDC/Src/usbd_cdc.c ****         }
 684              		.loc 1 465 17
 685 00b6 1A46     		mov	r2, r3
 686 00b8 7868     		ldr	r0, [r7, #4]
 687 00ba FFF7FEFF 		bl	USBD_CtlPrepareRx
 688              		.loc 1 473 7
 689 00be 76E0     		b	.L26
 690              	.L21:
 470:Middlewares/ST/STM32_USB_Device_Library/Class/CDC/Src/usbd_cdc.c ****                                                                          (uint8_t *)req, 0U);
 691              		.loc 1 470 53
 692 00c0 7B68     		ldr	r3, [r7, #4]
 693 00c2 D3F8D432 		ldr	r3, [r3, #724]
 470:Middlewares/ST/STM32_USB_Device_Library/Class/CDC/Src/usbd_cdc.c ****                                                                          (uint8_t *)req, 0U);
 694              		.loc 1 470 48
 695 00c6 7A68     		ldr	r2, [r7, #4]
 696 00c8 B033     		adds	r3, r3, #176
 697 00ca 9B00     		lsls	r3, r3, #2
 698 00cc 1344     		add	r3, r3, r2
 699 00ce 5B68     		ldr	r3, [r3, #4]
 470:Middlewares/ST/STM32_USB_Device_Library/Class/CDC/Src/usbd_cdc.c ****                                                                          (uint8_t *)req, 0U);
 700              		.loc 1 470 64
 701 00d0 9B68     		ldr	r3, [r3, #8]
 470:Middlewares/ST/STM32_USB_Device_Library/Class/CDC/Src/usbd_cdc.c ****                                                                          (uint8_t *)req, 0U);
 702              		.loc 1 470 10
 703 00d2 3A68     		ldr	r2, [r7]
 704 00d4 5078     		ldrb	r0, [r2, #1]	@ zero_extendqisi2
 705 00d6 0022     		movs	r2, #0
 706 00d8 3968     		ldr	r1, [r7]
 707 00da 9847     		blx	r3
 708              	.LVL3:
 709              		.loc 1 473 7
ARM GAS  C:\Users\Godwin\AppData\Local\Temp\ccIOrPOQ.s 			page 22


 710 00dc 67E0     		b	.L26
 711              	.L19:
 474:Middlewares/ST/STM32_USB_Device_Library/Class/CDC/Src/usbd_cdc.c **** 
 475:Middlewares/ST/STM32_USB_Device_Library/Class/CDC/Src/usbd_cdc.c ****     case USB_REQ_TYPE_STANDARD:
 476:Middlewares/ST/STM32_USB_Device_Library/Class/CDC/Src/usbd_cdc.c ****       switch (req->bRequest)
 712              		.loc 1 476 18
 713 00de 3B68     		ldr	r3, [r7]
 714 00e0 5B78     		ldrb	r3, [r3, #1]	@ zero_extendqisi2
 715 00e2 0B2B     		cmp	r3, #11
 716 00e4 51D8     		bhi	.L27
 717 00e6 01A2     		adr	r2, .L29
 718 00e8 52F823F0 		ldr	pc, [r2, r3, lsl #2]
 719              		.p2align 2
 720              	.L29:
 721 00ec 1D010000 		.word	.L32+1
 722 00f0 99010000 		.word	.L40+1
 723 00f4 8B010000 		.word	.L27+1
 724 00f8 8B010000 		.word	.L27+1
 725 00fc 8B010000 		.word	.L27+1
 726 0100 8B010000 		.word	.L27+1
 727 0104 8B010000 		.word	.L27+1
 728 0108 8B010000 		.word	.L27+1
 729 010c 8B010000 		.word	.L27+1
 730 0110 8B010000 		.word	.L27+1
 731 0114 47010000 		.word	.L30+1
 732 0118 71010000 		.word	.L28+1
 733              		.p2align 1
 734              	.L32:
 477:Middlewares/ST/STM32_USB_Device_Library/Class/CDC/Src/usbd_cdc.c ****       {
 478:Middlewares/ST/STM32_USB_Device_Library/Class/CDC/Src/usbd_cdc.c ****         case USB_REQ_GET_STATUS:
 479:Middlewares/ST/STM32_USB_Device_Library/Class/CDC/Src/usbd_cdc.c ****           if (pdev->dev_state == USBD_STATE_CONFIGURED)
 735              		.loc 1 479 19
 736 011c 7B68     		ldr	r3, [r7, #4]
 737 011e 93F89C32 		ldrb	r3, [r3, #668]
 738 0122 DBB2     		uxtb	r3, r3
 739              		.loc 1 479 14
 740 0124 032B     		cmp	r3, #3
 741 0126 07D1     		bne	.L33
 480:Middlewares/ST/STM32_USB_Device_Library/Class/CDC/Src/usbd_cdc.c ****           {
 481:Middlewares/ST/STM32_USB_Device_Library/Class/CDC/Src/usbd_cdc.c ****             (void)USBD_CtlSendData(pdev, (uint8_t *)&status_info, 2U);
 742              		.loc 1 481 19
 743 0128 07F10A03 		add	r3, r7, #10
 744 012c 0222     		movs	r2, #2
 745 012e 1946     		mov	r1, r3
 746 0130 7868     		ldr	r0, [r7, #4]
 747 0132 FFF7FEFF 		bl	USBD_CtlSendData
 482:Middlewares/ST/STM32_USB_Device_Library/Class/CDC/Src/usbd_cdc.c ****           }
 483:Middlewares/ST/STM32_USB_Device_Library/Class/CDC/Src/usbd_cdc.c ****           else
 484:Middlewares/ST/STM32_USB_Device_Library/Class/CDC/Src/usbd_cdc.c ****           {
 485:Middlewares/ST/STM32_USB_Device_Library/Class/CDC/Src/usbd_cdc.c ****             USBD_CtlError(pdev, req);
 486:Middlewares/ST/STM32_USB_Device_Library/Class/CDC/Src/usbd_cdc.c ****             ret = USBD_FAIL;
 487:Middlewares/ST/STM32_USB_Device_Library/Class/CDC/Src/usbd_cdc.c ****           }
 488:Middlewares/ST/STM32_USB_Device_Library/Class/CDC/Src/usbd_cdc.c ****           break;
 748              		.loc 1 488 11
 749 0136 32E0     		b	.L35
 750              	.L33:
 485:Middlewares/ST/STM32_USB_Device_Library/Class/CDC/Src/usbd_cdc.c ****             ret = USBD_FAIL;
ARM GAS  C:\Users\Godwin\AppData\Local\Temp\ccIOrPOQ.s 			page 23


 751              		.loc 1 485 13
 752 0138 3968     		ldr	r1, [r7]
 753 013a 7868     		ldr	r0, [r7, #4]
 754 013c FFF7FEFF 		bl	USBD_CtlError
 486:Middlewares/ST/STM32_USB_Device_Library/Class/CDC/Src/usbd_cdc.c ****           }
 755              		.loc 1 486 17
 756 0140 0323     		movs	r3, #3
 757 0142 FB75     		strb	r3, [r7, #23]
 758              		.loc 1 488 11
 759 0144 2BE0     		b	.L35
 760              	.L30:
 489:Middlewares/ST/STM32_USB_Device_Library/Class/CDC/Src/usbd_cdc.c **** 
 490:Middlewares/ST/STM32_USB_Device_Library/Class/CDC/Src/usbd_cdc.c ****         case USB_REQ_GET_INTERFACE:
 491:Middlewares/ST/STM32_USB_Device_Library/Class/CDC/Src/usbd_cdc.c ****           if (pdev->dev_state == USBD_STATE_CONFIGURED)
 761              		.loc 1 491 19
 762 0146 7B68     		ldr	r3, [r7, #4]
 763 0148 93F89C32 		ldrb	r3, [r3, #668]
 764 014c DBB2     		uxtb	r3, r3
 765              		.loc 1 491 14
 766 014e 032B     		cmp	r3, #3
 767 0150 07D1     		bne	.L36
 492:Middlewares/ST/STM32_USB_Device_Library/Class/CDC/Src/usbd_cdc.c ****           {
 493:Middlewares/ST/STM32_USB_Device_Library/Class/CDC/Src/usbd_cdc.c ****             (void)USBD_CtlSendData(pdev, &ifalt, 1U);
 768              		.loc 1 493 19
 769 0152 07F10D03 		add	r3, r7, #13
 770 0156 0122     		movs	r2, #1
 771 0158 1946     		mov	r1, r3
 772 015a 7868     		ldr	r0, [r7, #4]
 773 015c FFF7FEFF 		bl	USBD_CtlSendData
 494:Middlewares/ST/STM32_USB_Device_Library/Class/CDC/Src/usbd_cdc.c ****           }
 495:Middlewares/ST/STM32_USB_Device_Library/Class/CDC/Src/usbd_cdc.c ****           else
 496:Middlewares/ST/STM32_USB_Device_Library/Class/CDC/Src/usbd_cdc.c ****           {
 497:Middlewares/ST/STM32_USB_Device_Library/Class/CDC/Src/usbd_cdc.c ****             USBD_CtlError(pdev, req);
 498:Middlewares/ST/STM32_USB_Device_Library/Class/CDC/Src/usbd_cdc.c ****             ret = USBD_FAIL;
 499:Middlewares/ST/STM32_USB_Device_Library/Class/CDC/Src/usbd_cdc.c ****           }
 500:Middlewares/ST/STM32_USB_Device_Library/Class/CDC/Src/usbd_cdc.c ****           break;
 774              		.loc 1 500 11
 775 0160 1DE0     		b	.L35
 776              	.L36:
 497:Middlewares/ST/STM32_USB_Device_Library/Class/CDC/Src/usbd_cdc.c ****             ret = USBD_FAIL;
 777              		.loc 1 497 13
 778 0162 3968     		ldr	r1, [r7]
 779 0164 7868     		ldr	r0, [r7, #4]
 780 0166 FFF7FEFF 		bl	USBD_CtlError
 498:Middlewares/ST/STM32_USB_Device_Library/Class/CDC/Src/usbd_cdc.c ****           }
 781              		.loc 1 498 17
 782 016a 0323     		movs	r3, #3
 783 016c FB75     		strb	r3, [r7, #23]
 784              		.loc 1 500 11
 785 016e 16E0     		b	.L35
 786              	.L28:
 501:Middlewares/ST/STM32_USB_Device_Library/Class/CDC/Src/usbd_cdc.c **** 
 502:Middlewares/ST/STM32_USB_Device_Library/Class/CDC/Src/usbd_cdc.c ****         case USB_REQ_SET_INTERFACE:
 503:Middlewares/ST/STM32_USB_Device_Library/Class/CDC/Src/usbd_cdc.c ****           if (pdev->dev_state != USBD_STATE_CONFIGURED)
 787              		.loc 1 503 19
 788 0170 7B68     		ldr	r3, [r7, #4]
 789 0172 93F89C32 		ldrb	r3, [r3, #668]
ARM GAS  C:\Users\Godwin\AppData\Local\Temp\ccIOrPOQ.s 			page 24


 790 0176 DBB2     		uxtb	r3, r3
 791              		.loc 1 503 14
 792 0178 032B     		cmp	r3, #3
 793 017a 0FD0     		beq	.L41
 504:Middlewares/ST/STM32_USB_Device_Library/Class/CDC/Src/usbd_cdc.c ****           {
 505:Middlewares/ST/STM32_USB_Device_Library/Class/CDC/Src/usbd_cdc.c ****             USBD_CtlError(pdev, req);
 794              		.loc 1 505 13
 795 017c 3968     		ldr	r1, [r7]
 796 017e 7868     		ldr	r0, [r7, #4]
 797 0180 FFF7FEFF 		bl	USBD_CtlError
 506:Middlewares/ST/STM32_USB_Device_Library/Class/CDC/Src/usbd_cdc.c ****             ret = USBD_FAIL;
 798              		.loc 1 506 17
 799 0184 0323     		movs	r3, #3
 800 0186 FB75     		strb	r3, [r7, #23]
 507:Middlewares/ST/STM32_USB_Device_Library/Class/CDC/Src/usbd_cdc.c ****           }
 508:Middlewares/ST/STM32_USB_Device_Library/Class/CDC/Src/usbd_cdc.c ****           break;
 801              		.loc 1 508 11
 802 0188 08E0     		b	.L41
 803              	.L27:
 509:Middlewares/ST/STM32_USB_Device_Library/Class/CDC/Src/usbd_cdc.c **** 
 510:Middlewares/ST/STM32_USB_Device_Library/Class/CDC/Src/usbd_cdc.c ****         case USB_REQ_CLEAR_FEATURE:
 511:Middlewares/ST/STM32_USB_Device_Library/Class/CDC/Src/usbd_cdc.c ****           break;
 512:Middlewares/ST/STM32_USB_Device_Library/Class/CDC/Src/usbd_cdc.c **** 
 513:Middlewares/ST/STM32_USB_Device_Library/Class/CDC/Src/usbd_cdc.c ****         default:
 514:Middlewares/ST/STM32_USB_Device_Library/Class/CDC/Src/usbd_cdc.c ****           USBD_CtlError(pdev, req);
 804              		.loc 1 514 11
 805 018a 3968     		ldr	r1, [r7]
 806 018c 7868     		ldr	r0, [r7, #4]
 807 018e FFF7FEFF 		bl	USBD_CtlError
 515:Middlewares/ST/STM32_USB_Device_Library/Class/CDC/Src/usbd_cdc.c ****           ret = USBD_FAIL;
 808              		.loc 1 515 15
 809 0192 0323     		movs	r3, #3
 810 0194 FB75     		strb	r3, [r7, #23]
 516:Middlewares/ST/STM32_USB_Device_Library/Class/CDC/Src/usbd_cdc.c ****           break;
 811              		.loc 1 516 11
 812 0196 02E0     		b	.L35
 813              	.L40:
 511:Middlewares/ST/STM32_USB_Device_Library/Class/CDC/Src/usbd_cdc.c **** 
 814              		.loc 1 511 11
 815 0198 00BF     		nop
 816 019a 08E0     		b	.L26
 817              	.L41:
 508:Middlewares/ST/STM32_USB_Device_Library/Class/CDC/Src/usbd_cdc.c **** 
 818              		.loc 1 508 11
 819 019c 00BF     		nop
 820              	.L35:
 517:Middlewares/ST/STM32_USB_Device_Library/Class/CDC/Src/usbd_cdc.c ****       }
 518:Middlewares/ST/STM32_USB_Device_Library/Class/CDC/Src/usbd_cdc.c ****       break;
 821              		.loc 1 518 7
 822 019e 06E0     		b	.L26
 823              	.L20:
 519:Middlewares/ST/STM32_USB_Device_Library/Class/CDC/Src/usbd_cdc.c **** 
 520:Middlewares/ST/STM32_USB_Device_Library/Class/CDC/Src/usbd_cdc.c ****     default:
 521:Middlewares/ST/STM32_USB_Device_Library/Class/CDC/Src/usbd_cdc.c ****       USBD_CtlError(pdev, req);
 824              		.loc 1 521 7
 825 01a0 3968     		ldr	r1, [r7]
 826 01a2 7868     		ldr	r0, [r7, #4]
ARM GAS  C:\Users\Godwin\AppData\Local\Temp\ccIOrPOQ.s 			page 25


 827 01a4 FFF7FEFF 		bl	USBD_CtlError
 522:Middlewares/ST/STM32_USB_Device_Library/Class/CDC/Src/usbd_cdc.c ****       ret = USBD_FAIL;
 828              		.loc 1 522 11
 829 01a8 0323     		movs	r3, #3
 830 01aa FB75     		strb	r3, [r7, #23]
 523:Middlewares/ST/STM32_USB_Device_Library/Class/CDC/Src/usbd_cdc.c ****       break;
 831              		.loc 1 523 7
 832 01ac 00BF     		nop
 833              	.L26:
 524:Middlewares/ST/STM32_USB_Device_Library/Class/CDC/Src/usbd_cdc.c ****   }
 525:Middlewares/ST/STM32_USB_Device_Library/Class/CDC/Src/usbd_cdc.c **** 
 526:Middlewares/ST/STM32_USB_Device_Library/Class/CDC/Src/usbd_cdc.c ****   return (uint8_t)ret;
 834              		.loc 1 526 10
 835 01ae FB7D     		ldrb	r3, [r7, #23]	@ zero_extendqisi2
 836              	.L39:
 527:Middlewares/ST/STM32_USB_Device_Library/Class/CDC/Src/usbd_cdc.c **** }
 837              		.loc 1 527 1
 838 01b0 1846     		mov	r0, r3
 839 01b2 1837     		adds	r7, r7, #24
 840              	.LCFI13:
 841              		.cfi_def_cfa_offset 8
 842 01b4 BD46     		mov	sp, r7
 843              	.LCFI14:
 844              		.cfi_def_cfa_register 13
 845              		@ sp needed
 846 01b6 80BD     		pop	{r7, pc}
 847              		.cfi_endproc
 848              	.LFE150:
 850              		.section	.text.USBD_CDC_DataIn,"ax",%progbits
 851              		.align	1
 852              		.syntax unified
 853              		.thumb
 854              		.thumb_func
 856              	USBD_CDC_DataIn:
 857              	.LFB151:
 528:Middlewares/ST/STM32_USB_Device_Library/Class/CDC/Src/usbd_cdc.c **** 
 529:Middlewares/ST/STM32_USB_Device_Library/Class/CDC/Src/usbd_cdc.c **** /**
 530:Middlewares/ST/STM32_USB_Device_Library/Class/CDC/Src/usbd_cdc.c ****   * @brief  USBD_CDC_DataIn
 531:Middlewares/ST/STM32_USB_Device_Library/Class/CDC/Src/usbd_cdc.c ****   *         Data sent on non-control IN endpoint
 532:Middlewares/ST/STM32_USB_Device_Library/Class/CDC/Src/usbd_cdc.c ****   * @param  pdev: device instance
 533:Middlewares/ST/STM32_USB_Device_Library/Class/CDC/Src/usbd_cdc.c ****   * @param  epnum: endpoint number
 534:Middlewares/ST/STM32_USB_Device_Library/Class/CDC/Src/usbd_cdc.c ****   * @retval status
 535:Middlewares/ST/STM32_USB_Device_Library/Class/CDC/Src/usbd_cdc.c ****   */
 536:Middlewares/ST/STM32_USB_Device_Library/Class/CDC/Src/usbd_cdc.c **** static uint8_t USBD_CDC_DataIn(USBD_HandleTypeDef *pdev, uint8_t epnum)
 537:Middlewares/ST/STM32_USB_Device_Library/Class/CDC/Src/usbd_cdc.c **** {
 858              		.loc 1 537 1
 859              		.cfi_startproc
 860              		@ args = 0, pretend = 0, frame = 16
 861              		@ frame_needed = 1, uses_anonymous_args = 0
 862 0000 80B5     		push	{r7, lr}
 863              	.LCFI15:
 864              		.cfi_def_cfa_offset 8
 865              		.cfi_offset 7, -8
 866              		.cfi_offset 14, -4
 867 0002 84B0     		sub	sp, sp, #16
 868              	.LCFI16:
 869              		.cfi_def_cfa_offset 24
ARM GAS  C:\Users\Godwin\AppData\Local\Temp\ccIOrPOQ.s 			page 26


 870 0004 00AF     		add	r7, sp, #0
 871              	.LCFI17:
 872              		.cfi_def_cfa_register 7
 873 0006 7860     		str	r0, [r7, #4]
 874 0008 0B46     		mov	r3, r1
 875 000a FB70     		strb	r3, [r7, #3]
 538:Middlewares/ST/STM32_USB_Device_Library/Class/CDC/Src/usbd_cdc.c ****   USBD_CDC_HandleTypeDef *hcdc;
 539:Middlewares/ST/STM32_USB_Device_Library/Class/CDC/Src/usbd_cdc.c ****   PCD_HandleTypeDef *hpcd = (PCD_HandleTypeDef *)pdev->pData;
 876              		.loc 1 539 22
 877 000c 7B68     		ldr	r3, [r7, #4]
 878 000e D3F8C832 		ldr	r3, [r3, #712]
 879 0012 FB60     		str	r3, [r7, #12]
 540:Middlewares/ST/STM32_USB_Device_Library/Class/CDC/Src/usbd_cdc.c **** 
 541:Middlewares/ST/STM32_USB_Device_Library/Class/CDC/Src/usbd_cdc.c ****   if (pdev->pClassDataCmsit[pdev->classId] == NULL)
 880              		.loc 1 541 33
 881 0014 7B68     		ldr	r3, [r7, #4]
 882 0016 D3F8D422 		ldr	r2, [r3, #724]
 883              		.loc 1 541 28
 884 001a 7B68     		ldr	r3, [r7, #4]
 885 001c B032     		adds	r2, r2, #176
 886 001e 53F82230 		ldr	r3, [r3, r2, lsl #2]
 887              		.loc 1 541 6
 888 0022 002B     		cmp	r3, #0
 889 0024 01D1     		bne	.L43
 542:Middlewares/ST/STM32_USB_Device_Library/Class/CDC/Src/usbd_cdc.c ****   {
 543:Middlewares/ST/STM32_USB_Device_Library/Class/CDC/Src/usbd_cdc.c ****     return (uint8_t)USBD_FAIL;
 890              		.loc 1 543 12
 891 0026 0323     		movs	r3, #3
 892 0028 65E0     		b	.L44
 893              	.L43:
 544:Middlewares/ST/STM32_USB_Device_Library/Class/CDC/Src/usbd_cdc.c ****   }
 545:Middlewares/ST/STM32_USB_Device_Library/Class/CDC/Src/usbd_cdc.c **** 
 546:Middlewares/ST/STM32_USB_Device_Library/Class/CDC/Src/usbd_cdc.c ****   hcdc = (USBD_CDC_HandleTypeDef *)pdev->pClassDataCmsit[pdev->classId];
 894              		.loc 1 546 62
 895 002a 7B68     		ldr	r3, [r7, #4]
 896 002c D3F8D422 		ldr	r2, [r3, #724]
 897              		.loc 1 546 8
 898 0030 7B68     		ldr	r3, [r7, #4]
 899 0032 B032     		adds	r2, r2, #176
 900 0034 53F82230 		ldr	r3, [r3, r2, lsl #2]
 901 0038 BB60     		str	r3, [r7, #8]
 547:Middlewares/ST/STM32_USB_Device_Library/Class/CDC/Src/usbd_cdc.c **** 
 548:Middlewares/ST/STM32_USB_Device_Library/Class/CDC/Src/usbd_cdc.c ****   if ((pdev->ep_in[epnum & 0xFU].total_length > 0U) &&
 902              		.loc 1 548 26
 903 003a FB78     		ldrb	r3, [r7, #3]	@ zero_extendqisi2
 904 003c 03F00F02 		and	r2, r3, #15
 905              		.loc 1 548 33
 906 0040 7968     		ldr	r1, [r7, #4]
 907 0042 1346     		mov	r3, r2
 908 0044 9B00     		lsls	r3, r3, #2
 909 0046 1344     		add	r3, r3, r2
 910 0048 9B00     		lsls	r3, r3, #2
 911 004a 0B44     		add	r3, r3, r1
 912 004c 1833     		adds	r3, r3, #24
 913 004e 1B68     		ldr	r3, [r3]
 914              		.loc 1 548 6
 915 0050 002B     		cmp	r3, #0
ARM GAS  C:\Users\Godwin\AppData\Local\Temp\ccIOrPOQ.s 			page 27


 916 0052 2FD0     		beq	.L45
 549:Middlewares/ST/STM32_USB_Device_Library/Class/CDC/Src/usbd_cdc.c ****       ((pdev->ep_in[epnum & 0xFU].total_length % hpcd->IN_ep[epnum & 0xFU].maxpacket) == 0U))
 917              		.loc 1 549 27
 918 0054 FB78     		ldrb	r3, [r7, #3]	@ zero_extendqisi2
 919 0056 03F00F02 		and	r2, r3, #15
 920              		.loc 1 549 34
 921 005a 7968     		ldr	r1, [r7, #4]
 922 005c 1346     		mov	r3, r2
 923 005e 9B00     		lsls	r3, r3, #2
 924 0060 1344     		add	r3, r3, r2
 925 0062 9B00     		lsls	r3, r3, #2
 926 0064 0B44     		add	r3, r3, r1
 927 0066 1833     		adds	r3, r3, #24
 928 0068 1A68     		ldr	r2, [r3]
 929              		.loc 1 549 68
 930 006a FB78     		ldrb	r3, [r7, #3]	@ zero_extendqisi2
 931 006c 03F00F01 		and	r1, r3, #15
 932              		.loc 1 549 75
 933 0070 F868     		ldr	r0, [r7, #12]
 934 0072 0B46     		mov	r3, r1
 935 0074 DB00     		lsls	r3, r3, #3
 936 0076 0B44     		add	r3, r3, r1
 937 0078 9B00     		lsls	r3, r3, #2
 938 007a 0344     		add	r3, r3, r0
 939 007c 1C33     		adds	r3, r3, #28
 940 007e 1B68     		ldr	r3, [r3]
 941              		.loc 1 549 48
 942 0080 B2FBF3F1 		udiv	r1, r2, r3
 943 0084 01FB03F3 		mul	r3, r1, r3
 944 0088 D31A     		subs	r3, r2, r3
 548:Middlewares/ST/STM32_USB_Device_Library/Class/CDC/Src/usbd_cdc.c ****       ((pdev->ep_in[epnum & 0xFU].total_length % hpcd->IN_ep[epnum & 0xFU].maxpacket) == 0U))
 945              		.loc 1 548 53 discriminator 1
 946 008a 002B     		cmp	r3, #0
 947 008c 12D1     		bne	.L45
 550:Middlewares/ST/STM32_USB_Device_Library/Class/CDC/Src/usbd_cdc.c ****   {
 551:Middlewares/ST/STM32_USB_Device_Library/Class/CDC/Src/usbd_cdc.c ****     /* Update the packet total length */
 552:Middlewares/ST/STM32_USB_Device_Library/Class/CDC/Src/usbd_cdc.c ****     pdev->ep_in[epnum & 0xFU].total_length = 0U;
 948              		.loc 1 552 23
 949 008e FB78     		ldrb	r3, [r7, #3]	@ zero_extendqisi2
 950 0090 03F00F02 		and	r2, r3, #15
 951              		.loc 1 552 44
 952 0094 7968     		ldr	r1, [r7, #4]
 953 0096 1346     		mov	r3, r2
 954 0098 9B00     		lsls	r3, r3, #2
 955 009a 1344     		add	r3, r3, r2
 956 009c 9B00     		lsls	r3, r3, #2
 957 009e 0B44     		add	r3, r3, r1
 958 00a0 1833     		adds	r3, r3, #24
 959 00a2 0022     		movs	r2, #0
 960 00a4 1A60     		str	r2, [r3]
 553:Middlewares/ST/STM32_USB_Device_Library/Class/CDC/Src/usbd_cdc.c **** 
 554:Middlewares/ST/STM32_USB_Device_Library/Class/CDC/Src/usbd_cdc.c ****     /* Send ZLP */
 555:Middlewares/ST/STM32_USB_Device_Library/Class/CDC/Src/usbd_cdc.c ****     (void)USBD_LL_Transmit(pdev, epnum, NULL, 0U);
 961              		.loc 1 555 11
 962 00a6 F978     		ldrb	r1, [r7, #3]	@ zero_extendqisi2
 963 00a8 0023     		movs	r3, #0
 964 00aa 0022     		movs	r2, #0
ARM GAS  C:\Users\Godwin\AppData\Local\Temp\ccIOrPOQ.s 			page 28


 965 00ac 7868     		ldr	r0, [r7, #4]
 966 00ae FFF7FEFF 		bl	USBD_LL_Transmit
 967              		.loc 1 555 5
 968 00b2 1FE0     		b	.L46
 969              	.L45:
 556:Middlewares/ST/STM32_USB_Device_Library/Class/CDC/Src/usbd_cdc.c ****   }
 557:Middlewares/ST/STM32_USB_Device_Library/Class/CDC/Src/usbd_cdc.c ****   else
 558:Middlewares/ST/STM32_USB_Device_Library/Class/CDC/Src/usbd_cdc.c ****   {
 559:Middlewares/ST/STM32_USB_Device_Library/Class/CDC/Src/usbd_cdc.c ****     hcdc->TxState = 0U;
 970              		.loc 1 559 19
 971 00b4 BB68     		ldr	r3, [r7, #8]
 972 00b6 0022     		movs	r2, #0
 973 00b8 C3F81422 		str	r2, [r3, #532]
 560:Middlewares/ST/STM32_USB_Device_Library/Class/CDC/Src/usbd_cdc.c **** 
 561:Middlewares/ST/STM32_USB_Device_Library/Class/CDC/Src/usbd_cdc.c ****     if (((USBD_CDC_ItfTypeDef *)pdev->pUserData[pdev->classId])->TransmitCplt != NULL)
 974              		.loc 1 561 53
 975 00bc 7B68     		ldr	r3, [r7, #4]
 976 00be D3F8D432 		ldr	r3, [r3, #724]
 977              		.loc 1 561 48
 978 00c2 7A68     		ldr	r2, [r7, #4]
 979 00c4 B033     		adds	r3, r3, #176
 980 00c6 9B00     		lsls	r3, r3, #2
 981 00c8 1344     		add	r3, r3, r2
 982 00ca 5B68     		ldr	r3, [r3, #4]
 983              		.loc 1 561 64
 984 00cc 1B69     		ldr	r3, [r3, #16]
 985              		.loc 1 561 8
 986 00ce 002B     		cmp	r3, #0
 987 00d0 10D0     		beq	.L46
 562:Middlewares/ST/STM32_USB_Device_Library/Class/CDC/Src/usbd_cdc.c ****     {
 563:Middlewares/ST/STM32_USB_Device_Library/Class/CDC/Src/usbd_cdc.c ****       ((USBD_CDC_ItfTypeDef *)pdev->pUserData[pdev->classId])->TransmitCplt(hcdc->TxBuffer, &hcdc->
 988              		.loc 1 563 51
 989 00d2 7B68     		ldr	r3, [r7, #4]
 990 00d4 D3F8D432 		ldr	r3, [r3, #724]
 991              		.loc 1 563 46
 992 00d8 7A68     		ldr	r2, [r7, #4]
 993 00da B033     		adds	r3, r3, #176
 994 00dc 9B00     		lsls	r3, r3, #2
 995 00de 1344     		add	r3, r3, r2
 996 00e0 5B68     		ldr	r3, [r3, #4]
 997              		.loc 1 563 62
 998 00e2 1B69     		ldr	r3, [r3, #16]
 999              		.loc 1 563 8
 1000 00e4 BA68     		ldr	r2, [r7, #8]
 1001 00e6 D2F80802 		ldr	r0, [r2, #520]
 1002 00ea BA68     		ldr	r2, [r7, #8]
 1003 00ec 02F50471 		add	r1, r2, #528
 1004 00f0 FA78     		ldrb	r2, [r7, #3]	@ zero_extendqisi2
 1005 00f2 9847     		blx	r3
 1006              	.LVL4:
 1007              	.L46:
 564:Middlewares/ST/STM32_USB_Device_Library/Class/CDC/Src/usbd_cdc.c ****     }
 565:Middlewares/ST/STM32_USB_Device_Library/Class/CDC/Src/usbd_cdc.c ****   }
 566:Middlewares/ST/STM32_USB_Device_Library/Class/CDC/Src/usbd_cdc.c **** 
 567:Middlewares/ST/STM32_USB_Device_Library/Class/CDC/Src/usbd_cdc.c ****   return (uint8_t)USBD_OK;
 1008              		.loc 1 567 10
 1009 00f4 0023     		movs	r3, #0
ARM GAS  C:\Users\Godwin\AppData\Local\Temp\ccIOrPOQ.s 			page 29


 1010              	.L44:
 568:Middlewares/ST/STM32_USB_Device_Library/Class/CDC/Src/usbd_cdc.c **** }
 1011              		.loc 1 568 1
 1012 00f6 1846     		mov	r0, r3
 1013 00f8 1037     		adds	r7, r7, #16
 1014              	.LCFI18:
 1015              		.cfi_def_cfa_offset 8
 1016 00fa BD46     		mov	sp, r7
 1017              	.LCFI19:
 1018              		.cfi_def_cfa_register 13
 1019              		@ sp needed
 1020 00fc 80BD     		pop	{r7, pc}
 1021              		.cfi_endproc
 1022              	.LFE151:
 1024              		.section	.text.USBD_CDC_DataOut,"ax",%progbits
 1025              		.align	1
 1026              		.syntax unified
 1027              		.thumb
 1028              		.thumb_func
 1030              	USBD_CDC_DataOut:
 1031              	.LFB152:
 569:Middlewares/ST/STM32_USB_Device_Library/Class/CDC/Src/usbd_cdc.c **** 
 570:Middlewares/ST/STM32_USB_Device_Library/Class/CDC/Src/usbd_cdc.c **** /**
 571:Middlewares/ST/STM32_USB_Device_Library/Class/CDC/Src/usbd_cdc.c ****   * @brief  USBD_CDC_DataOut
 572:Middlewares/ST/STM32_USB_Device_Library/Class/CDC/Src/usbd_cdc.c ****   *         Data received on non-control Out endpoint
 573:Middlewares/ST/STM32_USB_Device_Library/Class/CDC/Src/usbd_cdc.c ****   * @param  pdev: device instance
 574:Middlewares/ST/STM32_USB_Device_Library/Class/CDC/Src/usbd_cdc.c ****   * @param  epnum: endpoint number
 575:Middlewares/ST/STM32_USB_Device_Library/Class/CDC/Src/usbd_cdc.c ****   * @retval status
 576:Middlewares/ST/STM32_USB_Device_Library/Class/CDC/Src/usbd_cdc.c ****   */
 577:Middlewares/ST/STM32_USB_Device_Library/Class/CDC/Src/usbd_cdc.c **** static uint8_t USBD_CDC_DataOut(USBD_HandleTypeDef *pdev, uint8_t epnum)
 578:Middlewares/ST/STM32_USB_Device_Library/Class/CDC/Src/usbd_cdc.c **** {
 1032              		.loc 1 578 1
 1033              		.cfi_startproc
 1034              		@ args = 0, pretend = 0, frame = 16
 1035              		@ frame_needed = 1, uses_anonymous_args = 0
 1036 0000 80B5     		push	{r7, lr}
 1037              	.LCFI20:
 1038              		.cfi_def_cfa_offset 8
 1039              		.cfi_offset 7, -8
 1040              		.cfi_offset 14, -4
 1041 0002 84B0     		sub	sp, sp, #16
 1042              	.LCFI21:
 1043              		.cfi_def_cfa_offset 24
 1044 0004 00AF     		add	r7, sp, #0
 1045              	.LCFI22:
 1046              		.cfi_def_cfa_register 7
 1047 0006 7860     		str	r0, [r7, #4]
 1048 0008 0B46     		mov	r3, r1
 1049 000a FB70     		strb	r3, [r7, #3]
 579:Middlewares/ST/STM32_USB_Device_Library/Class/CDC/Src/usbd_cdc.c ****   USBD_CDC_HandleTypeDef *hcdc = (USBD_CDC_HandleTypeDef *)pdev->pClassDataCmsit[pdev->classId];
 1050              		.loc 1 579 86
 1051 000c 7B68     		ldr	r3, [r7, #4]
 1052 000e D3F8D422 		ldr	r2, [r3, #724]
 1053              		.loc 1 579 27
 1054 0012 7B68     		ldr	r3, [r7, #4]
 1055 0014 B032     		adds	r2, r2, #176
 1056 0016 53F82230 		ldr	r3, [r3, r2, lsl #2]
ARM GAS  C:\Users\Godwin\AppData\Local\Temp\ccIOrPOQ.s 			page 30


 1057 001a FB60     		str	r3, [r7, #12]
 580:Middlewares/ST/STM32_USB_Device_Library/Class/CDC/Src/usbd_cdc.c **** 
 581:Middlewares/ST/STM32_USB_Device_Library/Class/CDC/Src/usbd_cdc.c ****   if (pdev->pClassDataCmsit[pdev->classId] == NULL)
 1058              		.loc 1 581 33
 1059 001c 7B68     		ldr	r3, [r7, #4]
 1060 001e D3F8D422 		ldr	r2, [r3, #724]
 1061              		.loc 1 581 28
 1062 0022 7B68     		ldr	r3, [r7, #4]
 1063 0024 B032     		adds	r2, r2, #176
 1064 0026 53F82230 		ldr	r3, [r3, r2, lsl #2]
 1065              		.loc 1 581 6
 1066 002a 002B     		cmp	r3, #0
 1067 002c 01D1     		bne	.L48
 582:Middlewares/ST/STM32_USB_Device_Library/Class/CDC/Src/usbd_cdc.c ****   {
 583:Middlewares/ST/STM32_USB_Device_Library/Class/CDC/Src/usbd_cdc.c ****     return (uint8_t)USBD_FAIL;
 1068              		.loc 1 583 12
 1069 002e 0323     		movs	r3, #3
 1070 0030 1AE0     		b	.L49
 1071              	.L48:
 584:Middlewares/ST/STM32_USB_Device_Library/Class/CDC/Src/usbd_cdc.c ****   }
 585:Middlewares/ST/STM32_USB_Device_Library/Class/CDC/Src/usbd_cdc.c **** 
 586:Middlewares/ST/STM32_USB_Device_Library/Class/CDC/Src/usbd_cdc.c ****   /* Get the received data length */
 587:Middlewares/ST/STM32_USB_Device_Library/Class/CDC/Src/usbd_cdc.c ****   hcdc->RxLength = USBD_LL_GetRxDataSize(pdev, epnum);
 1072              		.loc 1 587 20
 1073 0032 FB78     		ldrb	r3, [r7, #3]	@ zero_extendqisi2
 1074 0034 1946     		mov	r1, r3
 1075 0036 7868     		ldr	r0, [r7, #4]
 1076 0038 FFF7FEFF 		bl	USBD_LL_GetRxDataSize
 1077 003c 0246     		mov	r2, r0
 1078              		.loc 1 587 18 discriminator 1
 1079 003e FB68     		ldr	r3, [r7, #12]
 1080 0040 C3F80C22 		str	r2, [r3, #524]
 588:Middlewares/ST/STM32_USB_Device_Library/Class/CDC/Src/usbd_cdc.c **** 
 589:Middlewares/ST/STM32_USB_Device_Library/Class/CDC/Src/usbd_cdc.c ****   /* USB data will be immediately processed, this allow next USB traffic being
 590:Middlewares/ST/STM32_USB_Device_Library/Class/CDC/Src/usbd_cdc.c ****   NAKed till the end of the application Xfer */
 591:Middlewares/ST/STM32_USB_Device_Library/Class/CDC/Src/usbd_cdc.c **** 
 592:Middlewares/ST/STM32_USB_Device_Library/Class/CDC/Src/usbd_cdc.c ****   ((USBD_CDC_ItfTypeDef *)pdev->pUserData[pdev->classId])->Receive(hcdc->RxBuffer, &hcdc->RxLength)
 1081              		.loc 1 592 47
 1082 0044 7B68     		ldr	r3, [r7, #4]
 1083 0046 D3F8D432 		ldr	r3, [r3, #724]
 1084              		.loc 1 592 42
 1085 004a 7A68     		ldr	r2, [r7, #4]
 1086 004c B033     		adds	r3, r3, #176
 1087 004e 9B00     		lsls	r3, r3, #2
 1088 0050 1344     		add	r3, r3, r2
 1089 0052 5B68     		ldr	r3, [r3, #4]
 1090              		.loc 1 592 58
 1091 0054 DB68     		ldr	r3, [r3, #12]
 1092              		.loc 1 592 4
 1093 0056 FA68     		ldr	r2, [r7, #12]
 1094 0058 D2F80402 		ldr	r0, [r2, #516]
 1095 005c FA68     		ldr	r2, [r7, #12]
 1096 005e 02F50372 		add	r2, r2, #524
 1097 0062 1146     		mov	r1, r2
 1098 0064 9847     		blx	r3
 1099              	.LVL5:
 593:Middlewares/ST/STM32_USB_Device_Library/Class/CDC/Src/usbd_cdc.c **** 
ARM GAS  C:\Users\Godwin\AppData\Local\Temp\ccIOrPOQ.s 			page 31


 594:Middlewares/ST/STM32_USB_Device_Library/Class/CDC/Src/usbd_cdc.c ****   return (uint8_t)USBD_OK;
 1100              		.loc 1 594 10
 1101 0066 0023     		movs	r3, #0
 1102              	.L49:
 595:Middlewares/ST/STM32_USB_Device_Library/Class/CDC/Src/usbd_cdc.c **** }
 1103              		.loc 1 595 1
 1104 0068 1846     		mov	r0, r3
 1105 006a 1037     		adds	r7, r7, #16
 1106              	.LCFI23:
 1107              		.cfi_def_cfa_offset 8
 1108 006c BD46     		mov	sp, r7
 1109              	.LCFI24:
 1110              		.cfi_def_cfa_register 13
 1111              		@ sp needed
 1112 006e 80BD     		pop	{r7, pc}
 1113              		.cfi_endproc
 1114              	.LFE152:
 1116              		.section	.text.USBD_CDC_EP0_RxReady,"ax",%progbits
 1117              		.align	1
 1118              		.syntax unified
 1119              		.thumb
 1120              		.thumb_func
 1122              	USBD_CDC_EP0_RxReady:
 1123              	.LFB153:
 596:Middlewares/ST/STM32_USB_Device_Library/Class/CDC/Src/usbd_cdc.c **** 
 597:Middlewares/ST/STM32_USB_Device_Library/Class/CDC/Src/usbd_cdc.c **** /**
 598:Middlewares/ST/STM32_USB_Device_Library/Class/CDC/Src/usbd_cdc.c ****   * @brief  USBD_CDC_EP0_RxReady
 599:Middlewares/ST/STM32_USB_Device_Library/Class/CDC/Src/usbd_cdc.c ****   *         Handle EP0 Rx Ready event
 600:Middlewares/ST/STM32_USB_Device_Library/Class/CDC/Src/usbd_cdc.c ****   * @param  pdev: device instance
 601:Middlewares/ST/STM32_USB_Device_Library/Class/CDC/Src/usbd_cdc.c ****   * @retval status
 602:Middlewares/ST/STM32_USB_Device_Library/Class/CDC/Src/usbd_cdc.c ****   */
 603:Middlewares/ST/STM32_USB_Device_Library/Class/CDC/Src/usbd_cdc.c **** static uint8_t USBD_CDC_EP0_RxReady(USBD_HandleTypeDef *pdev)
 604:Middlewares/ST/STM32_USB_Device_Library/Class/CDC/Src/usbd_cdc.c **** {
 1124              		.loc 1 604 1
 1125              		.cfi_startproc
 1126              		@ args = 0, pretend = 0, frame = 16
 1127              		@ frame_needed = 1, uses_anonymous_args = 0
 1128 0000 80B5     		push	{r7, lr}
 1129              	.LCFI25:
 1130              		.cfi_def_cfa_offset 8
 1131              		.cfi_offset 7, -8
 1132              		.cfi_offset 14, -4
 1133 0002 84B0     		sub	sp, sp, #16
 1134              	.LCFI26:
 1135              		.cfi_def_cfa_offset 24
 1136 0004 00AF     		add	r7, sp, #0
 1137              	.LCFI27:
 1138              		.cfi_def_cfa_register 7
 1139 0006 7860     		str	r0, [r7, #4]
 605:Middlewares/ST/STM32_USB_Device_Library/Class/CDC/Src/usbd_cdc.c ****   USBD_CDC_HandleTypeDef *hcdc = (USBD_CDC_HandleTypeDef *)pdev->pClassDataCmsit[pdev->classId];
 1140              		.loc 1 605 86
 1141 0008 7B68     		ldr	r3, [r7, #4]
 1142 000a D3F8D422 		ldr	r2, [r3, #724]
 1143              		.loc 1 605 27
 1144 000e 7B68     		ldr	r3, [r7, #4]
 1145 0010 B032     		adds	r2, r2, #176
 1146 0012 53F82230 		ldr	r3, [r3, r2, lsl #2]
ARM GAS  C:\Users\Godwin\AppData\Local\Temp\ccIOrPOQ.s 			page 32


 1147 0016 FB60     		str	r3, [r7, #12]
 606:Middlewares/ST/STM32_USB_Device_Library/Class/CDC/Src/usbd_cdc.c **** 
 607:Middlewares/ST/STM32_USB_Device_Library/Class/CDC/Src/usbd_cdc.c ****   if (hcdc == NULL)
 1148              		.loc 1 607 6
 1149 0018 FB68     		ldr	r3, [r7, #12]
 1150 001a 002B     		cmp	r3, #0
 1151 001c 01D1     		bne	.L51
 608:Middlewares/ST/STM32_USB_Device_Library/Class/CDC/Src/usbd_cdc.c ****   {
 609:Middlewares/ST/STM32_USB_Device_Library/Class/CDC/Src/usbd_cdc.c ****     return (uint8_t)USBD_FAIL;
 1152              		.loc 1 609 12
 1153 001e 0323     		movs	r3, #3
 1154 0020 24E0     		b	.L52
 1155              	.L51:
 610:Middlewares/ST/STM32_USB_Device_Library/Class/CDC/Src/usbd_cdc.c ****   }
 611:Middlewares/ST/STM32_USB_Device_Library/Class/CDC/Src/usbd_cdc.c **** 
 612:Middlewares/ST/STM32_USB_Device_Library/Class/CDC/Src/usbd_cdc.c ****   if ((pdev->pUserData[pdev->classId] != NULL) && (hcdc->CmdOpCode != 0xFFU))
 1156              		.loc 1 612 28
 1157 0022 7B68     		ldr	r3, [r7, #4]
 1158 0024 D3F8D432 		ldr	r3, [r3, #724]
 1159              		.loc 1 612 23
 1160 0028 7A68     		ldr	r2, [r7, #4]
 1161 002a B033     		adds	r3, r3, #176
 1162 002c 9B00     		lsls	r3, r3, #2
 1163 002e 1344     		add	r3, r3, r2
 1164 0030 5B68     		ldr	r3, [r3, #4]
 1165              		.loc 1 612 6
 1166 0032 002B     		cmp	r3, #0
 1167 0034 19D0     		beq	.L53
 1168              		.loc 1 612 56 discriminator 1
 1169 0036 FB68     		ldr	r3, [r7, #12]
 1170 0038 93F80032 		ldrb	r3, [r3, #512]	@ zero_extendqisi2
 1171              		.loc 1 612 48 discriminator 1
 1172 003c FF2B     		cmp	r3, #255
 1173 003e 14D0     		beq	.L53
 613:Middlewares/ST/STM32_USB_Device_Library/Class/CDC/Src/usbd_cdc.c ****   {
 614:Middlewares/ST/STM32_USB_Device_Library/Class/CDC/Src/usbd_cdc.c ****     ((USBD_CDC_ItfTypeDef *)pdev->pUserData[pdev->classId])->Control(hcdc->CmdOpCode,
 1174              		.loc 1 614 49
 1175 0040 7B68     		ldr	r3, [r7, #4]
 1176 0042 D3F8D432 		ldr	r3, [r3, #724]
 1177              		.loc 1 614 44
 1178 0046 7A68     		ldr	r2, [r7, #4]
 1179 0048 B033     		adds	r3, r3, #176
 1180 004a 9B00     		lsls	r3, r3, #2
 1181 004c 1344     		add	r3, r3, r2
 1182 004e 5B68     		ldr	r3, [r3, #4]
 1183              		.loc 1 614 60
 1184 0050 9B68     		ldr	r3, [r3, #8]
 1185              		.loc 1 614 6
 1186 0052 FA68     		ldr	r2, [r7, #12]
 1187 0054 92F80002 		ldrb	r0, [r2, #512]	@ zero_extendqisi2
 615:Middlewares/ST/STM32_USB_Device_Library/Class/CDC/Src/usbd_cdc.c ****                                                                      (uint8_t *)hcdc->data,
 1188              		.loc 1 615 81
 1189 0058 F968     		ldr	r1, [r7, #12]
 616:Middlewares/ST/STM32_USB_Device_Library/Class/CDC/Src/usbd_cdc.c ****                                                                      (uint16_t)hcdc->CmdLength);
 1190              		.loc 1 616 84
 1191 005a FA68     		ldr	r2, [r7, #12]
 1192 005c 92F80122 		ldrb	r2, [r2, #513]	@ zero_extendqisi2
ARM GAS  C:\Users\Godwin\AppData\Local\Temp\ccIOrPOQ.s 			page 33


 614:Middlewares/ST/STM32_USB_Device_Library/Class/CDC/Src/usbd_cdc.c ****                                                                      (uint8_t *)hcdc->data,
 1193              		.loc 1 614 6
 1194 0060 9847     		blx	r3
 1195              	.LVL6:
 617:Middlewares/ST/STM32_USB_Device_Library/Class/CDC/Src/usbd_cdc.c ****     hcdc->CmdOpCode = 0xFFU;
 1196              		.loc 1 617 21
 1197 0062 FB68     		ldr	r3, [r7, #12]
 1198 0064 FF22     		movs	r2, #255
 1199 0066 83F80022 		strb	r2, [r3, #512]
 1200              	.L53:
 618:Middlewares/ST/STM32_USB_Device_Library/Class/CDC/Src/usbd_cdc.c ****   }
 619:Middlewares/ST/STM32_USB_Device_Library/Class/CDC/Src/usbd_cdc.c **** 
 620:Middlewares/ST/STM32_USB_Device_Library/Class/CDC/Src/usbd_cdc.c ****   return (uint8_t)USBD_OK;
 1201              		.loc 1 620 10
 1202 006a 0023     		movs	r3, #0
 1203              	.L52:
 621:Middlewares/ST/STM32_USB_Device_Library/Class/CDC/Src/usbd_cdc.c **** }
 1204              		.loc 1 621 1
 1205 006c 1846     		mov	r0, r3
 1206 006e 1037     		adds	r7, r7, #16
 1207              	.LCFI28:
 1208              		.cfi_def_cfa_offset 8
 1209 0070 BD46     		mov	sp, r7
 1210              	.LCFI29:
 1211              		.cfi_def_cfa_register 13
 1212              		@ sp needed
 1213 0072 80BD     		pop	{r7, pc}
 1214              		.cfi_endproc
 1215              	.LFE153:
 1217              		.section	.text.USBD_CDC_GetFSCfgDesc,"ax",%progbits
 1218              		.align	1
 1219              		.syntax unified
 1220              		.thumb
 1221              		.thumb_func
 1223              	USBD_CDC_GetFSCfgDesc:
 1224              	.LFB154:
 622:Middlewares/ST/STM32_USB_Device_Library/Class/CDC/Src/usbd_cdc.c **** #ifndef USE_USBD_COMPOSITE
 623:Middlewares/ST/STM32_USB_Device_Library/Class/CDC/Src/usbd_cdc.c **** /**
 624:Middlewares/ST/STM32_USB_Device_Library/Class/CDC/Src/usbd_cdc.c ****   * @brief  USBD_CDC_GetFSCfgDesc
 625:Middlewares/ST/STM32_USB_Device_Library/Class/CDC/Src/usbd_cdc.c ****   *         Return configuration descriptor
 626:Middlewares/ST/STM32_USB_Device_Library/Class/CDC/Src/usbd_cdc.c ****   * @param  length : pointer data length
 627:Middlewares/ST/STM32_USB_Device_Library/Class/CDC/Src/usbd_cdc.c ****   * @retval pointer to descriptor buffer
 628:Middlewares/ST/STM32_USB_Device_Library/Class/CDC/Src/usbd_cdc.c ****   */
 629:Middlewares/ST/STM32_USB_Device_Library/Class/CDC/Src/usbd_cdc.c **** static uint8_t *USBD_CDC_GetFSCfgDesc(uint16_t *length)
 630:Middlewares/ST/STM32_USB_Device_Library/Class/CDC/Src/usbd_cdc.c **** {
 1225              		.loc 1 630 1
 1226              		.cfi_startproc
 1227              		@ args = 0, pretend = 0, frame = 24
 1228              		@ frame_needed = 1, uses_anonymous_args = 0
 1229 0000 80B5     		push	{r7, lr}
 1230              	.LCFI30:
 1231              		.cfi_def_cfa_offset 8
 1232              		.cfi_offset 7, -8
 1233              		.cfi_offset 14, -4
 1234 0002 86B0     		sub	sp, sp, #24
 1235              	.LCFI31:
 1236              		.cfi_def_cfa_offset 32
ARM GAS  C:\Users\Godwin\AppData\Local\Temp\ccIOrPOQ.s 			page 34


 1237 0004 00AF     		add	r7, sp, #0
 1238              	.LCFI32:
 1239              		.cfi_def_cfa_register 7
 1240 0006 7860     		str	r0, [r7, #4]
 631:Middlewares/ST/STM32_USB_Device_Library/Class/CDC/Src/usbd_cdc.c ****   USBD_EpDescTypeDef *pEpCmdDesc = USBD_GetEpDesc(USBD_CDC_CfgDesc, CDC_CMD_EP);
 1241              		.loc 1 631 36
 1242 0008 8221     		movs	r1, #130
 1243 000a 1848     		ldr	r0, .L59
 1244 000c FFF7FEFF 		bl	USBD_GetEpDesc
 1245 0010 7861     		str	r0, [r7, #20]
 632:Middlewares/ST/STM32_USB_Device_Library/Class/CDC/Src/usbd_cdc.c ****   USBD_EpDescTypeDef *pEpOutDesc = USBD_GetEpDesc(USBD_CDC_CfgDesc, CDC_OUT_EP);
 1246              		.loc 1 632 36
 1247 0012 0121     		movs	r1, #1
 1248 0014 1548     		ldr	r0, .L59
 1249 0016 FFF7FEFF 		bl	USBD_GetEpDesc
 1250 001a 3861     		str	r0, [r7, #16]
 633:Middlewares/ST/STM32_USB_Device_Library/Class/CDC/Src/usbd_cdc.c ****   USBD_EpDescTypeDef *pEpInDesc = USBD_GetEpDesc(USBD_CDC_CfgDesc, CDC_IN_EP);
 1251              		.loc 1 633 35
 1252 001c 8121     		movs	r1, #129
 1253 001e 1348     		ldr	r0, .L59
 1254 0020 FFF7FEFF 		bl	USBD_GetEpDesc
 1255 0024 F860     		str	r0, [r7, #12]
 634:Middlewares/ST/STM32_USB_Device_Library/Class/CDC/Src/usbd_cdc.c **** 
 635:Middlewares/ST/STM32_USB_Device_Library/Class/CDC/Src/usbd_cdc.c ****   if (pEpCmdDesc != NULL)
 1256              		.loc 1 635 6
 1257 0026 7B69     		ldr	r3, [r7, #20]
 1258 0028 002B     		cmp	r3, #0
 1259 002a 02D0     		beq	.L55
 636:Middlewares/ST/STM32_USB_Device_Library/Class/CDC/Src/usbd_cdc.c ****   {
 637:Middlewares/ST/STM32_USB_Device_Library/Class/CDC/Src/usbd_cdc.c ****     pEpCmdDesc->bInterval = CDC_FS_BINTERVAL;
 1260              		.loc 1 637 27
 1261 002c 7B69     		ldr	r3, [r7, #20]
 1262 002e 1022     		movs	r2, #16
 1263 0030 9A71     		strb	r2, [r3, #6]
 1264              	.L55:
 638:Middlewares/ST/STM32_USB_Device_Library/Class/CDC/Src/usbd_cdc.c ****   }
 639:Middlewares/ST/STM32_USB_Device_Library/Class/CDC/Src/usbd_cdc.c **** 
 640:Middlewares/ST/STM32_USB_Device_Library/Class/CDC/Src/usbd_cdc.c ****   if (pEpOutDesc != NULL)
 1265              		.loc 1 640 6
 1266 0032 3B69     		ldr	r3, [r7, #16]
 1267 0034 002B     		cmp	r3, #0
 1268 0036 06D0     		beq	.L56
 641:Middlewares/ST/STM32_USB_Device_Library/Class/CDC/Src/usbd_cdc.c ****   {
 642:Middlewares/ST/STM32_USB_Device_Library/Class/CDC/Src/usbd_cdc.c ****     pEpOutDesc->wMaxPacketSize = CDC_DATA_FS_MAX_PACKET_SIZE;
 1269              		.loc 1 642 32
 1270 0038 3B69     		ldr	r3, [r7, #16]
 1271 003a 0022     		movs	r2, #0
 1272 003c 42F04002 		orr	r2, r2, #64
 1273 0040 1A71     		strb	r2, [r3, #4]
 1274 0042 0022     		movs	r2, #0
 1275 0044 5A71     		strb	r2, [r3, #5]
 1276              	.L56:
 643:Middlewares/ST/STM32_USB_Device_Library/Class/CDC/Src/usbd_cdc.c ****   }
 644:Middlewares/ST/STM32_USB_Device_Library/Class/CDC/Src/usbd_cdc.c **** 
 645:Middlewares/ST/STM32_USB_Device_Library/Class/CDC/Src/usbd_cdc.c ****   if (pEpInDesc != NULL)
 1277              		.loc 1 645 6
 1278 0046 FB68     		ldr	r3, [r7, #12]
ARM GAS  C:\Users\Godwin\AppData\Local\Temp\ccIOrPOQ.s 			page 35


 1279 0048 002B     		cmp	r3, #0
 1280 004a 06D0     		beq	.L57
 646:Middlewares/ST/STM32_USB_Device_Library/Class/CDC/Src/usbd_cdc.c ****   {
 647:Middlewares/ST/STM32_USB_Device_Library/Class/CDC/Src/usbd_cdc.c ****     pEpInDesc->wMaxPacketSize = CDC_DATA_FS_MAX_PACKET_SIZE;
 1281              		.loc 1 647 31
 1282 004c FB68     		ldr	r3, [r7, #12]
 1283 004e 0022     		movs	r2, #0
 1284 0050 42F04002 		orr	r2, r2, #64
 1285 0054 1A71     		strb	r2, [r3, #4]
 1286 0056 0022     		movs	r2, #0
 1287 0058 5A71     		strb	r2, [r3, #5]
 1288              	.L57:
 648:Middlewares/ST/STM32_USB_Device_Library/Class/CDC/Src/usbd_cdc.c ****   }
 649:Middlewares/ST/STM32_USB_Device_Library/Class/CDC/Src/usbd_cdc.c **** 
 650:Middlewares/ST/STM32_USB_Device_Library/Class/CDC/Src/usbd_cdc.c ****   *length = (uint16_t)sizeof(USBD_CDC_CfgDesc);
 1289              		.loc 1 650 11
 1290 005a 7B68     		ldr	r3, [r7, #4]
 1291 005c 4322     		movs	r2, #67
 1292 005e 1A80     		strh	r2, [r3]	@ movhi
 651:Middlewares/ST/STM32_USB_Device_Library/Class/CDC/Src/usbd_cdc.c ****   return USBD_CDC_CfgDesc;
 1293              		.loc 1 651 10
 1294 0060 024B     		ldr	r3, .L59
 652:Middlewares/ST/STM32_USB_Device_Library/Class/CDC/Src/usbd_cdc.c **** }
 1295              		.loc 1 652 1
 1296 0062 1846     		mov	r0, r3
 1297 0064 1837     		adds	r7, r7, #24
 1298              	.LCFI33:
 1299              		.cfi_def_cfa_offset 8
 1300 0066 BD46     		mov	sp, r7
 1301              	.LCFI34:
 1302              		.cfi_def_cfa_register 13
 1303              		@ sp needed
 1304 0068 80BD     		pop	{r7, pc}
 1305              	.L60:
 1306 006a 00BF     		.align	2
 1307              	.L59:
 1308 006c 00000000 		.word	USBD_CDC_CfgDesc
 1309              		.cfi_endproc
 1310              	.LFE154:
 1312              		.section	.text.USBD_CDC_GetHSCfgDesc,"ax",%progbits
 1313              		.align	1
 1314              		.syntax unified
 1315              		.thumb
 1316              		.thumb_func
 1318              	USBD_CDC_GetHSCfgDesc:
 1319              	.LFB155:
 653:Middlewares/ST/STM32_USB_Device_Library/Class/CDC/Src/usbd_cdc.c **** 
 654:Middlewares/ST/STM32_USB_Device_Library/Class/CDC/Src/usbd_cdc.c **** /**
 655:Middlewares/ST/STM32_USB_Device_Library/Class/CDC/Src/usbd_cdc.c ****   * @brief  USBD_CDC_GetHSCfgDesc
 656:Middlewares/ST/STM32_USB_Device_Library/Class/CDC/Src/usbd_cdc.c ****   *         Return configuration descriptor
 657:Middlewares/ST/STM32_USB_Device_Library/Class/CDC/Src/usbd_cdc.c ****   * @param  length : pointer data length
 658:Middlewares/ST/STM32_USB_Device_Library/Class/CDC/Src/usbd_cdc.c ****   * @retval pointer to descriptor buffer
 659:Middlewares/ST/STM32_USB_Device_Library/Class/CDC/Src/usbd_cdc.c ****   */
 660:Middlewares/ST/STM32_USB_Device_Library/Class/CDC/Src/usbd_cdc.c **** static uint8_t *USBD_CDC_GetHSCfgDesc(uint16_t *length)
 661:Middlewares/ST/STM32_USB_Device_Library/Class/CDC/Src/usbd_cdc.c **** {
 1320              		.loc 1 661 1
 1321              		.cfi_startproc
ARM GAS  C:\Users\Godwin\AppData\Local\Temp\ccIOrPOQ.s 			page 36


 1322              		@ args = 0, pretend = 0, frame = 24
 1323              		@ frame_needed = 1, uses_anonymous_args = 0
 1324 0000 80B5     		push	{r7, lr}
 1325              	.LCFI35:
 1326              		.cfi_def_cfa_offset 8
 1327              		.cfi_offset 7, -8
 1328              		.cfi_offset 14, -4
 1329 0002 86B0     		sub	sp, sp, #24
 1330              	.LCFI36:
 1331              		.cfi_def_cfa_offset 32
 1332 0004 00AF     		add	r7, sp, #0
 1333              	.LCFI37:
 1334              		.cfi_def_cfa_register 7
 1335 0006 7860     		str	r0, [r7, #4]
 662:Middlewares/ST/STM32_USB_Device_Library/Class/CDC/Src/usbd_cdc.c ****   USBD_EpDescTypeDef *pEpCmdDesc = USBD_GetEpDesc(USBD_CDC_CfgDesc, CDC_CMD_EP);
 1336              		.loc 1 662 36
 1337 0008 8221     		movs	r1, #130
 1338 000a 1848     		ldr	r0, .L66
 1339 000c FFF7FEFF 		bl	USBD_GetEpDesc
 1340 0010 7861     		str	r0, [r7, #20]
 663:Middlewares/ST/STM32_USB_Device_Library/Class/CDC/Src/usbd_cdc.c ****   USBD_EpDescTypeDef *pEpOutDesc = USBD_GetEpDesc(USBD_CDC_CfgDesc, CDC_OUT_EP);
 1341              		.loc 1 663 36
 1342 0012 0121     		movs	r1, #1
 1343 0014 1548     		ldr	r0, .L66
 1344 0016 FFF7FEFF 		bl	USBD_GetEpDesc
 1345 001a 3861     		str	r0, [r7, #16]
 664:Middlewares/ST/STM32_USB_Device_Library/Class/CDC/Src/usbd_cdc.c ****   USBD_EpDescTypeDef *pEpInDesc = USBD_GetEpDesc(USBD_CDC_CfgDesc, CDC_IN_EP);
 1346              		.loc 1 664 35
 1347 001c 8121     		movs	r1, #129
 1348 001e 1348     		ldr	r0, .L66
 1349 0020 FFF7FEFF 		bl	USBD_GetEpDesc
 1350 0024 F860     		str	r0, [r7, #12]
 665:Middlewares/ST/STM32_USB_Device_Library/Class/CDC/Src/usbd_cdc.c **** 
 666:Middlewares/ST/STM32_USB_Device_Library/Class/CDC/Src/usbd_cdc.c ****   if (pEpCmdDesc != NULL)
 1351              		.loc 1 666 6
 1352 0026 7B69     		ldr	r3, [r7, #20]
 1353 0028 002B     		cmp	r3, #0
 1354 002a 02D0     		beq	.L62
 667:Middlewares/ST/STM32_USB_Device_Library/Class/CDC/Src/usbd_cdc.c ****   {
 668:Middlewares/ST/STM32_USB_Device_Library/Class/CDC/Src/usbd_cdc.c ****     pEpCmdDesc->bInterval = CDC_HS_BINTERVAL;
 1355              		.loc 1 668 27
 1356 002c 7B69     		ldr	r3, [r7, #20]
 1357 002e 1022     		movs	r2, #16
 1358 0030 9A71     		strb	r2, [r3, #6]
 1359              	.L62:
 669:Middlewares/ST/STM32_USB_Device_Library/Class/CDC/Src/usbd_cdc.c ****   }
 670:Middlewares/ST/STM32_USB_Device_Library/Class/CDC/Src/usbd_cdc.c **** 
 671:Middlewares/ST/STM32_USB_Device_Library/Class/CDC/Src/usbd_cdc.c ****   if (pEpOutDesc != NULL)
 1360              		.loc 1 671 6
 1361 0032 3B69     		ldr	r3, [r7, #16]
 1362 0034 002B     		cmp	r3, #0
 1363 0036 06D0     		beq	.L63
 672:Middlewares/ST/STM32_USB_Device_Library/Class/CDC/Src/usbd_cdc.c ****   {
 673:Middlewares/ST/STM32_USB_Device_Library/Class/CDC/Src/usbd_cdc.c ****     pEpOutDesc->wMaxPacketSize = CDC_DATA_HS_MAX_PACKET_SIZE;
 1364              		.loc 1 673 32
 1365 0038 3B69     		ldr	r3, [r7, #16]
 1366 003a 0022     		movs	r2, #0
ARM GAS  C:\Users\Godwin\AppData\Local\Temp\ccIOrPOQ.s 			page 37


 1367 003c 1A71     		strb	r2, [r3, #4]
 1368 003e 0022     		movs	r2, #0
 1369 0040 42F00202 		orr	r2, r2, #2
 1370 0044 5A71     		strb	r2, [r3, #5]
 1371              	.L63:
 674:Middlewares/ST/STM32_USB_Device_Library/Class/CDC/Src/usbd_cdc.c ****   }
 675:Middlewares/ST/STM32_USB_Device_Library/Class/CDC/Src/usbd_cdc.c **** 
 676:Middlewares/ST/STM32_USB_Device_Library/Class/CDC/Src/usbd_cdc.c ****   if (pEpInDesc != NULL)
 1372              		.loc 1 676 6
 1373 0046 FB68     		ldr	r3, [r7, #12]
 1374 0048 002B     		cmp	r3, #0
 1375 004a 06D0     		beq	.L64
 677:Middlewares/ST/STM32_USB_Device_Library/Class/CDC/Src/usbd_cdc.c ****   {
 678:Middlewares/ST/STM32_USB_Device_Library/Class/CDC/Src/usbd_cdc.c ****     pEpInDesc->wMaxPacketSize = CDC_DATA_HS_MAX_PACKET_SIZE;
 1376              		.loc 1 678 31
 1377 004c FB68     		ldr	r3, [r7, #12]
 1378 004e 0022     		movs	r2, #0
 1379 0050 1A71     		strb	r2, [r3, #4]
 1380 0052 0022     		movs	r2, #0
 1381 0054 42F00202 		orr	r2, r2, #2
 1382 0058 5A71     		strb	r2, [r3, #5]
 1383              	.L64:
 679:Middlewares/ST/STM32_USB_Device_Library/Class/CDC/Src/usbd_cdc.c ****   }
 680:Middlewares/ST/STM32_USB_Device_Library/Class/CDC/Src/usbd_cdc.c **** 
 681:Middlewares/ST/STM32_USB_Device_Library/Class/CDC/Src/usbd_cdc.c ****   *length = (uint16_t)sizeof(USBD_CDC_CfgDesc);
 1384              		.loc 1 681 11
 1385 005a 7B68     		ldr	r3, [r7, #4]
 1386 005c 4322     		movs	r2, #67
 1387 005e 1A80     		strh	r2, [r3]	@ movhi
 682:Middlewares/ST/STM32_USB_Device_Library/Class/CDC/Src/usbd_cdc.c ****   return USBD_CDC_CfgDesc;
 1388              		.loc 1 682 10
 1389 0060 024B     		ldr	r3, .L66
 683:Middlewares/ST/STM32_USB_Device_Library/Class/CDC/Src/usbd_cdc.c **** }
 1390              		.loc 1 683 1
 1391 0062 1846     		mov	r0, r3
 1392 0064 1837     		adds	r7, r7, #24
 1393              	.LCFI38:
 1394              		.cfi_def_cfa_offset 8
 1395 0066 BD46     		mov	sp, r7
 1396              	.LCFI39:
 1397              		.cfi_def_cfa_register 13
 1398              		@ sp needed
 1399 0068 80BD     		pop	{r7, pc}
 1400              	.L67:
 1401 006a 00BF     		.align	2
 1402              	.L66:
 1403 006c 00000000 		.word	USBD_CDC_CfgDesc
 1404              		.cfi_endproc
 1405              	.LFE155:
 1407              		.section	.text.USBD_CDC_GetOtherSpeedCfgDesc,"ax",%progbits
 1408              		.align	1
 1409              		.syntax unified
 1410              		.thumb
 1411              		.thumb_func
 1413              	USBD_CDC_GetOtherSpeedCfgDesc:
 1414              	.LFB156:
 684:Middlewares/ST/STM32_USB_Device_Library/Class/CDC/Src/usbd_cdc.c **** 
ARM GAS  C:\Users\Godwin\AppData\Local\Temp\ccIOrPOQ.s 			page 38


 685:Middlewares/ST/STM32_USB_Device_Library/Class/CDC/Src/usbd_cdc.c **** /**
 686:Middlewares/ST/STM32_USB_Device_Library/Class/CDC/Src/usbd_cdc.c ****   * @brief  USBD_CDC_GetOtherSpeedCfgDesc
 687:Middlewares/ST/STM32_USB_Device_Library/Class/CDC/Src/usbd_cdc.c ****   *         Return configuration descriptor
 688:Middlewares/ST/STM32_USB_Device_Library/Class/CDC/Src/usbd_cdc.c ****   * @param  length : pointer data length
 689:Middlewares/ST/STM32_USB_Device_Library/Class/CDC/Src/usbd_cdc.c ****   * @retval pointer to descriptor buffer
 690:Middlewares/ST/STM32_USB_Device_Library/Class/CDC/Src/usbd_cdc.c ****   */
 691:Middlewares/ST/STM32_USB_Device_Library/Class/CDC/Src/usbd_cdc.c **** static uint8_t *USBD_CDC_GetOtherSpeedCfgDesc(uint16_t *length)
 692:Middlewares/ST/STM32_USB_Device_Library/Class/CDC/Src/usbd_cdc.c **** {
 1415              		.loc 1 692 1
 1416              		.cfi_startproc
 1417              		@ args = 0, pretend = 0, frame = 24
 1418              		@ frame_needed = 1, uses_anonymous_args = 0
 1419 0000 80B5     		push	{r7, lr}
 1420              	.LCFI40:
 1421              		.cfi_def_cfa_offset 8
 1422              		.cfi_offset 7, -8
 1423              		.cfi_offset 14, -4
 1424 0002 86B0     		sub	sp, sp, #24
 1425              	.LCFI41:
 1426              		.cfi_def_cfa_offset 32
 1427 0004 00AF     		add	r7, sp, #0
 1428              	.LCFI42:
 1429              		.cfi_def_cfa_register 7
 1430 0006 7860     		str	r0, [r7, #4]
 693:Middlewares/ST/STM32_USB_Device_Library/Class/CDC/Src/usbd_cdc.c ****   USBD_EpDescTypeDef *pEpCmdDesc = USBD_GetEpDesc(USBD_CDC_CfgDesc, CDC_CMD_EP);
 1431              		.loc 1 693 36
 1432 0008 8221     		movs	r1, #130
 1433 000a 1848     		ldr	r0, .L73
 1434 000c FFF7FEFF 		bl	USBD_GetEpDesc
 1435 0010 7861     		str	r0, [r7, #20]
 694:Middlewares/ST/STM32_USB_Device_Library/Class/CDC/Src/usbd_cdc.c ****   USBD_EpDescTypeDef *pEpOutDesc = USBD_GetEpDesc(USBD_CDC_CfgDesc, CDC_OUT_EP);
 1436              		.loc 1 694 36
 1437 0012 0121     		movs	r1, #1
 1438 0014 1548     		ldr	r0, .L73
 1439 0016 FFF7FEFF 		bl	USBD_GetEpDesc
 1440 001a 3861     		str	r0, [r7, #16]
 695:Middlewares/ST/STM32_USB_Device_Library/Class/CDC/Src/usbd_cdc.c ****   USBD_EpDescTypeDef *pEpInDesc = USBD_GetEpDesc(USBD_CDC_CfgDesc, CDC_IN_EP);
 1441              		.loc 1 695 35
 1442 001c 8121     		movs	r1, #129
 1443 001e 1348     		ldr	r0, .L73
 1444 0020 FFF7FEFF 		bl	USBD_GetEpDesc
 1445 0024 F860     		str	r0, [r7, #12]
 696:Middlewares/ST/STM32_USB_Device_Library/Class/CDC/Src/usbd_cdc.c **** 
 697:Middlewares/ST/STM32_USB_Device_Library/Class/CDC/Src/usbd_cdc.c ****   if (pEpCmdDesc != NULL)
 1446              		.loc 1 697 6
 1447 0026 7B69     		ldr	r3, [r7, #20]
 1448 0028 002B     		cmp	r3, #0
 1449 002a 02D0     		beq	.L69
 698:Middlewares/ST/STM32_USB_Device_Library/Class/CDC/Src/usbd_cdc.c ****   {
 699:Middlewares/ST/STM32_USB_Device_Library/Class/CDC/Src/usbd_cdc.c ****     pEpCmdDesc->bInterval = CDC_FS_BINTERVAL;
 1450              		.loc 1 699 27
 1451 002c 7B69     		ldr	r3, [r7, #20]
 1452 002e 1022     		movs	r2, #16
 1453 0030 9A71     		strb	r2, [r3, #6]
 1454              	.L69:
 700:Middlewares/ST/STM32_USB_Device_Library/Class/CDC/Src/usbd_cdc.c ****   }
 701:Middlewares/ST/STM32_USB_Device_Library/Class/CDC/Src/usbd_cdc.c **** 
ARM GAS  C:\Users\Godwin\AppData\Local\Temp\ccIOrPOQ.s 			page 39


 702:Middlewares/ST/STM32_USB_Device_Library/Class/CDC/Src/usbd_cdc.c ****   if (pEpOutDesc != NULL)
 1455              		.loc 1 702 6
 1456 0032 3B69     		ldr	r3, [r7, #16]
 1457 0034 002B     		cmp	r3, #0
 1458 0036 06D0     		beq	.L70
 703:Middlewares/ST/STM32_USB_Device_Library/Class/CDC/Src/usbd_cdc.c ****   {
 704:Middlewares/ST/STM32_USB_Device_Library/Class/CDC/Src/usbd_cdc.c ****     pEpOutDesc->wMaxPacketSize = CDC_DATA_FS_MAX_PACKET_SIZE;
 1459              		.loc 1 704 32
 1460 0038 3B69     		ldr	r3, [r7, #16]
 1461 003a 0022     		movs	r2, #0
 1462 003c 42F04002 		orr	r2, r2, #64
 1463 0040 1A71     		strb	r2, [r3, #4]
 1464 0042 0022     		movs	r2, #0
 1465 0044 5A71     		strb	r2, [r3, #5]
 1466              	.L70:
 705:Middlewares/ST/STM32_USB_Device_Library/Class/CDC/Src/usbd_cdc.c ****   }
 706:Middlewares/ST/STM32_USB_Device_Library/Class/CDC/Src/usbd_cdc.c **** 
 707:Middlewares/ST/STM32_USB_Device_Library/Class/CDC/Src/usbd_cdc.c ****   if (pEpInDesc != NULL)
 1467              		.loc 1 707 6
 1468 0046 FB68     		ldr	r3, [r7, #12]
 1469 0048 002B     		cmp	r3, #0
 1470 004a 06D0     		beq	.L71
 708:Middlewares/ST/STM32_USB_Device_Library/Class/CDC/Src/usbd_cdc.c ****   {
 709:Middlewares/ST/STM32_USB_Device_Library/Class/CDC/Src/usbd_cdc.c ****     pEpInDesc->wMaxPacketSize = CDC_DATA_FS_MAX_PACKET_SIZE;
 1471              		.loc 1 709 31
 1472 004c FB68     		ldr	r3, [r7, #12]
 1473 004e 0022     		movs	r2, #0
 1474 0050 42F04002 		orr	r2, r2, #64
 1475 0054 1A71     		strb	r2, [r3, #4]
 1476 0056 0022     		movs	r2, #0
 1477 0058 5A71     		strb	r2, [r3, #5]
 1478              	.L71:
 710:Middlewares/ST/STM32_USB_Device_Library/Class/CDC/Src/usbd_cdc.c ****   }
 711:Middlewares/ST/STM32_USB_Device_Library/Class/CDC/Src/usbd_cdc.c **** 
 712:Middlewares/ST/STM32_USB_Device_Library/Class/CDC/Src/usbd_cdc.c ****   *length = (uint16_t)sizeof(USBD_CDC_CfgDesc);
 1479              		.loc 1 712 11
 1480 005a 7B68     		ldr	r3, [r7, #4]
 1481 005c 4322     		movs	r2, #67
 1482 005e 1A80     		strh	r2, [r3]	@ movhi
 713:Middlewares/ST/STM32_USB_Device_Library/Class/CDC/Src/usbd_cdc.c ****   return USBD_CDC_CfgDesc;
 1483              		.loc 1 713 10
 1484 0060 024B     		ldr	r3, .L73
 714:Middlewares/ST/STM32_USB_Device_Library/Class/CDC/Src/usbd_cdc.c **** }
 1485              		.loc 1 714 1
 1486 0062 1846     		mov	r0, r3
 1487 0064 1837     		adds	r7, r7, #24
 1488              	.LCFI43:
 1489              		.cfi_def_cfa_offset 8
 1490 0066 BD46     		mov	sp, r7
 1491              	.LCFI44:
 1492              		.cfi_def_cfa_register 13
 1493              		@ sp needed
 1494 0068 80BD     		pop	{r7, pc}
 1495              	.L74:
 1496 006a 00BF     		.align	2
 1497              	.L73:
 1498 006c 00000000 		.word	USBD_CDC_CfgDesc
ARM GAS  C:\Users\Godwin\AppData\Local\Temp\ccIOrPOQ.s 			page 40


 1499              		.cfi_endproc
 1500              	.LFE156:
 1502              		.section	.text.USBD_CDC_GetDeviceQualifierDescriptor,"ax",%progbits
 1503              		.align	1
 1504              		.global	USBD_CDC_GetDeviceQualifierDescriptor
 1505              		.syntax unified
 1506              		.thumb
 1507              		.thumb_func
 1509              	USBD_CDC_GetDeviceQualifierDescriptor:
 1510              	.LFB157:
 715:Middlewares/ST/STM32_USB_Device_Library/Class/CDC/Src/usbd_cdc.c **** 
 716:Middlewares/ST/STM32_USB_Device_Library/Class/CDC/Src/usbd_cdc.c **** /**
 717:Middlewares/ST/STM32_USB_Device_Library/Class/CDC/Src/usbd_cdc.c ****   * @brief  USBD_CDC_GetDeviceQualifierDescriptor
 718:Middlewares/ST/STM32_USB_Device_Library/Class/CDC/Src/usbd_cdc.c ****   *         return Device Qualifier descriptor
 719:Middlewares/ST/STM32_USB_Device_Library/Class/CDC/Src/usbd_cdc.c ****   * @param  length : pointer data length
 720:Middlewares/ST/STM32_USB_Device_Library/Class/CDC/Src/usbd_cdc.c ****   * @retval pointer to descriptor buffer
 721:Middlewares/ST/STM32_USB_Device_Library/Class/CDC/Src/usbd_cdc.c ****   */
 722:Middlewares/ST/STM32_USB_Device_Library/Class/CDC/Src/usbd_cdc.c **** uint8_t *USBD_CDC_GetDeviceQualifierDescriptor(uint16_t *length)
 723:Middlewares/ST/STM32_USB_Device_Library/Class/CDC/Src/usbd_cdc.c **** {
 1511              		.loc 1 723 1
 1512              		.cfi_startproc
 1513              		@ args = 0, pretend = 0, frame = 8
 1514              		@ frame_needed = 1, uses_anonymous_args = 0
 1515              		@ link register save eliminated.
 1516 0000 80B4     		push	{r7}
 1517              	.LCFI45:
 1518              		.cfi_def_cfa_offset 4
 1519              		.cfi_offset 7, -4
 1520 0002 83B0     		sub	sp, sp, #12
 1521              	.LCFI46:
 1522              		.cfi_def_cfa_offset 16
 1523 0004 00AF     		add	r7, sp, #0
 1524              	.LCFI47:
 1525              		.cfi_def_cfa_register 7
 1526 0006 7860     		str	r0, [r7, #4]
 724:Middlewares/ST/STM32_USB_Device_Library/Class/CDC/Src/usbd_cdc.c ****   *length = (uint16_t)sizeof(USBD_CDC_DeviceQualifierDesc);
 1527              		.loc 1 724 11
 1528 0008 7B68     		ldr	r3, [r7, #4]
 1529 000a 0A22     		movs	r2, #10
 1530 000c 1A80     		strh	r2, [r3]	@ movhi
 725:Middlewares/ST/STM32_USB_Device_Library/Class/CDC/Src/usbd_cdc.c **** 
 726:Middlewares/ST/STM32_USB_Device_Library/Class/CDC/Src/usbd_cdc.c ****   return USBD_CDC_DeviceQualifierDesc;
 1531              		.loc 1 726 10
 1532 000e 034B     		ldr	r3, .L77
 727:Middlewares/ST/STM32_USB_Device_Library/Class/CDC/Src/usbd_cdc.c **** }
 1533              		.loc 1 727 1
 1534 0010 1846     		mov	r0, r3
 1535 0012 0C37     		adds	r7, r7, #12
 1536              	.LCFI48:
 1537              		.cfi_def_cfa_offset 4
 1538 0014 BD46     		mov	sp, r7
 1539              	.LCFI49:
 1540              		.cfi_def_cfa_register 13
 1541              		@ sp needed
 1542 0016 5DF8047B 		ldr	r7, [sp], #4
 1543              	.LCFI50:
 1544              		.cfi_restore 7
ARM GAS  C:\Users\Godwin\AppData\Local\Temp\ccIOrPOQ.s 			page 41


 1545              		.cfi_def_cfa_offset 0
 1546 001a 7047     		bx	lr
 1547              	.L78:
 1548              		.align	2
 1549              	.L77:
 1550 001c 00000000 		.word	USBD_CDC_DeviceQualifierDesc
 1551              		.cfi_endproc
 1552              	.LFE157:
 1554              		.section	.text.USBD_CDC_RegisterInterface,"ax",%progbits
 1555              		.align	1
 1556              		.global	USBD_CDC_RegisterInterface
 1557              		.syntax unified
 1558              		.thumb
 1559              		.thumb_func
 1561              	USBD_CDC_RegisterInterface:
 1562              	.LFB158:
 728:Middlewares/ST/STM32_USB_Device_Library/Class/CDC/Src/usbd_cdc.c **** #endif /* USE_USBD_COMPOSITE  */
 729:Middlewares/ST/STM32_USB_Device_Library/Class/CDC/Src/usbd_cdc.c **** /**
 730:Middlewares/ST/STM32_USB_Device_Library/Class/CDC/Src/usbd_cdc.c ****   * @brief  USBD_CDC_RegisterInterface
 731:Middlewares/ST/STM32_USB_Device_Library/Class/CDC/Src/usbd_cdc.c ****   * @param  pdev: device instance
 732:Middlewares/ST/STM32_USB_Device_Library/Class/CDC/Src/usbd_cdc.c ****   * @param  fops: CD  Interface callback
 733:Middlewares/ST/STM32_USB_Device_Library/Class/CDC/Src/usbd_cdc.c ****   * @retval status
 734:Middlewares/ST/STM32_USB_Device_Library/Class/CDC/Src/usbd_cdc.c ****   */
 735:Middlewares/ST/STM32_USB_Device_Library/Class/CDC/Src/usbd_cdc.c **** uint8_t USBD_CDC_RegisterInterface(USBD_HandleTypeDef *pdev,
 736:Middlewares/ST/STM32_USB_Device_Library/Class/CDC/Src/usbd_cdc.c ****                                    USBD_CDC_ItfTypeDef *fops)
 737:Middlewares/ST/STM32_USB_Device_Library/Class/CDC/Src/usbd_cdc.c **** {
 1563              		.loc 1 737 1
 1564              		.cfi_startproc
 1565              		@ args = 0, pretend = 0, frame = 8
 1566              		@ frame_needed = 1, uses_anonymous_args = 0
 1567              		@ link register save eliminated.
 1568 0000 80B4     		push	{r7}
 1569              	.LCFI51:
 1570              		.cfi_def_cfa_offset 4
 1571              		.cfi_offset 7, -4
 1572 0002 83B0     		sub	sp, sp, #12
 1573              	.LCFI52:
 1574              		.cfi_def_cfa_offset 16
 1575 0004 00AF     		add	r7, sp, #0
 1576              	.LCFI53:
 1577              		.cfi_def_cfa_register 7
 1578 0006 7860     		str	r0, [r7, #4]
 1579 0008 3960     		str	r1, [r7]
 738:Middlewares/ST/STM32_USB_Device_Library/Class/CDC/Src/usbd_cdc.c ****   if (fops == NULL)
 1580              		.loc 1 738 6
 1581 000a 3B68     		ldr	r3, [r7]
 1582 000c 002B     		cmp	r3, #0
 1583 000e 01D1     		bne	.L80
 739:Middlewares/ST/STM32_USB_Device_Library/Class/CDC/Src/usbd_cdc.c ****   {
 740:Middlewares/ST/STM32_USB_Device_Library/Class/CDC/Src/usbd_cdc.c ****     return (uint8_t)USBD_FAIL;
 1584              		.loc 1 740 12
 1585 0010 0323     		movs	r3, #3
 1586 0012 09E0     		b	.L81
 1587              	.L80:
 741:Middlewares/ST/STM32_USB_Device_Library/Class/CDC/Src/usbd_cdc.c ****   }
 742:Middlewares/ST/STM32_USB_Device_Library/Class/CDC/Src/usbd_cdc.c **** 
 743:Middlewares/ST/STM32_USB_Device_Library/Class/CDC/Src/usbd_cdc.c ****   pdev->pUserData[pdev->classId] = fops;
ARM GAS  C:\Users\Godwin\AppData\Local\Temp\ccIOrPOQ.s 			page 42


 1588              		.loc 1 743 23
 1589 0014 7B68     		ldr	r3, [r7, #4]
 1590 0016 D3F8D432 		ldr	r3, [r3, #724]
 1591              		.loc 1 743 34
 1592 001a 7A68     		ldr	r2, [r7, #4]
 1593 001c B033     		adds	r3, r3, #176
 1594 001e 9B00     		lsls	r3, r3, #2
 1595 0020 1344     		add	r3, r3, r2
 1596 0022 3A68     		ldr	r2, [r7]
 1597 0024 5A60     		str	r2, [r3, #4]
 744:Middlewares/ST/STM32_USB_Device_Library/Class/CDC/Src/usbd_cdc.c **** 
 745:Middlewares/ST/STM32_USB_Device_Library/Class/CDC/Src/usbd_cdc.c ****   return (uint8_t)USBD_OK;
 1598              		.loc 1 745 10
 1599 0026 0023     		movs	r3, #0
 1600              	.L81:
 746:Middlewares/ST/STM32_USB_Device_Library/Class/CDC/Src/usbd_cdc.c **** }
 1601              		.loc 1 746 1
 1602 0028 1846     		mov	r0, r3
 1603 002a 0C37     		adds	r7, r7, #12
 1604              	.LCFI54:
 1605              		.cfi_def_cfa_offset 4
 1606 002c BD46     		mov	sp, r7
 1607              	.LCFI55:
 1608              		.cfi_def_cfa_register 13
 1609              		@ sp needed
 1610 002e 5DF8047B 		ldr	r7, [sp], #4
 1611              	.LCFI56:
 1612              		.cfi_restore 7
 1613              		.cfi_def_cfa_offset 0
 1614 0032 7047     		bx	lr
 1615              		.cfi_endproc
 1616              	.LFE158:
 1618              		.section	.text.USBD_CDC_SetTxBuffer,"ax",%progbits
 1619              		.align	1
 1620              		.global	USBD_CDC_SetTxBuffer
 1621              		.syntax unified
 1622              		.thumb
 1623              		.thumb_func
 1625              	USBD_CDC_SetTxBuffer:
 1626              	.LFB159:
 747:Middlewares/ST/STM32_USB_Device_Library/Class/CDC/Src/usbd_cdc.c **** 
 748:Middlewares/ST/STM32_USB_Device_Library/Class/CDC/Src/usbd_cdc.c **** 
 749:Middlewares/ST/STM32_USB_Device_Library/Class/CDC/Src/usbd_cdc.c **** /**
 750:Middlewares/ST/STM32_USB_Device_Library/Class/CDC/Src/usbd_cdc.c ****   * @brief  USBD_CDC_SetTxBuffer
 751:Middlewares/ST/STM32_USB_Device_Library/Class/CDC/Src/usbd_cdc.c ****   * @param  pdev: device instance
 752:Middlewares/ST/STM32_USB_Device_Library/Class/CDC/Src/usbd_cdc.c ****   * @param  pbuff: Tx Buffer
 753:Middlewares/ST/STM32_USB_Device_Library/Class/CDC/Src/usbd_cdc.c ****   * @param  length: length of data to be sent
 754:Middlewares/ST/STM32_USB_Device_Library/Class/CDC/Src/usbd_cdc.c ****   * @param  ClassId: The Class ID
 755:Middlewares/ST/STM32_USB_Device_Library/Class/CDC/Src/usbd_cdc.c ****   * @retval status
 756:Middlewares/ST/STM32_USB_Device_Library/Class/CDC/Src/usbd_cdc.c ****   */
 757:Middlewares/ST/STM32_USB_Device_Library/Class/CDC/Src/usbd_cdc.c **** #ifdef USE_USBD_COMPOSITE
 758:Middlewares/ST/STM32_USB_Device_Library/Class/CDC/Src/usbd_cdc.c **** uint8_t USBD_CDC_SetTxBuffer(USBD_HandleTypeDef *pdev,
 759:Middlewares/ST/STM32_USB_Device_Library/Class/CDC/Src/usbd_cdc.c ****                              uint8_t *pbuff, uint32_t length, uint8_t ClassId)
 760:Middlewares/ST/STM32_USB_Device_Library/Class/CDC/Src/usbd_cdc.c **** {
 761:Middlewares/ST/STM32_USB_Device_Library/Class/CDC/Src/usbd_cdc.c ****   USBD_CDC_HandleTypeDef *hcdc = (USBD_CDC_HandleTypeDef *)pdev->pClassDataCmsit[ClassId];
 762:Middlewares/ST/STM32_USB_Device_Library/Class/CDC/Src/usbd_cdc.c **** #else
 763:Middlewares/ST/STM32_USB_Device_Library/Class/CDC/Src/usbd_cdc.c **** uint8_t USBD_CDC_SetTxBuffer(USBD_HandleTypeDef *pdev,
ARM GAS  C:\Users\Godwin\AppData\Local\Temp\ccIOrPOQ.s 			page 43


 764:Middlewares/ST/STM32_USB_Device_Library/Class/CDC/Src/usbd_cdc.c ****                              uint8_t *pbuff, uint32_t length)
 765:Middlewares/ST/STM32_USB_Device_Library/Class/CDC/Src/usbd_cdc.c **** {
 1627              		.loc 1 765 1
 1628              		.cfi_startproc
 1629              		@ args = 0, pretend = 0, frame = 24
 1630              		@ frame_needed = 1, uses_anonymous_args = 0
 1631              		@ link register save eliminated.
 1632 0000 80B4     		push	{r7}
 1633              	.LCFI57:
 1634              		.cfi_def_cfa_offset 4
 1635              		.cfi_offset 7, -4
 1636 0002 87B0     		sub	sp, sp, #28
 1637              	.LCFI58:
 1638              		.cfi_def_cfa_offset 32
 1639 0004 00AF     		add	r7, sp, #0
 1640              	.LCFI59:
 1641              		.cfi_def_cfa_register 7
 1642 0006 F860     		str	r0, [r7, #12]
 1643 0008 B960     		str	r1, [r7, #8]
 1644 000a 7A60     		str	r2, [r7, #4]
 766:Middlewares/ST/STM32_USB_Device_Library/Class/CDC/Src/usbd_cdc.c ****   USBD_CDC_HandleTypeDef *hcdc = (USBD_CDC_HandleTypeDef *)pdev->pClassDataCmsit[pdev->classId];
 1645              		.loc 1 766 86
 1646 000c FB68     		ldr	r3, [r7, #12]
 1647 000e D3F8D422 		ldr	r2, [r3, #724]
 1648              		.loc 1 766 27
 1649 0012 FB68     		ldr	r3, [r7, #12]
 1650 0014 B032     		adds	r2, r2, #176
 1651 0016 53F82230 		ldr	r3, [r3, r2, lsl #2]
 1652 001a 7B61     		str	r3, [r7, #20]
 767:Middlewares/ST/STM32_USB_Device_Library/Class/CDC/Src/usbd_cdc.c **** #endif /* USE_USBD_COMPOSITE */
 768:Middlewares/ST/STM32_USB_Device_Library/Class/CDC/Src/usbd_cdc.c **** 
 769:Middlewares/ST/STM32_USB_Device_Library/Class/CDC/Src/usbd_cdc.c ****   if (hcdc == NULL)
 1653              		.loc 1 769 6
 1654 001c 7B69     		ldr	r3, [r7, #20]
 1655 001e 002B     		cmp	r3, #0
 1656 0020 01D1     		bne	.L83
 770:Middlewares/ST/STM32_USB_Device_Library/Class/CDC/Src/usbd_cdc.c ****   {
 771:Middlewares/ST/STM32_USB_Device_Library/Class/CDC/Src/usbd_cdc.c ****     return (uint8_t)USBD_FAIL;
 1657              		.loc 1 771 12
 1658 0022 0323     		movs	r3, #3
 1659 0024 08E0     		b	.L84
 1660              	.L83:
 772:Middlewares/ST/STM32_USB_Device_Library/Class/CDC/Src/usbd_cdc.c ****   }
 773:Middlewares/ST/STM32_USB_Device_Library/Class/CDC/Src/usbd_cdc.c **** 
 774:Middlewares/ST/STM32_USB_Device_Library/Class/CDC/Src/usbd_cdc.c ****   hcdc->TxBuffer = pbuff;
 1661              		.loc 1 774 18
 1662 0026 7B69     		ldr	r3, [r7, #20]
 1663 0028 BA68     		ldr	r2, [r7, #8]
 1664 002a C3F80822 		str	r2, [r3, #520]
 775:Middlewares/ST/STM32_USB_Device_Library/Class/CDC/Src/usbd_cdc.c ****   hcdc->TxLength = length;
 1665              		.loc 1 775 18
 1666 002e 7B69     		ldr	r3, [r7, #20]
 1667 0030 7A68     		ldr	r2, [r7, #4]
 1668 0032 C3F81022 		str	r2, [r3, #528]
 776:Middlewares/ST/STM32_USB_Device_Library/Class/CDC/Src/usbd_cdc.c **** 
 777:Middlewares/ST/STM32_USB_Device_Library/Class/CDC/Src/usbd_cdc.c ****   return (uint8_t)USBD_OK;
 1669              		.loc 1 777 10
ARM GAS  C:\Users\Godwin\AppData\Local\Temp\ccIOrPOQ.s 			page 44


 1670 0036 0023     		movs	r3, #0
 1671              	.L84:
 778:Middlewares/ST/STM32_USB_Device_Library/Class/CDC/Src/usbd_cdc.c **** }
 1672              		.loc 1 778 1
 1673 0038 1846     		mov	r0, r3
 1674 003a 1C37     		adds	r7, r7, #28
 1675              	.LCFI60:
 1676              		.cfi_def_cfa_offset 4
 1677 003c BD46     		mov	sp, r7
 1678              	.LCFI61:
 1679              		.cfi_def_cfa_register 13
 1680              		@ sp needed
 1681 003e 5DF8047B 		ldr	r7, [sp], #4
 1682              	.LCFI62:
 1683              		.cfi_restore 7
 1684              		.cfi_def_cfa_offset 0
 1685 0042 7047     		bx	lr
 1686              		.cfi_endproc
 1687              	.LFE159:
 1689              		.section	.text.USBD_CDC_SetRxBuffer,"ax",%progbits
 1690              		.align	1
 1691              		.global	USBD_CDC_SetRxBuffer
 1692              		.syntax unified
 1693              		.thumb
 1694              		.thumb_func
 1696              	USBD_CDC_SetRxBuffer:
 1697              	.LFB160:
 779:Middlewares/ST/STM32_USB_Device_Library/Class/CDC/Src/usbd_cdc.c **** 
 780:Middlewares/ST/STM32_USB_Device_Library/Class/CDC/Src/usbd_cdc.c **** /**
 781:Middlewares/ST/STM32_USB_Device_Library/Class/CDC/Src/usbd_cdc.c ****   * @brief  USBD_CDC_SetRxBuffer
 782:Middlewares/ST/STM32_USB_Device_Library/Class/CDC/Src/usbd_cdc.c ****   * @param  pdev: device instance
 783:Middlewares/ST/STM32_USB_Device_Library/Class/CDC/Src/usbd_cdc.c ****   * @param  pbuff: Rx Buffer
 784:Middlewares/ST/STM32_USB_Device_Library/Class/CDC/Src/usbd_cdc.c ****   * @retval status
 785:Middlewares/ST/STM32_USB_Device_Library/Class/CDC/Src/usbd_cdc.c ****   */
 786:Middlewares/ST/STM32_USB_Device_Library/Class/CDC/Src/usbd_cdc.c **** uint8_t USBD_CDC_SetRxBuffer(USBD_HandleTypeDef *pdev, uint8_t *pbuff)
 787:Middlewares/ST/STM32_USB_Device_Library/Class/CDC/Src/usbd_cdc.c **** {
 1698              		.loc 1 787 1
 1699              		.cfi_startproc
 1700              		@ args = 0, pretend = 0, frame = 16
 1701              		@ frame_needed = 1, uses_anonymous_args = 0
 1702              		@ link register save eliminated.
 1703 0000 80B4     		push	{r7}
 1704              	.LCFI63:
 1705              		.cfi_def_cfa_offset 4
 1706              		.cfi_offset 7, -4
 1707 0002 85B0     		sub	sp, sp, #20
 1708              	.LCFI64:
 1709              		.cfi_def_cfa_offset 24
 1710 0004 00AF     		add	r7, sp, #0
 1711              	.LCFI65:
 1712              		.cfi_def_cfa_register 7
 1713 0006 7860     		str	r0, [r7, #4]
 1714 0008 3960     		str	r1, [r7]
 788:Middlewares/ST/STM32_USB_Device_Library/Class/CDC/Src/usbd_cdc.c ****   USBD_CDC_HandleTypeDef *hcdc = (USBD_CDC_HandleTypeDef *)pdev->pClassDataCmsit[pdev->classId];
 1715              		.loc 1 788 86
 1716 000a 7B68     		ldr	r3, [r7, #4]
 1717 000c D3F8D422 		ldr	r2, [r3, #724]
ARM GAS  C:\Users\Godwin\AppData\Local\Temp\ccIOrPOQ.s 			page 45


 1718              		.loc 1 788 27
 1719 0010 7B68     		ldr	r3, [r7, #4]
 1720 0012 B032     		adds	r2, r2, #176
 1721 0014 53F82230 		ldr	r3, [r3, r2, lsl #2]
 1722 0018 FB60     		str	r3, [r7, #12]
 789:Middlewares/ST/STM32_USB_Device_Library/Class/CDC/Src/usbd_cdc.c **** 
 790:Middlewares/ST/STM32_USB_Device_Library/Class/CDC/Src/usbd_cdc.c ****   if (hcdc == NULL)
 1723              		.loc 1 790 6
 1724 001a FB68     		ldr	r3, [r7, #12]
 1725 001c 002B     		cmp	r3, #0
 1726 001e 01D1     		bne	.L86
 791:Middlewares/ST/STM32_USB_Device_Library/Class/CDC/Src/usbd_cdc.c ****   {
 792:Middlewares/ST/STM32_USB_Device_Library/Class/CDC/Src/usbd_cdc.c ****     return (uint8_t)USBD_FAIL;
 1727              		.loc 1 792 12
 1728 0020 0323     		movs	r3, #3
 1729 0022 04E0     		b	.L87
 1730              	.L86:
 793:Middlewares/ST/STM32_USB_Device_Library/Class/CDC/Src/usbd_cdc.c ****   }
 794:Middlewares/ST/STM32_USB_Device_Library/Class/CDC/Src/usbd_cdc.c **** 
 795:Middlewares/ST/STM32_USB_Device_Library/Class/CDC/Src/usbd_cdc.c ****   hcdc->RxBuffer = pbuff;
 1731              		.loc 1 795 18
 1732 0024 FB68     		ldr	r3, [r7, #12]
 1733 0026 3A68     		ldr	r2, [r7]
 1734 0028 C3F80422 		str	r2, [r3, #516]
 796:Middlewares/ST/STM32_USB_Device_Library/Class/CDC/Src/usbd_cdc.c **** 
 797:Middlewares/ST/STM32_USB_Device_Library/Class/CDC/Src/usbd_cdc.c ****   return (uint8_t)USBD_OK;
 1735              		.loc 1 797 10
 1736 002c 0023     		movs	r3, #0
 1737              	.L87:
 798:Middlewares/ST/STM32_USB_Device_Library/Class/CDC/Src/usbd_cdc.c **** }
 1738              		.loc 1 798 1
 1739 002e 1846     		mov	r0, r3
 1740 0030 1437     		adds	r7, r7, #20
 1741              	.LCFI66:
 1742              		.cfi_def_cfa_offset 4
 1743 0032 BD46     		mov	sp, r7
 1744              	.LCFI67:
 1745              		.cfi_def_cfa_register 13
 1746              		@ sp needed
 1747 0034 5DF8047B 		ldr	r7, [sp], #4
 1748              	.LCFI68:
 1749              		.cfi_restore 7
 1750              		.cfi_def_cfa_offset 0
 1751 0038 7047     		bx	lr
 1752              		.cfi_endproc
 1753              	.LFE160:
 1755              		.section	.text.USBD_CDC_TransmitPacket,"ax",%progbits
 1756              		.align	1
 1757              		.global	USBD_CDC_TransmitPacket
 1758              		.syntax unified
 1759              		.thumb
 1760              		.thumb_func
 1762              	USBD_CDC_TransmitPacket:
 1763              	.LFB161:
 799:Middlewares/ST/STM32_USB_Device_Library/Class/CDC/Src/usbd_cdc.c **** 
 800:Middlewares/ST/STM32_USB_Device_Library/Class/CDC/Src/usbd_cdc.c **** 
 801:Middlewares/ST/STM32_USB_Device_Library/Class/CDC/Src/usbd_cdc.c **** /**
ARM GAS  C:\Users\Godwin\AppData\Local\Temp\ccIOrPOQ.s 			page 46


 802:Middlewares/ST/STM32_USB_Device_Library/Class/CDC/Src/usbd_cdc.c ****   * @brief  USBD_CDC_TransmitPacket
 803:Middlewares/ST/STM32_USB_Device_Library/Class/CDC/Src/usbd_cdc.c ****   *         Transmit packet on IN endpoint
 804:Middlewares/ST/STM32_USB_Device_Library/Class/CDC/Src/usbd_cdc.c ****   * @param  pdev: device instance
 805:Middlewares/ST/STM32_USB_Device_Library/Class/CDC/Src/usbd_cdc.c ****   * @param  ClassId: The Class ID
 806:Middlewares/ST/STM32_USB_Device_Library/Class/CDC/Src/usbd_cdc.c ****   * @retval status
 807:Middlewares/ST/STM32_USB_Device_Library/Class/CDC/Src/usbd_cdc.c ****   */
 808:Middlewares/ST/STM32_USB_Device_Library/Class/CDC/Src/usbd_cdc.c **** #ifdef USE_USBD_COMPOSITE
 809:Middlewares/ST/STM32_USB_Device_Library/Class/CDC/Src/usbd_cdc.c **** uint8_t USBD_CDC_TransmitPacket(USBD_HandleTypeDef *pdev, uint8_t ClassId)
 810:Middlewares/ST/STM32_USB_Device_Library/Class/CDC/Src/usbd_cdc.c **** {
 811:Middlewares/ST/STM32_USB_Device_Library/Class/CDC/Src/usbd_cdc.c ****   USBD_CDC_HandleTypeDef *hcdc = (USBD_CDC_HandleTypeDef *)pdev->pClassDataCmsit[ClassId];
 812:Middlewares/ST/STM32_USB_Device_Library/Class/CDC/Src/usbd_cdc.c **** #else
 813:Middlewares/ST/STM32_USB_Device_Library/Class/CDC/Src/usbd_cdc.c **** uint8_t USBD_CDC_TransmitPacket(USBD_HandleTypeDef *pdev)
 814:Middlewares/ST/STM32_USB_Device_Library/Class/CDC/Src/usbd_cdc.c **** {
 1764              		.loc 1 814 1
 1765              		.cfi_startproc
 1766              		@ args = 0, pretend = 0, frame = 16
 1767              		@ frame_needed = 1, uses_anonymous_args = 0
 1768 0000 80B5     		push	{r7, lr}
 1769              	.LCFI69:
 1770              		.cfi_def_cfa_offset 8
 1771              		.cfi_offset 7, -8
 1772              		.cfi_offset 14, -4
 1773 0002 84B0     		sub	sp, sp, #16
 1774              	.LCFI70:
 1775              		.cfi_def_cfa_offset 24
 1776 0004 00AF     		add	r7, sp, #0
 1777              	.LCFI71:
 1778              		.cfi_def_cfa_register 7
 1779 0006 7860     		str	r0, [r7, #4]
 815:Middlewares/ST/STM32_USB_Device_Library/Class/CDC/Src/usbd_cdc.c ****   USBD_CDC_HandleTypeDef *hcdc = (USBD_CDC_HandleTypeDef *)pdev->pClassDataCmsit[pdev->classId];
 1780              		.loc 1 815 86
 1781 0008 7B68     		ldr	r3, [r7, #4]
 1782 000a D3F8D422 		ldr	r2, [r3, #724]
 1783              		.loc 1 815 27
 1784 000e 7B68     		ldr	r3, [r7, #4]
 1785 0010 B032     		adds	r2, r2, #176
 1786 0012 53F82230 		ldr	r3, [r3, r2, lsl #2]
 1787 0016 BB60     		str	r3, [r7, #8]
 816:Middlewares/ST/STM32_USB_Device_Library/Class/CDC/Src/usbd_cdc.c **** #endif  /* USE_USBD_COMPOSITE */
 817:Middlewares/ST/STM32_USB_Device_Library/Class/CDC/Src/usbd_cdc.c **** 
 818:Middlewares/ST/STM32_USB_Device_Library/Class/CDC/Src/usbd_cdc.c ****   USBD_StatusTypeDef ret = USBD_BUSY;
 1788              		.loc 1 818 22
 1789 0018 0123     		movs	r3, #1
 1790 001a FB73     		strb	r3, [r7, #15]
 819:Middlewares/ST/STM32_USB_Device_Library/Class/CDC/Src/usbd_cdc.c **** 
 820:Middlewares/ST/STM32_USB_Device_Library/Class/CDC/Src/usbd_cdc.c **** #ifdef USE_USBD_COMPOSITE
 821:Middlewares/ST/STM32_USB_Device_Library/Class/CDC/Src/usbd_cdc.c ****   /* Get the Endpoints addresses allocated for this class instance */
 822:Middlewares/ST/STM32_USB_Device_Library/Class/CDC/Src/usbd_cdc.c ****   CDCInEpAdd  = USBD_CoreGetEPAdd(pdev, USBD_EP_IN, USBD_EP_TYPE_BULK, ClassId);
 823:Middlewares/ST/STM32_USB_Device_Library/Class/CDC/Src/usbd_cdc.c **** #endif  /* USE_USBD_COMPOSITE */
 824:Middlewares/ST/STM32_USB_Device_Library/Class/CDC/Src/usbd_cdc.c **** 
 825:Middlewares/ST/STM32_USB_Device_Library/Class/CDC/Src/usbd_cdc.c ****   if (hcdc == NULL)
 1791              		.loc 1 825 6
 1792 001c BB68     		ldr	r3, [r7, #8]
 1793 001e 002B     		cmp	r3, #0
 1794 0020 01D1     		bne	.L89
 826:Middlewares/ST/STM32_USB_Device_Library/Class/CDC/Src/usbd_cdc.c ****   {
 827:Middlewares/ST/STM32_USB_Device_Library/Class/CDC/Src/usbd_cdc.c ****     return (uint8_t)USBD_FAIL;
ARM GAS  C:\Users\Godwin\AppData\Local\Temp\ccIOrPOQ.s 			page 47


 1795              		.loc 1 827 12
 1796 0022 0323     		movs	r3, #3
 1797 0024 25E0     		b	.L90
 1798              	.L89:
 828:Middlewares/ST/STM32_USB_Device_Library/Class/CDC/Src/usbd_cdc.c ****   }
 829:Middlewares/ST/STM32_USB_Device_Library/Class/CDC/Src/usbd_cdc.c **** 
 830:Middlewares/ST/STM32_USB_Device_Library/Class/CDC/Src/usbd_cdc.c ****   if (hcdc->TxState == 0U)
 1799              		.loc 1 830 11
 1800 0026 BB68     		ldr	r3, [r7, #8]
 1801 0028 D3F81432 		ldr	r3, [r3, #532]
 1802              		.loc 1 830 6
 1803 002c 002B     		cmp	r3, #0
 1804 002e 1FD1     		bne	.L91
 831:Middlewares/ST/STM32_USB_Device_Library/Class/CDC/Src/usbd_cdc.c ****   {
 832:Middlewares/ST/STM32_USB_Device_Library/Class/CDC/Src/usbd_cdc.c ****     /* Tx Transfer in progress */
 833:Middlewares/ST/STM32_USB_Device_Library/Class/CDC/Src/usbd_cdc.c ****     hcdc->TxState = 1U;
 1805              		.loc 1 833 19
 1806 0030 BB68     		ldr	r3, [r7, #8]
 1807 0032 0122     		movs	r2, #1
 1808 0034 C3F81422 		str	r2, [r3, #532]
 834:Middlewares/ST/STM32_USB_Device_Library/Class/CDC/Src/usbd_cdc.c **** 
 835:Middlewares/ST/STM32_USB_Device_Library/Class/CDC/Src/usbd_cdc.c ****     /* Update the packet total length */
 836:Middlewares/ST/STM32_USB_Device_Library/Class/CDC/Src/usbd_cdc.c ****     pdev->ep_in[CDCInEpAdd & 0xFU].total_length = hcdc->TxLength;
 1809              		.loc 1 836 28
 1810 0038 104B     		ldr	r3, .L92
 1811 003a 1B78     		ldrb	r3, [r3]	@ zero_extendqisi2
 1812 003c 03F00F02 		and	r2, r3, #15
 1813              		.loc 1 836 55
 1814 0040 BB68     		ldr	r3, [r7, #8]
 1815 0042 D3F81012 		ldr	r1, [r3, #528]
 1816              		.loc 1 836 49
 1817 0046 7868     		ldr	r0, [r7, #4]
 1818 0048 1346     		mov	r3, r2
 1819 004a 9B00     		lsls	r3, r3, #2
 1820 004c 1344     		add	r3, r3, r2
 1821 004e 9B00     		lsls	r3, r3, #2
 1822 0050 0344     		add	r3, r3, r0
 1823 0052 1833     		adds	r3, r3, #24
 1824 0054 1960     		str	r1, [r3]
 837:Middlewares/ST/STM32_USB_Device_Library/Class/CDC/Src/usbd_cdc.c **** 
 838:Middlewares/ST/STM32_USB_Device_Library/Class/CDC/Src/usbd_cdc.c ****     /* Transmit next packet */
 839:Middlewares/ST/STM32_USB_Device_Library/Class/CDC/Src/usbd_cdc.c ****     (void)USBD_LL_Transmit(pdev, CDCInEpAdd, hcdc->TxBuffer, hcdc->TxLength);
 1825              		.loc 1 839 5
 1826 0056 094B     		ldr	r3, .L92
 1827 0058 1978     		ldrb	r1, [r3]	@ zero_extendqisi2
 1828              		.loc 1 839 11
 1829 005a BB68     		ldr	r3, [r7, #8]
 1830 005c D3F80822 		ldr	r2, [r3, #520]
 1831 0060 BB68     		ldr	r3, [r7, #8]
 1832 0062 D3F81032 		ldr	r3, [r3, #528]
 1833 0066 7868     		ldr	r0, [r7, #4]
 1834 0068 FFF7FEFF 		bl	USBD_LL_Transmit
 840:Middlewares/ST/STM32_USB_Device_Library/Class/CDC/Src/usbd_cdc.c **** 
 841:Middlewares/ST/STM32_USB_Device_Library/Class/CDC/Src/usbd_cdc.c ****     ret = USBD_OK;
 1835              		.loc 1 841 9
 1836 006c 0023     		movs	r3, #0
 1837 006e FB73     		strb	r3, [r7, #15]
ARM GAS  C:\Users\Godwin\AppData\Local\Temp\ccIOrPOQ.s 			page 48


 1838              	.L91:
 842:Middlewares/ST/STM32_USB_Device_Library/Class/CDC/Src/usbd_cdc.c ****   }
 843:Middlewares/ST/STM32_USB_Device_Library/Class/CDC/Src/usbd_cdc.c **** 
 844:Middlewares/ST/STM32_USB_Device_Library/Class/CDC/Src/usbd_cdc.c ****   return (uint8_t)ret;
 1839              		.loc 1 844 10
 1840 0070 FB7B     		ldrb	r3, [r7, #15]	@ zero_extendqisi2
 1841              	.L90:
 845:Middlewares/ST/STM32_USB_Device_Library/Class/CDC/Src/usbd_cdc.c **** }
 1842              		.loc 1 845 1
 1843 0072 1846     		mov	r0, r3
 1844 0074 1037     		adds	r7, r7, #16
 1845              	.LCFI72:
 1846              		.cfi_def_cfa_offset 8
 1847 0076 BD46     		mov	sp, r7
 1848              	.LCFI73:
 1849              		.cfi_def_cfa_register 13
 1850              		@ sp needed
 1851 0078 80BD     		pop	{r7, pc}
 1852              	.L93:
 1853 007a 00BF     		.align	2
 1854              	.L92:
 1855 007c 00000000 		.word	CDCInEpAdd
 1856              		.cfi_endproc
 1857              	.LFE161:
 1859              		.section	.text.USBD_CDC_ReceivePacket,"ax",%progbits
 1860              		.align	1
 1861              		.global	USBD_CDC_ReceivePacket
 1862              		.syntax unified
 1863              		.thumb
 1864              		.thumb_func
 1866              	USBD_CDC_ReceivePacket:
 1867              	.LFB162:
 846:Middlewares/ST/STM32_USB_Device_Library/Class/CDC/Src/usbd_cdc.c **** 
 847:Middlewares/ST/STM32_USB_Device_Library/Class/CDC/Src/usbd_cdc.c **** /**
 848:Middlewares/ST/STM32_USB_Device_Library/Class/CDC/Src/usbd_cdc.c ****   * @brief  USBD_CDC_ReceivePacket
 849:Middlewares/ST/STM32_USB_Device_Library/Class/CDC/Src/usbd_cdc.c ****   *         prepare OUT Endpoint for reception
 850:Middlewares/ST/STM32_USB_Device_Library/Class/CDC/Src/usbd_cdc.c ****   * @param  pdev: device instance
 851:Middlewares/ST/STM32_USB_Device_Library/Class/CDC/Src/usbd_cdc.c ****   * @retval status
 852:Middlewares/ST/STM32_USB_Device_Library/Class/CDC/Src/usbd_cdc.c ****   */
 853:Middlewares/ST/STM32_USB_Device_Library/Class/CDC/Src/usbd_cdc.c **** uint8_t USBD_CDC_ReceivePacket(USBD_HandleTypeDef *pdev)
 854:Middlewares/ST/STM32_USB_Device_Library/Class/CDC/Src/usbd_cdc.c **** {
 1868              		.loc 1 854 1
 1869              		.cfi_startproc
 1870              		@ args = 0, pretend = 0, frame = 16
 1871              		@ frame_needed = 1, uses_anonymous_args = 0
 1872 0000 80B5     		push	{r7, lr}
 1873              	.LCFI74:
 1874              		.cfi_def_cfa_offset 8
 1875              		.cfi_offset 7, -8
 1876              		.cfi_offset 14, -4
 1877 0002 84B0     		sub	sp, sp, #16
 1878              	.LCFI75:
 1879              		.cfi_def_cfa_offset 24
 1880 0004 00AF     		add	r7, sp, #0
 1881              	.LCFI76:
 1882              		.cfi_def_cfa_register 7
 1883 0006 7860     		str	r0, [r7, #4]
ARM GAS  C:\Users\Godwin\AppData\Local\Temp\ccIOrPOQ.s 			page 49


 855:Middlewares/ST/STM32_USB_Device_Library/Class/CDC/Src/usbd_cdc.c ****   USBD_CDC_HandleTypeDef *hcdc = (USBD_CDC_HandleTypeDef *)pdev->pClassDataCmsit[pdev->classId];
 1884              		.loc 1 855 86
 1885 0008 7B68     		ldr	r3, [r7, #4]
 1886 000a D3F8D422 		ldr	r2, [r3, #724]
 1887              		.loc 1 855 27
 1888 000e 7B68     		ldr	r3, [r7, #4]
 1889 0010 B032     		adds	r2, r2, #176
 1890 0012 53F82230 		ldr	r3, [r3, r2, lsl #2]
 1891 0016 FB60     		str	r3, [r7, #12]
 856:Middlewares/ST/STM32_USB_Device_Library/Class/CDC/Src/usbd_cdc.c **** 
 857:Middlewares/ST/STM32_USB_Device_Library/Class/CDC/Src/usbd_cdc.c **** #ifdef USE_USBD_COMPOSITE
 858:Middlewares/ST/STM32_USB_Device_Library/Class/CDC/Src/usbd_cdc.c ****   /* Get the Endpoints addresses allocated for this class instance */
 859:Middlewares/ST/STM32_USB_Device_Library/Class/CDC/Src/usbd_cdc.c ****   CDCOutEpAdd = USBD_CoreGetEPAdd(pdev, USBD_EP_OUT, USBD_EP_TYPE_BULK, (uint8_t)pdev->classId);
 860:Middlewares/ST/STM32_USB_Device_Library/Class/CDC/Src/usbd_cdc.c **** #endif /* USE_USBD_COMPOSITE */
 861:Middlewares/ST/STM32_USB_Device_Library/Class/CDC/Src/usbd_cdc.c **** 
 862:Middlewares/ST/STM32_USB_Device_Library/Class/CDC/Src/usbd_cdc.c ****   if (pdev->pClassDataCmsit[pdev->classId] == NULL)
 1892              		.loc 1 862 33
 1893 0018 7B68     		ldr	r3, [r7, #4]
 1894 001a D3F8D422 		ldr	r2, [r3, #724]
 1895              		.loc 1 862 28
 1896 001e 7B68     		ldr	r3, [r7, #4]
 1897 0020 B032     		adds	r2, r2, #176
 1898 0022 53F82230 		ldr	r3, [r3, r2, lsl #2]
 1899              		.loc 1 862 6
 1900 0026 002B     		cmp	r3, #0
 1901 0028 01D1     		bne	.L95
 863:Middlewares/ST/STM32_USB_Device_Library/Class/CDC/Src/usbd_cdc.c ****   {
 864:Middlewares/ST/STM32_USB_Device_Library/Class/CDC/Src/usbd_cdc.c ****     return (uint8_t)USBD_FAIL;
 1902              		.loc 1 864 12
 1903 002a 0323     		movs	r3, #3
 1904 002c 18E0     		b	.L96
 1905              	.L95:
 865:Middlewares/ST/STM32_USB_Device_Library/Class/CDC/Src/usbd_cdc.c ****   }
 866:Middlewares/ST/STM32_USB_Device_Library/Class/CDC/Src/usbd_cdc.c **** 
 867:Middlewares/ST/STM32_USB_Device_Library/Class/CDC/Src/usbd_cdc.c ****   if (pdev->dev_speed == USBD_SPEED_HIGH)
 1906              		.loc 1 867 11
 1907 002e 7B68     		ldr	r3, [r7, #4]
 1908 0030 1B7C     		ldrb	r3, [r3, #16]	@ zero_extendqisi2
 1909              		.loc 1 867 6
 1910 0032 002B     		cmp	r3, #0
 1911 0034 0AD1     		bne	.L97
 868:Middlewares/ST/STM32_USB_Device_Library/Class/CDC/Src/usbd_cdc.c ****   {
 869:Middlewares/ST/STM32_USB_Device_Library/Class/CDC/Src/usbd_cdc.c ****     /* Prepare Out endpoint to receive next packet */
 870:Middlewares/ST/STM32_USB_Device_Library/Class/CDC/Src/usbd_cdc.c ****     (void)USBD_LL_PrepareReceive(pdev, CDCOutEpAdd, hcdc->RxBuffer,
 1912              		.loc 1 870 5
 1913 0036 0C4B     		ldr	r3, .L99
 1914 0038 1978     		ldrb	r1, [r3]	@ zero_extendqisi2
 1915              		.loc 1 870 11
 1916 003a FB68     		ldr	r3, [r7, #12]
 1917 003c D3F80422 		ldr	r2, [r3, #516]
 1918 0040 4FF40073 		mov	r3, #512
 1919 0044 7868     		ldr	r0, [r7, #4]
 1920 0046 FFF7FEFF 		bl	USBD_LL_PrepareReceive
 1921 004a 08E0     		b	.L98
 1922              	.L97:
 871:Middlewares/ST/STM32_USB_Device_Library/Class/CDC/Src/usbd_cdc.c ****                                  CDC_DATA_HS_OUT_PACKET_SIZE);
 872:Middlewares/ST/STM32_USB_Device_Library/Class/CDC/Src/usbd_cdc.c ****   }
ARM GAS  C:\Users\Godwin\AppData\Local\Temp\ccIOrPOQ.s 			page 50


 873:Middlewares/ST/STM32_USB_Device_Library/Class/CDC/Src/usbd_cdc.c ****   else
 874:Middlewares/ST/STM32_USB_Device_Library/Class/CDC/Src/usbd_cdc.c ****   {
 875:Middlewares/ST/STM32_USB_Device_Library/Class/CDC/Src/usbd_cdc.c ****     /* Prepare Out endpoint to receive next packet */
 876:Middlewares/ST/STM32_USB_Device_Library/Class/CDC/Src/usbd_cdc.c ****     (void)USBD_LL_PrepareReceive(pdev, CDCOutEpAdd, hcdc->RxBuffer,
 1923              		.loc 1 876 5
 1924 004c 064B     		ldr	r3, .L99
 1925 004e 1978     		ldrb	r1, [r3]	@ zero_extendqisi2
 1926              		.loc 1 876 11
 1927 0050 FB68     		ldr	r3, [r7, #12]
 1928 0052 D3F80422 		ldr	r2, [r3, #516]
 1929 0056 4023     		movs	r3, #64
 1930 0058 7868     		ldr	r0, [r7, #4]
 1931 005a FFF7FEFF 		bl	USBD_LL_PrepareReceive
 1932              	.L98:
 877:Middlewares/ST/STM32_USB_Device_Library/Class/CDC/Src/usbd_cdc.c ****                                  CDC_DATA_FS_OUT_PACKET_SIZE);
 878:Middlewares/ST/STM32_USB_Device_Library/Class/CDC/Src/usbd_cdc.c ****   }
 879:Middlewares/ST/STM32_USB_Device_Library/Class/CDC/Src/usbd_cdc.c **** 
 880:Middlewares/ST/STM32_USB_Device_Library/Class/CDC/Src/usbd_cdc.c ****   return (uint8_t)USBD_OK;
 1933              		.loc 1 880 10
 1934 005e 0023     		movs	r3, #0
 1935              	.L96:
 881:Middlewares/ST/STM32_USB_Device_Library/Class/CDC/Src/usbd_cdc.c **** }
 1936              		.loc 1 881 1
 1937 0060 1846     		mov	r0, r3
 1938 0062 1037     		adds	r7, r7, #16
 1939              	.LCFI77:
 1940              		.cfi_def_cfa_offset 8
 1941 0064 BD46     		mov	sp, r7
 1942              	.LCFI78:
 1943              		.cfi_def_cfa_register 13
 1944              		@ sp needed
 1945 0066 80BD     		pop	{r7, pc}
 1946              	.L100:
 1947              		.align	2
 1948              	.L99:
 1949 0068 00000000 		.word	CDCOutEpAdd
 1950              		.cfi_endproc
 1951              	.LFE162:
 1953              		.text
 1954              	.Letext0:
 1955              		.file 2 "C:/Users/Godwin/13.2 Rel1/arm-none-eabi/include/machine/_default_types.h"
 1956              		.file 3 "C:/Users/Godwin/13.2 Rel1/lib/gcc/arm-none-eabi/13.2.1/include/stddef.h"
 1957              		.file 4 "C:/Users/Godwin/13.2 Rel1/arm-none-eabi/include/sys/_stdint.h"
 1958              		.file 5 "Drivers/CMSIS/Device/ST/STM32H7xx/Include/stm32h723xx.h"
 1959              		.file 6 "Drivers/STM32H7xx_HAL_Driver/Inc/stm32h7xx_hal_def.h"
 1960              		.file 7 "Drivers/STM32H7xx_HAL_Driver/Inc/stm32h7xx_ll_usb.h"
 1961              		.file 8 "Drivers/STM32H7xx_HAL_Driver/Inc/stm32h7xx_hal_pcd.h"
 1962              		.file 9 "Middlewares/ST/STM32_USB_Device_Library/Core/Inc/usbd_def.h"
 1963              		.file 10 "Middlewares/ST/STM32_USB_Device_Library/Class/CDC/Inc/usbd_cdc.h"
 1964              		.file 11 "Middlewares/ST/STM32_USB_Device_Library/Core/Inc/usbd_core.h"
 1965              		.file 12 "Middlewares/ST/STM32_USB_Device_Library/Core/Inc/usbd_ioreq.h"
 1966              		.file 13 "Middlewares/ST/STM32_USB_Device_Library/Core/Inc/usbd_ctlreq.h"
 1967              		.file 14 "USB_DEVICE/Target/usbd_conf.h"
 1968              		.file 15 "C:/Users/Godwin/13.2 Rel1/arm-none-eabi/include/string.h"
ARM GAS  C:\Users\Godwin\AppData\Local\Temp\ccIOrPOQ.s 			page 51

