ARM GAS  C:\Users\Godwin\AppData\Local\Temp\cc8eSH1G.s 			page 1


   1              		.cpu cortex-m7
   2              		.arch armv7e-m
   3              		.fpu fpv5-d16
   4              		.eabi_attribute 28, 1
   5              		.eabi_attribute 20, 1
   6              		.eabi_attribute 21, 1
   7              		.eabi_attribute 23, 3
   8              		.eabi_attribute 24, 1
   9              		.eabi_attribute 25, 1
  10              		.eabi_attribute 26, 1
  11              		.eabi_attribute 30, 6
  12              		.eabi_attribute 34, 1
  13              		.eabi_attribute 18, 4
  14              		.file	"usbd_ctlreq.c"
  15              		.text
  16              	.Ltext0:
  17              		.cfi_sections	.debug_frame
  18              		.file 1 "Middlewares/ST/STM32_USB_Device_Library/Core/Src/usbd_ctlreq.c"
  19              		.section	.text.SWAPBYTE,"ax",%progbits
  20              		.align	1
  21              		.syntax unified
  22              		.thumb
  23              		.thumb_func
  25              	SWAPBYTE:
  26              	.LFB147:
  27              		.file 2 "Middlewares/ST/STM32_USB_Device_Library/Core/Inc/usbd_def.h"
   1:Middlewares/ST/STM32_USB_Device_Library/Core/Inc/usbd_def.h **** /**
   2:Middlewares/ST/STM32_USB_Device_Library/Core/Inc/usbd_def.h ****   ******************************************************************************
   3:Middlewares/ST/STM32_USB_Device_Library/Core/Inc/usbd_def.h ****   * @file    usbd_def.h
   4:Middlewares/ST/STM32_USB_Device_Library/Core/Inc/usbd_def.h ****   * @author  MCD Application Team
   5:Middlewares/ST/STM32_USB_Device_Library/Core/Inc/usbd_def.h ****   * @brief   General defines for the usb device library
   6:Middlewares/ST/STM32_USB_Device_Library/Core/Inc/usbd_def.h ****   ******************************************************************************
   7:Middlewares/ST/STM32_USB_Device_Library/Core/Inc/usbd_def.h ****   * @attention
   8:Middlewares/ST/STM32_USB_Device_Library/Core/Inc/usbd_def.h ****   *
   9:Middlewares/ST/STM32_USB_Device_Library/Core/Inc/usbd_def.h ****   * Copyright (c) 2015 STMicroelectronics.
  10:Middlewares/ST/STM32_USB_Device_Library/Core/Inc/usbd_def.h ****   * All rights reserved.
  11:Middlewares/ST/STM32_USB_Device_Library/Core/Inc/usbd_def.h ****   *
  12:Middlewares/ST/STM32_USB_Device_Library/Core/Inc/usbd_def.h ****   * This software is licensed under terms that can be found in the LICENSE file
  13:Middlewares/ST/STM32_USB_Device_Library/Core/Inc/usbd_def.h ****   * in the root directory of this software component.
  14:Middlewares/ST/STM32_USB_Device_Library/Core/Inc/usbd_def.h ****   * If no LICENSE file comes with this software, it is provided AS-IS.
  15:Middlewares/ST/STM32_USB_Device_Library/Core/Inc/usbd_def.h ****   *
  16:Middlewares/ST/STM32_USB_Device_Library/Core/Inc/usbd_def.h ****   ******************************************************************************
  17:Middlewares/ST/STM32_USB_Device_Library/Core/Inc/usbd_def.h ****   */
  18:Middlewares/ST/STM32_USB_Device_Library/Core/Inc/usbd_def.h **** 
  19:Middlewares/ST/STM32_USB_Device_Library/Core/Inc/usbd_def.h **** /* Define to prevent recursive inclusion -------------------------------------*/
  20:Middlewares/ST/STM32_USB_Device_Library/Core/Inc/usbd_def.h **** #ifndef __USBD_DEF_H
  21:Middlewares/ST/STM32_USB_Device_Library/Core/Inc/usbd_def.h **** #define __USBD_DEF_H
  22:Middlewares/ST/STM32_USB_Device_Library/Core/Inc/usbd_def.h **** 
  23:Middlewares/ST/STM32_USB_Device_Library/Core/Inc/usbd_def.h **** #ifdef __cplusplus
  24:Middlewares/ST/STM32_USB_Device_Library/Core/Inc/usbd_def.h **** extern "C" {
  25:Middlewares/ST/STM32_USB_Device_Library/Core/Inc/usbd_def.h **** #endif
  26:Middlewares/ST/STM32_USB_Device_Library/Core/Inc/usbd_def.h **** 
  27:Middlewares/ST/STM32_USB_Device_Library/Core/Inc/usbd_def.h **** /* Includes ------------------------------------------------------------------*/
  28:Middlewares/ST/STM32_USB_Device_Library/Core/Inc/usbd_def.h **** #include "usbd_conf.h"
  29:Middlewares/ST/STM32_USB_Device_Library/Core/Inc/usbd_def.h **** 
  30:Middlewares/ST/STM32_USB_Device_Library/Core/Inc/usbd_def.h **** /** @addtogroup STM32_USBD_DEVICE_LIBRARY
  31:Middlewares/ST/STM32_USB_Device_Library/Core/Inc/usbd_def.h ****   * @{
ARM GAS  C:\Users\Godwin\AppData\Local\Temp\cc8eSH1G.s 			page 2


  32:Middlewares/ST/STM32_USB_Device_Library/Core/Inc/usbd_def.h ****   */
  33:Middlewares/ST/STM32_USB_Device_Library/Core/Inc/usbd_def.h **** 
  34:Middlewares/ST/STM32_USB_Device_Library/Core/Inc/usbd_def.h **** /** @defgroup USB_DEF
  35:Middlewares/ST/STM32_USB_Device_Library/Core/Inc/usbd_def.h ****   * @brief general defines for the usb device library file
  36:Middlewares/ST/STM32_USB_Device_Library/Core/Inc/usbd_def.h ****   * @{
  37:Middlewares/ST/STM32_USB_Device_Library/Core/Inc/usbd_def.h ****   */
  38:Middlewares/ST/STM32_USB_Device_Library/Core/Inc/usbd_def.h **** 
  39:Middlewares/ST/STM32_USB_Device_Library/Core/Inc/usbd_def.h **** /** @defgroup USB_DEF_Exported_Defines
  40:Middlewares/ST/STM32_USB_Device_Library/Core/Inc/usbd_def.h ****   * @{
  41:Middlewares/ST/STM32_USB_Device_Library/Core/Inc/usbd_def.h ****   */
  42:Middlewares/ST/STM32_USB_Device_Library/Core/Inc/usbd_def.h **** 
  43:Middlewares/ST/STM32_USB_Device_Library/Core/Inc/usbd_def.h **** #ifndef NULL
  44:Middlewares/ST/STM32_USB_Device_Library/Core/Inc/usbd_def.h **** #define NULL                                            0U
  45:Middlewares/ST/STM32_USB_Device_Library/Core/Inc/usbd_def.h **** #endif /* NULL */
  46:Middlewares/ST/STM32_USB_Device_Library/Core/Inc/usbd_def.h **** 
  47:Middlewares/ST/STM32_USB_Device_Library/Core/Inc/usbd_def.h **** #ifndef USBD_MAX_NUM_INTERFACES
  48:Middlewares/ST/STM32_USB_Device_Library/Core/Inc/usbd_def.h **** #define USBD_MAX_NUM_INTERFACES                         1U
  49:Middlewares/ST/STM32_USB_Device_Library/Core/Inc/usbd_def.h **** #endif /* USBD_MAX_NUM_CONFIGURATION */
  50:Middlewares/ST/STM32_USB_Device_Library/Core/Inc/usbd_def.h **** 
  51:Middlewares/ST/STM32_USB_Device_Library/Core/Inc/usbd_def.h **** #ifndef USBD_MAX_NUM_CONFIGURATION
  52:Middlewares/ST/STM32_USB_Device_Library/Core/Inc/usbd_def.h **** #define USBD_MAX_NUM_CONFIGURATION                      1U
  53:Middlewares/ST/STM32_USB_Device_Library/Core/Inc/usbd_def.h **** #endif /* USBD_MAX_NUM_CONFIGURATION */
  54:Middlewares/ST/STM32_USB_Device_Library/Core/Inc/usbd_def.h **** 
  55:Middlewares/ST/STM32_USB_Device_Library/Core/Inc/usbd_def.h **** #ifdef USE_USBD_COMPOSITE
  56:Middlewares/ST/STM32_USB_Device_Library/Core/Inc/usbd_def.h **** #ifndef USBD_MAX_SUPPORTED_CLASS
  57:Middlewares/ST/STM32_USB_Device_Library/Core/Inc/usbd_def.h **** #define USBD_MAX_SUPPORTED_CLASS                       4U
  58:Middlewares/ST/STM32_USB_Device_Library/Core/Inc/usbd_def.h **** #endif /* USBD_MAX_SUPPORTED_CLASS */
  59:Middlewares/ST/STM32_USB_Device_Library/Core/Inc/usbd_def.h **** #else
  60:Middlewares/ST/STM32_USB_Device_Library/Core/Inc/usbd_def.h **** #ifndef USBD_MAX_SUPPORTED_CLASS
  61:Middlewares/ST/STM32_USB_Device_Library/Core/Inc/usbd_def.h **** #define USBD_MAX_SUPPORTED_CLASS                       1U
  62:Middlewares/ST/STM32_USB_Device_Library/Core/Inc/usbd_def.h **** #endif /* USBD_MAX_SUPPORTED_CLASS */
  63:Middlewares/ST/STM32_USB_Device_Library/Core/Inc/usbd_def.h **** #endif /* USE_USBD_COMPOSITE */
  64:Middlewares/ST/STM32_USB_Device_Library/Core/Inc/usbd_def.h **** 
  65:Middlewares/ST/STM32_USB_Device_Library/Core/Inc/usbd_def.h **** #ifndef USBD_MAX_CLASS_ENDPOINTS
  66:Middlewares/ST/STM32_USB_Device_Library/Core/Inc/usbd_def.h **** #define USBD_MAX_CLASS_ENDPOINTS                       5U
  67:Middlewares/ST/STM32_USB_Device_Library/Core/Inc/usbd_def.h **** #endif /* USBD_MAX_CLASS_ENDPOINTS */
  68:Middlewares/ST/STM32_USB_Device_Library/Core/Inc/usbd_def.h **** 
  69:Middlewares/ST/STM32_USB_Device_Library/Core/Inc/usbd_def.h **** #ifndef USBD_MAX_CLASS_INTERFACES
  70:Middlewares/ST/STM32_USB_Device_Library/Core/Inc/usbd_def.h **** #define USBD_MAX_CLASS_INTERFACES                      5U
  71:Middlewares/ST/STM32_USB_Device_Library/Core/Inc/usbd_def.h **** #endif /* USBD_MAX_CLASS_INTERFACES */
  72:Middlewares/ST/STM32_USB_Device_Library/Core/Inc/usbd_def.h **** 
  73:Middlewares/ST/STM32_USB_Device_Library/Core/Inc/usbd_def.h **** #ifndef USBD_LPM_ENABLED
  74:Middlewares/ST/STM32_USB_Device_Library/Core/Inc/usbd_def.h **** #define USBD_LPM_ENABLED                                0U
  75:Middlewares/ST/STM32_USB_Device_Library/Core/Inc/usbd_def.h **** #endif /* USBD_LPM_ENABLED */
  76:Middlewares/ST/STM32_USB_Device_Library/Core/Inc/usbd_def.h **** 
  77:Middlewares/ST/STM32_USB_Device_Library/Core/Inc/usbd_def.h **** #ifndef USBD_SELF_POWERED
  78:Middlewares/ST/STM32_USB_Device_Library/Core/Inc/usbd_def.h **** #define USBD_SELF_POWERED                               1U
  79:Middlewares/ST/STM32_USB_Device_Library/Core/Inc/usbd_def.h **** #endif /*USBD_SELF_POWERED */
  80:Middlewares/ST/STM32_USB_Device_Library/Core/Inc/usbd_def.h **** 
  81:Middlewares/ST/STM32_USB_Device_Library/Core/Inc/usbd_def.h **** #ifndef USBD_MAX_POWER
  82:Middlewares/ST/STM32_USB_Device_Library/Core/Inc/usbd_def.h **** #define USBD_MAX_POWER                                  0x32U /* 100 mA */
  83:Middlewares/ST/STM32_USB_Device_Library/Core/Inc/usbd_def.h **** #endif /* USBD_MAX_POWER */
  84:Middlewares/ST/STM32_USB_Device_Library/Core/Inc/usbd_def.h **** 
  85:Middlewares/ST/STM32_USB_Device_Library/Core/Inc/usbd_def.h **** #ifndef USBD_SUPPORT_USER_STRING_DESC
  86:Middlewares/ST/STM32_USB_Device_Library/Core/Inc/usbd_def.h **** #define USBD_SUPPORT_USER_STRING_DESC                   0U
  87:Middlewares/ST/STM32_USB_Device_Library/Core/Inc/usbd_def.h **** #endif /* USBD_SUPPORT_USER_STRING_DESC */
  88:Middlewares/ST/STM32_USB_Device_Library/Core/Inc/usbd_def.h **** 
ARM GAS  C:\Users\Godwin\AppData\Local\Temp\cc8eSH1G.s 			page 3


  89:Middlewares/ST/STM32_USB_Device_Library/Core/Inc/usbd_def.h **** #ifndef USBD_CLASS_USER_STRING_DESC
  90:Middlewares/ST/STM32_USB_Device_Library/Core/Inc/usbd_def.h **** #define USBD_CLASS_USER_STRING_DESC                     0U
  91:Middlewares/ST/STM32_USB_Device_Library/Core/Inc/usbd_def.h **** #endif /* USBD_CLASS_USER_STRING_DESC */
  92:Middlewares/ST/STM32_USB_Device_Library/Core/Inc/usbd_def.h **** 
  93:Middlewares/ST/STM32_USB_Device_Library/Core/Inc/usbd_def.h **** #define  USB_LEN_DEV_QUALIFIER_DESC                     0x0AU
  94:Middlewares/ST/STM32_USB_Device_Library/Core/Inc/usbd_def.h **** #define  USB_LEN_DEV_DESC                               0x12U
  95:Middlewares/ST/STM32_USB_Device_Library/Core/Inc/usbd_def.h **** #define  USB_LEN_CFG_DESC                               0x09U
  96:Middlewares/ST/STM32_USB_Device_Library/Core/Inc/usbd_def.h **** #define  USB_LEN_IF_DESC                                0x09U
  97:Middlewares/ST/STM32_USB_Device_Library/Core/Inc/usbd_def.h **** #define  USB_LEN_EP_DESC                                0x07U
  98:Middlewares/ST/STM32_USB_Device_Library/Core/Inc/usbd_def.h **** #define  USB_LEN_OTG_DESC                               0x03U
  99:Middlewares/ST/STM32_USB_Device_Library/Core/Inc/usbd_def.h **** #define  USB_LEN_LANGID_STR_DESC                        0x04U
 100:Middlewares/ST/STM32_USB_Device_Library/Core/Inc/usbd_def.h **** #define  USB_LEN_OTHER_SPEED_DESC_SIZ                   0x09U
 101:Middlewares/ST/STM32_USB_Device_Library/Core/Inc/usbd_def.h **** 
 102:Middlewares/ST/STM32_USB_Device_Library/Core/Inc/usbd_def.h **** #define  USBD_IDX_LANGID_STR                            0x00U
 103:Middlewares/ST/STM32_USB_Device_Library/Core/Inc/usbd_def.h **** #define  USBD_IDX_MFC_STR                               0x01U
 104:Middlewares/ST/STM32_USB_Device_Library/Core/Inc/usbd_def.h **** #define  USBD_IDX_PRODUCT_STR                           0x02U
 105:Middlewares/ST/STM32_USB_Device_Library/Core/Inc/usbd_def.h **** #define  USBD_IDX_SERIAL_STR                            0x03U
 106:Middlewares/ST/STM32_USB_Device_Library/Core/Inc/usbd_def.h **** #define  USBD_IDX_CONFIG_STR                            0x04U
 107:Middlewares/ST/STM32_USB_Device_Library/Core/Inc/usbd_def.h **** #define  USBD_IDX_INTERFACE_STR                         0x05U
 108:Middlewares/ST/STM32_USB_Device_Library/Core/Inc/usbd_def.h **** 
 109:Middlewares/ST/STM32_USB_Device_Library/Core/Inc/usbd_def.h **** #define  USB_REQ_TYPE_STANDARD                          0x00U
 110:Middlewares/ST/STM32_USB_Device_Library/Core/Inc/usbd_def.h **** #define  USB_REQ_TYPE_CLASS                             0x20U
 111:Middlewares/ST/STM32_USB_Device_Library/Core/Inc/usbd_def.h **** #define  USB_REQ_TYPE_VENDOR                            0x40U
 112:Middlewares/ST/STM32_USB_Device_Library/Core/Inc/usbd_def.h **** #define  USB_REQ_TYPE_MASK                              0x60U
 113:Middlewares/ST/STM32_USB_Device_Library/Core/Inc/usbd_def.h **** 
 114:Middlewares/ST/STM32_USB_Device_Library/Core/Inc/usbd_def.h **** #define  USB_REQ_RECIPIENT_DEVICE                       0x00U
 115:Middlewares/ST/STM32_USB_Device_Library/Core/Inc/usbd_def.h **** #define  USB_REQ_RECIPIENT_INTERFACE                    0x01U
 116:Middlewares/ST/STM32_USB_Device_Library/Core/Inc/usbd_def.h **** #define  USB_REQ_RECIPIENT_ENDPOINT                     0x02U
 117:Middlewares/ST/STM32_USB_Device_Library/Core/Inc/usbd_def.h **** #define  USB_REQ_RECIPIENT_MASK                         0x03U
 118:Middlewares/ST/STM32_USB_Device_Library/Core/Inc/usbd_def.h **** 
 119:Middlewares/ST/STM32_USB_Device_Library/Core/Inc/usbd_def.h **** #define  USB_REQ_GET_STATUS                             0x00U
 120:Middlewares/ST/STM32_USB_Device_Library/Core/Inc/usbd_def.h **** #define  USB_REQ_CLEAR_FEATURE                          0x01U
 121:Middlewares/ST/STM32_USB_Device_Library/Core/Inc/usbd_def.h **** #define  USB_REQ_SET_FEATURE                            0x03U
 122:Middlewares/ST/STM32_USB_Device_Library/Core/Inc/usbd_def.h **** #define  USB_REQ_SET_ADDRESS                            0x05U
 123:Middlewares/ST/STM32_USB_Device_Library/Core/Inc/usbd_def.h **** #define  USB_REQ_GET_DESCRIPTOR                         0x06U
 124:Middlewares/ST/STM32_USB_Device_Library/Core/Inc/usbd_def.h **** #define  USB_REQ_SET_DESCRIPTOR                         0x07U
 125:Middlewares/ST/STM32_USB_Device_Library/Core/Inc/usbd_def.h **** #define  USB_REQ_GET_CONFIGURATION                      0x08U
 126:Middlewares/ST/STM32_USB_Device_Library/Core/Inc/usbd_def.h **** #define  USB_REQ_SET_CONFIGURATION                      0x09U
 127:Middlewares/ST/STM32_USB_Device_Library/Core/Inc/usbd_def.h **** #define  USB_REQ_GET_INTERFACE                          0x0AU
 128:Middlewares/ST/STM32_USB_Device_Library/Core/Inc/usbd_def.h **** #define  USB_REQ_SET_INTERFACE                          0x0BU
 129:Middlewares/ST/STM32_USB_Device_Library/Core/Inc/usbd_def.h **** #define  USB_REQ_SYNCH_FRAME                            0x0CU
 130:Middlewares/ST/STM32_USB_Device_Library/Core/Inc/usbd_def.h **** 
 131:Middlewares/ST/STM32_USB_Device_Library/Core/Inc/usbd_def.h **** #define  USB_DESC_TYPE_DEVICE                           0x01U
 132:Middlewares/ST/STM32_USB_Device_Library/Core/Inc/usbd_def.h **** #define  USB_DESC_TYPE_CONFIGURATION                    0x02U
 133:Middlewares/ST/STM32_USB_Device_Library/Core/Inc/usbd_def.h **** #define  USB_DESC_TYPE_STRING                           0x03U
 134:Middlewares/ST/STM32_USB_Device_Library/Core/Inc/usbd_def.h **** #define  USB_DESC_TYPE_INTERFACE                        0x04U
 135:Middlewares/ST/STM32_USB_Device_Library/Core/Inc/usbd_def.h **** #define  USB_DESC_TYPE_ENDPOINT                         0x05U
 136:Middlewares/ST/STM32_USB_Device_Library/Core/Inc/usbd_def.h **** #define  USB_DESC_TYPE_DEVICE_QUALIFIER                 0x06U
 137:Middlewares/ST/STM32_USB_Device_Library/Core/Inc/usbd_def.h **** #define  USB_DESC_TYPE_OTHER_SPEED_CONFIGURATION        0x07U
 138:Middlewares/ST/STM32_USB_Device_Library/Core/Inc/usbd_def.h **** #define  USB_DESC_TYPE_IAD                              0x0BU
 139:Middlewares/ST/STM32_USB_Device_Library/Core/Inc/usbd_def.h **** #define  USB_DESC_TYPE_BOS                              0x0FU
 140:Middlewares/ST/STM32_USB_Device_Library/Core/Inc/usbd_def.h **** 
 141:Middlewares/ST/STM32_USB_Device_Library/Core/Inc/usbd_def.h **** #define USB_CONFIG_REMOTE_WAKEUP                        0x02U
 142:Middlewares/ST/STM32_USB_Device_Library/Core/Inc/usbd_def.h **** #define USB_CONFIG_SELF_POWERED                         0x01U
 143:Middlewares/ST/STM32_USB_Device_Library/Core/Inc/usbd_def.h **** 
 144:Middlewares/ST/STM32_USB_Device_Library/Core/Inc/usbd_def.h **** #define USB_FEATURE_EP_HALT                             0x00U
 145:Middlewares/ST/STM32_USB_Device_Library/Core/Inc/usbd_def.h **** #define USB_FEATURE_REMOTE_WAKEUP                       0x01U
ARM GAS  C:\Users\Godwin\AppData\Local\Temp\cc8eSH1G.s 			page 4


 146:Middlewares/ST/STM32_USB_Device_Library/Core/Inc/usbd_def.h **** #define USB_FEATURE_TEST_MODE                           0x02U
 147:Middlewares/ST/STM32_USB_Device_Library/Core/Inc/usbd_def.h **** 
 148:Middlewares/ST/STM32_USB_Device_Library/Core/Inc/usbd_def.h **** #define USB_DEVICE_CAPABITY_TYPE                        0x10U
 149:Middlewares/ST/STM32_USB_Device_Library/Core/Inc/usbd_def.h **** 
 150:Middlewares/ST/STM32_USB_Device_Library/Core/Inc/usbd_def.h **** #define USB_CONF_DESC_SIZE                              0x09U
 151:Middlewares/ST/STM32_USB_Device_Library/Core/Inc/usbd_def.h **** #define USB_IF_DESC_SIZE                                0x09U
 152:Middlewares/ST/STM32_USB_Device_Library/Core/Inc/usbd_def.h **** #define USB_EP_DESC_SIZE                                0x07U
 153:Middlewares/ST/STM32_USB_Device_Library/Core/Inc/usbd_def.h **** #define USB_IAD_DESC_SIZE                               0x08U
 154:Middlewares/ST/STM32_USB_Device_Library/Core/Inc/usbd_def.h **** 
 155:Middlewares/ST/STM32_USB_Device_Library/Core/Inc/usbd_def.h **** #define USB_HS_MAX_PACKET_SIZE                          512U
 156:Middlewares/ST/STM32_USB_Device_Library/Core/Inc/usbd_def.h **** #define USB_FS_MAX_PACKET_SIZE                          64U
 157:Middlewares/ST/STM32_USB_Device_Library/Core/Inc/usbd_def.h **** #define USB_MAX_EP0_SIZE                                64U
 158:Middlewares/ST/STM32_USB_Device_Library/Core/Inc/usbd_def.h **** 
 159:Middlewares/ST/STM32_USB_Device_Library/Core/Inc/usbd_def.h **** /*  Device Status */
 160:Middlewares/ST/STM32_USB_Device_Library/Core/Inc/usbd_def.h **** #define USBD_STATE_DEFAULT                              0x01U
 161:Middlewares/ST/STM32_USB_Device_Library/Core/Inc/usbd_def.h **** #define USBD_STATE_ADDRESSED                            0x02U
 162:Middlewares/ST/STM32_USB_Device_Library/Core/Inc/usbd_def.h **** #define USBD_STATE_CONFIGURED                           0x03U
 163:Middlewares/ST/STM32_USB_Device_Library/Core/Inc/usbd_def.h **** #define USBD_STATE_SUSPENDED                            0x04U
 164:Middlewares/ST/STM32_USB_Device_Library/Core/Inc/usbd_def.h **** 
 165:Middlewares/ST/STM32_USB_Device_Library/Core/Inc/usbd_def.h **** 
 166:Middlewares/ST/STM32_USB_Device_Library/Core/Inc/usbd_def.h **** /*  EP0 State */
 167:Middlewares/ST/STM32_USB_Device_Library/Core/Inc/usbd_def.h **** #define USBD_EP0_IDLE                                   0x00U
 168:Middlewares/ST/STM32_USB_Device_Library/Core/Inc/usbd_def.h **** #define USBD_EP0_SETUP                                  0x01U
 169:Middlewares/ST/STM32_USB_Device_Library/Core/Inc/usbd_def.h **** #define USBD_EP0_DATA_IN                                0x02U
 170:Middlewares/ST/STM32_USB_Device_Library/Core/Inc/usbd_def.h **** #define USBD_EP0_DATA_OUT                               0x03U
 171:Middlewares/ST/STM32_USB_Device_Library/Core/Inc/usbd_def.h **** #define USBD_EP0_STATUS_IN                              0x04U
 172:Middlewares/ST/STM32_USB_Device_Library/Core/Inc/usbd_def.h **** #define USBD_EP0_STATUS_OUT                             0x05U
 173:Middlewares/ST/STM32_USB_Device_Library/Core/Inc/usbd_def.h **** #define USBD_EP0_STALL                                  0x06U
 174:Middlewares/ST/STM32_USB_Device_Library/Core/Inc/usbd_def.h **** 
 175:Middlewares/ST/STM32_USB_Device_Library/Core/Inc/usbd_def.h **** #define USBD_EP_TYPE_CTRL                               0x00U
 176:Middlewares/ST/STM32_USB_Device_Library/Core/Inc/usbd_def.h **** #define USBD_EP_TYPE_ISOC                               0x01U
 177:Middlewares/ST/STM32_USB_Device_Library/Core/Inc/usbd_def.h **** #define USBD_EP_TYPE_BULK                               0x02U
 178:Middlewares/ST/STM32_USB_Device_Library/Core/Inc/usbd_def.h **** #define USBD_EP_TYPE_INTR                               0x03U
 179:Middlewares/ST/STM32_USB_Device_Library/Core/Inc/usbd_def.h **** 
 180:Middlewares/ST/STM32_USB_Device_Library/Core/Inc/usbd_def.h **** #ifdef USE_USBD_COMPOSITE
 181:Middlewares/ST/STM32_USB_Device_Library/Core/Inc/usbd_def.h **** #define USBD_EP_IN                                      0x80U
 182:Middlewares/ST/STM32_USB_Device_Library/Core/Inc/usbd_def.h **** #define USBD_EP_OUT                                     0x00U
 183:Middlewares/ST/STM32_USB_Device_Library/Core/Inc/usbd_def.h **** #define USBD_FUNC_DESCRIPTOR_TYPE                       0x24U
 184:Middlewares/ST/STM32_USB_Device_Library/Core/Inc/usbd_def.h **** #define USBD_DESC_SUBTYPE_ACM                           0x0FU
 185:Middlewares/ST/STM32_USB_Device_Library/Core/Inc/usbd_def.h **** #define USBD_DESC_ECM_BCD_LOW                           0x00U
 186:Middlewares/ST/STM32_USB_Device_Library/Core/Inc/usbd_def.h **** #define USBD_DESC_ECM_BCD_HIGH                          0x10U
 187:Middlewares/ST/STM32_USB_Device_Library/Core/Inc/usbd_def.h **** #endif /* USE_USBD_COMPOSITE */
 188:Middlewares/ST/STM32_USB_Device_Library/Core/Inc/usbd_def.h **** /**
 189:Middlewares/ST/STM32_USB_Device_Library/Core/Inc/usbd_def.h ****   * @}
 190:Middlewares/ST/STM32_USB_Device_Library/Core/Inc/usbd_def.h ****   */
 191:Middlewares/ST/STM32_USB_Device_Library/Core/Inc/usbd_def.h **** 
 192:Middlewares/ST/STM32_USB_Device_Library/Core/Inc/usbd_def.h **** 
 193:Middlewares/ST/STM32_USB_Device_Library/Core/Inc/usbd_def.h **** /** @defgroup USBD_DEF_Exported_TypesDefinitions
 194:Middlewares/ST/STM32_USB_Device_Library/Core/Inc/usbd_def.h ****   * @{
 195:Middlewares/ST/STM32_USB_Device_Library/Core/Inc/usbd_def.h ****   */
 196:Middlewares/ST/STM32_USB_Device_Library/Core/Inc/usbd_def.h **** 
 197:Middlewares/ST/STM32_USB_Device_Library/Core/Inc/usbd_def.h **** typedef  struct  usb_setup_req
 198:Middlewares/ST/STM32_USB_Device_Library/Core/Inc/usbd_def.h **** {
 199:Middlewares/ST/STM32_USB_Device_Library/Core/Inc/usbd_def.h ****   uint8_t   bmRequest;
 200:Middlewares/ST/STM32_USB_Device_Library/Core/Inc/usbd_def.h ****   uint8_t   bRequest;
 201:Middlewares/ST/STM32_USB_Device_Library/Core/Inc/usbd_def.h ****   uint16_t  wValue;
 202:Middlewares/ST/STM32_USB_Device_Library/Core/Inc/usbd_def.h ****   uint16_t  wIndex;
ARM GAS  C:\Users\Godwin\AppData\Local\Temp\cc8eSH1G.s 			page 5


 203:Middlewares/ST/STM32_USB_Device_Library/Core/Inc/usbd_def.h ****   uint16_t  wLength;
 204:Middlewares/ST/STM32_USB_Device_Library/Core/Inc/usbd_def.h **** } USBD_SetupReqTypedef;
 205:Middlewares/ST/STM32_USB_Device_Library/Core/Inc/usbd_def.h **** 
 206:Middlewares/ST/STM32_USB_Device_Library/Core/Inc/usbd_def.h **** typedef struct
 207:Middlewares/ST/STM32_USB_Device_Library/Core/Inc/usbd_def.h **** {
 208:Middlewares/ST/STM32_USB_Device_Library/Core/Inc/usbd_def.h ****   uint8_t   bLength;
 209:Middlewares/ST/STM32_USB_Device_Library/Core/Inc/usbd_def.h ****   uint8_t   bDescriptorType;
 210:Middlewares/ST/STM32_USB_Device_Library/Core/Inc/usbd_def.h ****   uint16_t  wTotalLength;
 211:Middlewares/ST/STM32_USB_Device_Library/Core/Inc/usbd_def.h ****   uint8_t   bNumInterfaces;
 212:Middlewares/ST/STM32_USB_Device_Library/Core/Inc/usbd_def.h ****   uint8_t   bConfigurationValue;
 213:Middlewares/ST/STM32_USB_Device_Library/Core/Inc/usbd_def.h ****   uint8_t   iConfiguration;
 214:Middlewares/ST/STM32_USB_Device_Library/Core/Inc/usbd_def.h ****   uint8_t   bmAttributes;
 215:Middlewares/ST/STM32_USB_Device_Library/Core/Inc/usbd_def.h ****   uint8_t   bMaxPower;
 216:Middlewares/ST/STM32_USB_Device_Library/Core/Inc/usbd_def.h **** } __PACKED USBD_ConfigDescTypeDef;
 217:Middlewares/ST/STM32_USB_Device_Library/Core/Inc/usbd_def.h **** 
 218:Middlewares/ST/STM32_USB_Device_Library/Core/Inc/usbd_def.h **** typedef struct
 219:Middlewares/ST/STM32_USB_Device_Library/Core/Inc/usbd_def.h **** {
 220:Middlewares/ST/STM32_USB_Device_Library/Core/Inc/usbd_def.h ****   uint8_t   bLength;
 221:Middlewares/ST/STM32_USB_Device_Library/Core/Inc/usbd_def.h ****   uint8_t   bDescriptorType;
 222:Middlewares/ST/STM32_USB_Device_Library/Core/Inc/usbd_def.h ****   uint16_t  wTotalLength;
 223:Middlewares/ST/STM32_USB_Device_Library/Core/Inc/usbd_def.h ****   uint8_t   bNumDeviceCaps;
 224:Middlewares/ST/STM32_USB_Device_Library/Core/Inc/usbd_def.h **** } USBD_BosDescTypeDef;
 225:Middlewares/ST/STM32_USB_Device_Library/Core/Inc/usbd_def.h **** 
 226:Middlewares/ST/STM32_USB_Device_Library/Core/Inc/usbd_def.h **** typedef struct
 227:Middlewares/ST/STM32_USB_Device_Library/Core/Inc/usbd_def.h **** {
 228:Middlewares/ST/STM32_USB_Device_Library/Core/Inc/usbd_def.h ****   uint8_t   bLength;
 229:Middlewares/ST/STM32_USB_Device_Library/Core/Inc/usbd_def.h ****   uint8_t   bDescriptorType;
 230:Middlewares/ST/STM32_USB_Device_Library/Core/Inc/usbd_def.h ****   uint8_t   bEndpointAddress;
 231:Middlewares/ST/STM32_USB_Device_Library/Core/Inc/usbd_def.h ****   uint8_t   bmAttributes;
 232:Middlewares/ST/STM32_USB_Device_Library/Core/Inc/usbd_def.h ****   uint16_t  wMaxPacketSize;
 233:Middlewares/ST/STM32_USB_Device_Library/Core/Inc/usbd_def.h ****   uint8_t   bInterval;
 234:Middlewares/ST/STM32_USB_Device_Library/Core/Inc/usbd_def.h **** } __PACKED USBD_EpDescTypeDef;
 235:Middlewares/ST/STM32_USB_Device_Library/Core/Inc/usbd_def.h **** 
 236:Middlewares/ST/STM32_USB_Device_Library/Core/Inc/usbd_def.h **** typedef  struct
 237:Middlewares/ST/STM32_USB_Device_Library/Core/Inc/usbd_def.h **** {
 238:Middlewares/ST/STM32_USB_Device_Library/Core/Inc/usbd_def.h ****   uint8_t  bLength;
 239:Middlewares/ST/STM32_USB_Device_Library/Core/Inc/usbd_def.h ****   uint8_t  bDescriptorType;
 240:Middlewares/ST/STM32_USB_Device_Library/Core/Inc/usbd_def.h ****   uint8_t  bDescriptorSubType;
 241:Middlewares/ST/STM32_USB_Device_Library/Core/Inc/usbd_def.h **** } USBD_DescHeaderTypeDef;
 242:Middlewares/ST/STM32_USB_Device_Library/Core/Inc/usbd_def.h **** 
 243:Middlewares/ST/STM32_USB_Device_Library/Core/Inc/usbd_def.h **** struct _USBD_HandleTypeDef;
 244:Middlewares/ST/STM32_USB_Device_Library/Core/Inc/usbd_def.h **** 
 245:Middlewares/ST/STM32_USB_Device_Library/Core/Inc/usbd_def.h **** typedef struct _Device_cb
 246:Middlewares/ST/STM32_USB_Device_Library/Core/Inc/usbd_def.h **** {
 247:Middlewares/ST/STM32_USB_Device_Library/Core/Inc/usbd_def.h ****   uint8_t (*Init)(struct _USBD_HandleTypeDef *pdev, uint8_t cfgidx);
 248:Middlewares/ST/STM32_USB_Device_Library/Core/Inc/usbd_def.h ****   uint8_t (*DeInit)(struct _USBD_HandleTypeDef *pdev, uint8_t cfgidx);
 249:Middlewares/ST/STM32_USB_Device_Library/Core/Inc/usbd_def.h ****   /* Control Endpoints*/
 250:Middlewares/ST/STM32_USB_Device_Library/Core/Inc/usbd_def.h ****   uint8_t (*Setup)(struct _USBD_HandleTypeDef *pdev, USBD_SetupReqTypedef  *req);
 251:Middlewares/ST/STM32_USB_Device_Library/Core/Inc/usbd_def.h ****   uint8_t (*EP0_TxSent)(struct _USBD_HandleTypeDef *pdev);
 252:Middlewares/ST/STM32_USB_Device_Library/Core/Inc/usbd_def.h ****   uint8_t (*EP0_RxReady)(struct _USBD_HandleTypeDef *pdev);
 253:Middlewares/ST/STM32_USB_Device_Library/Core/Inc/usbd_def.h ****   /* Class Specific Endpoints*/
 254:Middlewares/ST/STM32_USB_Device_Library/Core/Inc/usbd_def.h ****   uint8_t (*DataIn)(struct _USBD_HandleTypeDef *pdev, uint8_t epnum);
 255:Middlewares/ST/STM32_USB_Device_Library/Core/Inc/usbd_def.h ****   uint8_t (*DataOut)(struct _USBD_HandleTypeDef *pdev, uint8_t epnum);
 256:Middlewares/ST/STM32_USB_Device_Library/Core/Inc/usbd_def.h ****   uint8_t (*SOF)(struct _USBD_HandleTypeDef *pdev);
 257:Middlewares/ST/STM32_USB_Device_Library/Core/Inc/usbd_def.h ****   uint8_t (*IsoINIncomplete)(struct _USBD_HandleTypeDef *pdev, uint8_t epnum);
 258:Middlewares/ST/STM32_USB_Device_Library/Core/Inc/usbd_def.h ****   uint8_t (*IsoOUTIncomplete)(struct _USBD_HandleTypeDef *pdev, uint8_t epnum);
 259:Middlewares/ST/STM32_USB_Device_Library/Core/Inc/usbd_def.h **** 
ARM GAS  C:\Users\Godwin\AppData\Local\Temp\cc8eSH1G.s 			page 6


 260:Middlewares/ST/STM32_USB_Device_Library/Core/Inc/usbd_def.h ****   uint8_t  *(*GetHSConfigDescriptor)(uint16_t *length);
 261:Middlewares/ST/STM32_USB_Device_Library/Core/Inc/usbd_def.h ****   uint8_t  *(*GetFSConfigDescriptor)(uint16_t *length);
 262:Middlewares/ST/STM32_USB_Device_Library/Core/Inc/usbd_def.h ****   uint8_t  *(*GetOtherSpeedConfigDescriptor)(uint16_t *length);
 263:Middlewares/ST/STM32_USB_Device_Library/Core/Inc/usbd_def.h ****   uint8_t  *(*GetDeviceQualifierDescriptor)(uint16_t *length);
 264:Middlewares/ST/STM32_USB_Device_Library/Core/Inc/usbd_def.h **** #if (USBD_SUPPORT_USER_STRING_DESC == 1U)
 265:Middlewares/ST/STM32_USB_Device_Library/Core/Inc/usbd_def.h ****   uint8_t  *(*GetUsrStrDescriptor)(struct _USBD_HandleTypeDef *pdev, uint8_t index,  uint16_t *leng
 266:Middlewares/ST/STM32_USB_Device_Library/Core/Inc/usbd_def.h **** #endif /* USBD_SUPPORT_USER_STRING_DESC  */
 267:Middlewares/ST/STM32_USB_Device_Library/Core/Inc/usbd_def.h **** 
 268:Middlewares/ST/STM32_USB_Device_Library/Core/Inc/usbd_def.h **** } USBD_ClassTypeDef;
 269:Middlewares/ST/STM32_USB_Device_Library/Core/Inc/usbd_def.h **** 
 270:Middlewares/ST/STM32_USB_Device_Library/Core/Inc/usbd_def.h **** /* Following USB Device Speed */
 271:Middlewares/ST/STM32_USB_Device_Library/Core/Inc/usbd_def.h **** typedef enum
 272:Middlewares/ST/STM32_USB_Device_Library/Core/Inc/usbd_def.h **** {
 273:Middlewares/ST/STM32_USB_Device_Library/Core/Inc/usbd_def.h ****   USBD_SPEED_HIGH  = 0U,
 274:Middlewares/ST/STM32_USB_Device_Library/Core/Inc/usbd_def.h ****   USBD_SPEED_FULL  = 1U,
 275:Middlewares/ST/STM32_USB_Device_Library/Core/Inc/usbd_def.h ****   USBD_SPEED_LOW   = 2U,
 276:Middlewares/ST/STM32_USB_Device_Library/Core/Inc/usbd_def.h **** } USBD_SpeedTypeDef;
 277:Middlewares/ST/STM32_USB_Device_Library/Core/Inc/usbd_def.h **** 
 278:Middlewares/ST/STM32_USB_Device_Library/Core/Inc/usbd_def.h **** /* Following USB Device status */
 279:Middlewares/ST/STM32_USB_Device_Library/Core/Inc/usbd_def.h **** typedef enum
 280:Middlewares/ST/STM32_USB_Device_Library/Core/Inc/usbd_def.h **** {
 281:Middlewares/ST/STM32_USB_Device_Library/Core/Inc/usbd_def.h ****   USBD_OK = 0U,
 282:Middlewares/ST/STM32_USB_Device_Library/Core/Inc/usbd_def.h ****   USBD_BUSY,
 283:Middlewares/ST/STM32_USB_Device_Library/Core/Inc/usbd_def.h ****   USBD_EMEM,
 284:Middlewares/ST/STM32_USB_Device_Library/Core/Inc/usbd_def.h ****   USBD_FAIL,
 285:Middlewares/ST/STM32_USB_Device_Library/Core/Inc/usbd_def.h **** } USBD_StatusTypeDef;
 286:Middlewares/ST/STM32_USB_Device_Library/Core/Inc/usbd_def.h **** 
 287:Middlewares/ST/STM32_USB_Device_Library/Core/Inc/usbd_def.h **** /* USB Device descriptors structure */
 288:Middlewares/ST/STM32_USB_Device_Library/Core/Inc/usbd_def.h **** typedef struct
 289:Middlewares/ST/STM32_USB_Device_Library/Core/Inc/usbd_def.h **** {
 290:Middlewares/ST/STM32_USB_Device_Library/Core/Inc/usbd_def.h ****   uint8_t *(*GetDeviceDescriptor)(USBD_SpeedTypeDef speed, uint16_t *length);
 291:Middlewares/ST/STM32_USB_Device_Library/Core/Inc/usbd_def.h ****   uint8_t *(*GetLangIDStrDescriptor)(USBD_SpeedTypeDef speed, uint16_t *length);
 292:Middlewares/ST/STM32_USB_Device_Library/Core/Inc/usbd_def.h ****   uint8_t *(*GetManufacturerStrDescriptor)(USBD_SpeedTypeDef speed, uint16_t *length);
 293:Middlewares/ST/STM32_USB_Device_Library/Core/Inc/usbd_def.h ****   uint8_t *(*GetProductStrDescriptor)(USBD_SpeedTypeDef speed, uint16_t *length);
 294:Middlewares/ST/STM32_USB_Device_Library/Core/Inc/usbd_def.h ****   uint8_t *(*GetSerialStrDescriptor)(USBD_SpeedTypeDef speed, uint16_t *length);
 295:Middlewares/ST/STM32_USB_Device_Library/Core/Inc/usbd_def.h ****   uint8_t *(*GetConfigurationStrDescriptor)(USBD_SpeedTypeDef speed, uint16_t *length);
 296:Middlewares/ST/STM32_USB_Device_Library/Core/Inc/usbd_def.h ****   uint8_t *(*GetInterfaceStrDescriptor)(USBD_SpeedTypeDef speed, uint16_t *length);
 297:Middlewares/ST/STM32_USB_Device_Library/Core/Inc/usbd_def.h **** #if (USBD_CLASS_USER_STRING_DESC == 1)
 298:Middlewares/ST/STM32_USB_Device_Library/Core/Inc/usbd_def.h ****   uint8_t *(*GetUserStrDescriptor)(USBD_SpeedTypeDef speed, uint8_t idx, uint16_t *length);
 299:Middlewares/ST/STM32_USB_Device_Library/Core/Inc/usbd_def.h **** #endif /* USBD_CLASS_USER_STRING_DESC */
 300:Middlewares/ST/STM32_USB_Device_Library/Core/Inc/usbd_def.h **** #if ((USBD_LPM_ENABLED == 1U) || (USBD_CLASS_BOS_ENABLED == 1))
 301:Middlewares/ST/STM32_USB_Device_Library/Core/Inc/usbd_def.h ****   uint8_t *(*GetBOSDescriptor)(USBD_SpeedTypeDef speed, uint16_t *length);
 302:Middlewares/ST/STM32_USB_Device_Library/Core/Inc/usbd_def.h **** #endif /* (USBD_LPM_ENABLED == 1U) || (USBD_CLASS_BOS_ENABLED == 1) */
 303:Middlewares/ST/STM32_USB_Device_Library/Core/Inc/usbd_def.h **** } USBD_DescriptorsTypeDef;
 304:Middlewares/ST/STM32_USB_Device_Library/Core/Inc/usbd_def.h **** 
 305:Middlewares/ST/STM32_USB_Device_Library/Core/Inc/usbd_def.h **** /* USB Device handle structure */
 306:Middlewares/ST/STM32_USB_Device_Library/Core/Inc/usbd_def.h **** typedef struct
 307:Middlewares/ST/STM32_USB_Device_Library/Core/Inc/usbd_def.h **** {
 308:Middlewares/ST/STM32_USB_Device_Library/Core/Inc/usbd_def.h ****   uint32_t status;
 309:Middlewares/ST/STM32_USB_Device_Library/Core/Inc/usbd_def.h ****   uint32_t total_length;
 310:Middlewares/ST/STM32_USB_Device_Library/Core/Inc/usbd_def.h ****   uint32_t rem_length;
 311:Middlewares/ST/STM32_USB_Device_Library/Core/Inc/usbd_def.h ****   uint32_t maxpacket;
 312:Middlewares/ST/STM32_USB_Device_Library/Core/Inc/usbd_def.h ****   uint16_t is_used;
 313:Middlewares/ST/STM32_USB_Device_Library/Core/Inc/usbd_def.h ****   uint16_t bInterval;
 314:Middlewares/ST/STM32_USB_Device_Library/Core/Inc/usbd_def.h **** } USBD_EndpointTypeDef;
 315:Middlewares/ST/STM32_USB_Device_Library/Core/Inc/usbd_def.h **** 
 316:Middlewares/ST/STM32_USB_Device_Library/Core/Inc/usbd_def.h **** #ifdef USE_USBD_COMPOSITE
ARM GAS  C:\Users\Godwin\AppData\Local\Temp\cc8eSH1G.s 			page 7


 317:Middlewares/ST/STM32_USB_Device_Library/Core/Inc/usbd_def.h **** typedef enum
 318:Middlewares/ST/STM32_USB_Device_Library/Core/Inc/usbd_def.h **** {
 319:Middlewares/ST/STM32_USB_Device_Library/Core/Inc/usbd_def.h ****   CLASS_TYPE_NONE    = 0,
 320:Middlewares/ST/STM32_USB_Device_Library/Core/Inc/usbd_def.h ****   CLASS_TYPE_HID     = 1,
 321:Middlewares/ST/STM32_USB_Device_Library/Core/Inc/usbd_def.h ****   CLASS_TYPE_CDC     = 2,
 322:Middlewares/ST/STM32_USB_Device_Library/Core/Inc/usbd_def.h ****   CLASS_TYPE_MSC     = 3,
 323:Middlewares/ST/STM32_USB_Device_Library/Core/Inc/usbd_def.h ****   CLASS_TYPE_DFU     = 4,
 324:Middlewares/ST/STM32_USB_Device_Library/Core/Inc/usbd_def.h ****   CLASS_TYPE_CHID    = 5,
 325:Middlewares/ST/STM32_USB_Device_Library/Core/Inc/usbd_def.h ****   CLASS_TYPE_AUDIO   = 6,
 326:Middlewares/ST/STM32_USB_Device_Library/Core/Inc/usbd_def.h ****   CLASS_TYPE_ECM     = 7,
 327:Middlewares/ST/STM32_USB_Device_Library/Core/Inc/usbd_def.h ****   CLASS_TYPE_RNDIS   = 8,
 328:Middlewares/ST/STM32_USB_Device_Library/Core/Inc/usbd_def.h ****   CLASS_TYPE_MTP     = 9,
 329:Middlewares/ST/STM32_USB_Device_Library/Core/Inc/usbd_def.h ****   CLASS_TYPE_VIDEO   = 10,
 330:Middlewares/ST/STM32_USB_Device_Library/Core/Inc/usbd_def.h ****   CLASS_TYPE_PRINTER = 11,
 331:Middlewares/ST/STM32_USB_Device_Library/Core/Inc/usbd_def.h ****   CLASS_TYPE_CCID    = 12,
 332:Middlewares/ST/STM32_USB_Device_Library/Core/Inc/usbd_def.h **** } USBD_CompositeClassTypeDef;
 333:Middlewares/ST/STM32_USB_Device_Library/Core/Inc/usbd_def.h **** 
 334:Middlewares/ST/STM32_USB_Device_Library/Core/Inc/usbd_def.h **** 
 335:Middlewares/ST/STM32_USB_Device_Library/Core/Inc/usbd_def.h **** /* USB Device handle structure */
 336:Middlewares/ST/STM32_USB_Device_Library/Core/Inc/usbd_def.h **** typedef struct
 337:Middlewares/ST/STM32_USB_Device_Library/Core/Inc/usbd_def.h **** {
 338:Middlewares/ST/STM32_USB_Device_Library/Core/Inc/usbd_def.h ****   uint8_t                     add;
 339:Middlewares/ST/STM32_USB_Device_Library/Core/Inc/usbd_def.h ****   uint8_t                     type;
 340:Middlewares/ST/STM32_USB_Device_Library/Core/Inc/usbd_def.h ****   uint8_t                     size;
 341:Middlewares/ST/STM32_USB_Device_Library/Core/Inc/usbd_def.h ****   uint8_t                     is_used;
 342:Middlewares/ST/STM32_USB_Device_Library/Core/Inc/usbd_def.h **** } USBD_EPTypeDef;
 343:Middlewares/ST/STM32_USB_Device_Library/Core/Inc/usbd_def.h **** 
 344:Middlewares/ST/STM32_USB_Device_Library/Core/Inc/usbd_def.h **** /* USB Device handle structure */
 345:Middlewares/ST/STM32_USB_Device_Library/Core/Inc/usbd_def.h **** typedef struct
 346:Middlewares/ST/STM32_USB_Device_Library/Core/Inc/usbd_def.h **** {
 347:Middlewares/ST/STM32_USB_Device_Library/Core/Inc/usbd_def.h ****   USBD_CompositeClassTypeDef   ClassType;
 348:Middlewares/ST/STM32_USB_Device_Library/Core/Inc/usbd_def.h ****   uint32_t                     ClassId;
 349:Middlewares/ST/STM32_USB_Device_Library/Core/Inc/usbd_def.h ****   uint32_t                     Active;
 350:Middlewares/ST/STM32_USB_Device_Library/Core/Inc/usbd_def.h ****   uint32_t                     NumEps;
 351:Middlewares/ST/STM32_USB_Device_Library/Core/Inc/usbd_def.h ****   USBD_EPTypeDef               Eps[USBD_MAX_CLASS_ENDPOINTS];
 352:Middlewares/ST/STM32_USB_Device_Library/Core/Inc/usbd_def.h ****   uint8_t                      *EpAdd;
 353:Middlewares/ST/STM32_USB_Device_Library/Core/Inc/usbd_def.h ****   uint32_t                     NumIf;
 354:Middlewares/ST/STM32_USB_Device_Library/Core/Inc/usbd_def.h ****   uint8_t                      Ifs[USBD_MAX_CLASS_INTERFACES];
 355:Middlewares/ST/STM32_USB_Device_Library/Core/Inc/usbd_def.h ****   uint32_t                     CurrPcktSze;
 356:Middlewares/ST/STM32_USB_Device_Library/Core/Inc/usbd_def.h **** } USBD_CompositeElementTypeDef;
 357:Middlewares/ST/STM32_USB_Device_Library/Core/Inc/usbd_def.h **** #endif /* USE_USBD_COMPOSITE */
 358:Middlewares/ST/STM32_USB_Device_Library/Core/Inc/usbd_def.h **** 
 359:Middlewares/ST/STM32_USB_Device_Library/Core/Inc/usbd_def.h **** /* USB Device handle structure */
 360:Middlewares/ST/STM32_USB_Device_Library/Core/Inc/usbd_def.h **** typedef struct _USBD_HandleTypeDef
 361:Middlewares/ST/STM32_USB_Device_Library/Core/Inc/usbd_def.h **** {
 362:Middlewares/ST/STM32_USB_Device_Library/Core/Inc/usbd_def.h ****   uint8_t                 id;
 363:Middlewares/ST/STM32_USB_Device_Library/Core/Inc/usbd_def.h ****   uint32_t                dev_config;
 364:Middlewares/ST/STM32_USB_Device_Library/Core/Inc/usbd_def.h ****   uint32_t                dev_default_config;
 365:Middlewares/ST/STM32_USB_Device_Library/Core/Inc/usbd_def.h ****   uint32_t                dev_config_status;
 366:Middlewares/ST/STM32_USB_Device_Library/Core/Inc/usbd_def.h ****   USBD_SpeedTypeDef       dev_speed;
 367:Middlewares/ST/STM32_USB_Device_Library/Core/Inc/usbd_def.h ****   USBD_EndpointTypeDef    ep_in[16];
 368:Middlewares/ST/STM32_USB_Device_Library/Core/Inc/usbd_def.h ****   USBD_EndpointTypeDef    ep_out[16];
 369:Middlewares/ST/STM32_USB_Device_Library/Core/Inc/usbd_def.h ****   __IO uint32_t           ep0_state;
 370:Middlewares/ST/STM32_USB_Device_Library/Core/Inc/usbd_def.h ****   uint32_t                ep0_data_len;
 371:Middlewares/ST/STM32_USB_Device_Library/Core/Inc/usbd_def.h ****   __IO uint8_t            dev_state;
 372:Middlewares/ST/STM32_USB_Device_Library/Core/Inc/usbd_def.h ****   __IO uint8_t            dev_old_state;
 373:Middlewares/ST/STM32_USB_Device_Library/Core/Inc/usbd_def.h ****   uint8_t                 dev_address;
ARM GAS  C:\Users\Godwin\AppData\Local\Temp\cc8eSH1G.s 			page 8


 374:Middlewares/ST/STM32_USB_Device_Library/Core/Inc/usbd_def.h ****   uint8_t                 dev_connection_status;
 375:Middlewares/ST/STM32_USB_Device_Library/Core/Inc/usbd_def.h ****   uint8_t                 dev_test_mode;
 376:Middlewares/ST/STM32_USB_Device_Library/Core/Inc/usbd_def.h ****   uint32_t                dev_remote_wakeup;
 377:Middlewares/ST/STM32_USB_Device_Library/Core/Inc/usbd_def.h ****   uint8_t                 ConfIdx;
 378:Middlewares/ST/STM32_USB_Device_Library/Core/Inc/usbd_def.h **** 
 379:Middlewares/ST/STM32_USB_Device_Library/Core/Inc/usbd_def.h ****   USBD_SetupReqTypedef    request;
 380:Middlewares/ST/STM32_USB_Device_Library/Core/Inc/usbd_def.h ****   USBD_DescriptorsTypeDef *pDesc;
 381:Middlewares/ST/STM32_USB_Device_Library/Core/Inc/usbd_def.h ****   USBD_ClassTypeDef       *pClass[USBD_MAX_SUPPORTED_CLASS];
 382:Middlewares/ST/STM32_USB_Device_Library/Core/Inc/usbd_def.h ****   void                    *pClassData;
 383:Middlewares/ST/STM32_USB_Device_Library/Core/Inc/usbd_def.h ****   void                    *pClassDataCmsit[USBD_MAX_SUPPORTED_CLASS];
 384:Middlewares/ST/STM32_USB_Device_Library/Core/Inc/usbd_def.h ****   void                    *pUserData[USBD_MAX_SUPPORTED_CLASS];
 385:Middlewares/ST/STM32_USB_Device_Library/Core/Inc/usbd_def.h ****   void                    *pData;
 386:Middlewares/ST/STM32_USB_Device_Library/Core/Inc/usbd_def.h ****   void                    *pBosDesc;
 387:Middlewares/ST/STM32_USB_Device_Library/Core/Inc/usbd_def.h ****   void                    *pConfDesc;
 388:Middlewares/ST/STM32_USB_Device_Library/Core/Inc/usbd_def.h ****   uint32_t                classId;
 389:Middlewares/ST/STM32_USB_Device_Library/Core/Inc/usbd_def.h ****   uint32_t                NumClasses;
 390:Middlewares/ST/STM32_USB_Device_Library/Core/Inc/usbd_def.h **** #ifdef USE_USBD_COMPOSITE
 391:Middlewares/ST/STM32_USB_Device_Library/Core/Inc/usbd_def.h ****   USBD_CompositeElementTypeDef tclasslist[USBD_MAX_SUPPORTED_CLASS];
 392:Middlewares/ST/STM32_USB_Device_Library/Core/Inc/usbd_def.h **** #endif /* USE_USBD_COMPOSITE */
 393:Middlewares/ST/STM32_USB_Device_Library/Core/Inc/usbd_def.h **** #if (USBD_USER_REGISTER_CALLBACK == 1U)
 394:Middlewares/ST/STM32_USB_Device_Library/Core/Inc/usbd_def.h ****   void (* DevStateCallback)(uint8_t dev_state, uint8_t cfgidx);                    /*!< User Notifi
 395:Middlewares/ST/STM32_USB_Device_Library/Core/Inc/usbd_def.h **** #endif /* USBD_USER_REGISTER_CALLBACK */
 396:Middlewares/ST/STM32_USB_Device_Library/Core/Inc/usbd_def.h **** } USBD_HandleTypeDef;
 397:Middlewares/ST/STM32_USB_Device_Library/Core/Inc/usbd_def.h **** 
 398:Middlewares/ST/STM32_USB_Device_Library/Core/Inc/usbd_def.h **** #if (USBD_USER_REGISTER_CALLBACK == 1U)
 399:Middlewares/ST/STM32_USB_Device_Library/Core/Inc/usbd_def.h **** typedef void (*USBD_DevStateCallbackTypeDef)(uint8_t dev_state, uint8_t cfgidx);   /*!< pointer to 
 400:Middlewares/ST/STM32_USB_Device_Library/Core/Inc/usbd_def.h **** #endif /* USBD_USER_REGISTER_CALLBACK */
 401:Middlewares/ST/STM32_USB_Device_Library/Core/Inc/usbd_def.h **** 
 402:Middlewares/ST/STM32_USB_Device_Library/Core/Inc/usbd_def.h **** /* USB Device endpoint direction */
 403:Middlewares/ST/STM32_USB_Device_Library/Core/Inc/usbd_def.h **** typedef enum
 404:Middlewares/ST/STM32_USB_Device_Library/Core/Inc/usbd_def.h **** {
 405:Middlewares/ST/STM32_USB_Device_Library/Core/Inc/usbd_def.h ****   OUT   = 0x00,
 406:Middlewares/ST/STM32_USB_Device_Library/Core/Inc/usbd_def.h ****   IN    = 0x80,
 407:Middlewares/ST/STM32_USB_Device_Library/Core/Inc/usbd_def.h **** } USBD_EPDirectionTypeDef;
 408:Middlewares/ST/STM32_USB_Device_Library/Core/Inc/usbd_def.h **** 
 409:Middlewares/ST/STM32_USB_Device_Library/Core/Inc/usbd_def.h **** typedef enum
 410:Middlewares/ST/STM32_USB_Device_Library/Core/Inc/usbd_def.h **** {
 411:Middlewares/ST/STM32_USB_Device_Library/Core/Inc/usbd_def.h ****   NETWORK_CONNECTION = 0x00,
 412:Middlewares/ST/STM32_USB_Device_Library/Core/Inc/usbd_def.h ****   RESPONSE_AVAILABLE = 0x01,
 413:Middlewares/ST/STM32_USB_Device_Library/Core/Inc/usbd_def.h ****   CONNECTION_SPEED_CHANGE = 0x2A
 414:Middlewares/ST/STM32_USB_Device_Library/Core/Inc/usbd_def.h **** } USBD_CDC_NotifCodeTypeDef;
 415:Middlewares/ST/STM32_USB_Device_Library/Core/Inc/usbd_def.h **** /**
 416:Middlewares/ST/STM32_USB_Device_Library/Core/Inc/usbd_def.h ****   * @}
 417:Middlewares/ST/STM32_USB_Device_Library/Core/Inc/usbd_def.h ****   */
 418:Middlewares/ST/STM32_USB_Device_Library/Core/Inc/usbd_def.h **** 
 419:Middlewares/ST/STM32_USB_Device_Library/Core/Inc/usbd_def.h **** 
 420:Middlewares/ST/STM32_USB_Device_Library/Core/Inc/usbd_def.h **** 
 421:Middlewares/ST/STM32_USB_Device_Library/Core/Inc/usbd_def.h **** /** @defgroup USBD_DEF_Exported_Macros
 422:Middlewares/ST/STM32_USB_Device_Library/Core/Inc/usbd_def.h ****   * @{
 423:Middlewares/ST/STM32_USB_Device_Library/Core/Inc/usbd_def.h ****   */
 424:Middlewares/ST/STM32_USB_Device_Library/Core/Inc/usbd_def.h **** __STATIC_INLINE uint16_t SWAPBYTE(uint8_t *addr)
 425:Middlewares/ST/STM32_USB_Device_Library/Core/Inc/usbd_def.h **** {
  28              		.loc 2 425 1
  29              		.cfi_startproc
  30              		@ args = 0, pretend = 0, frame = 24
  31              		@ frame_needed = 1, uses_anonymous_args = 0
  32              		@ link register save eliminated.
ARM GAS  C:\Users\Godwin\AppData\Local\Temp\cc8eSH1G.s 			page 9


  33 0000 80B4     		push	{r7}
  34              	.LCFI0:
  35              		.cfi_def_cfa_offset 4
  36              		.cfi_offset 7, -4
  37 0002 87B0     		sub	sp, sp, #28
  38              	.LCFI1:
  39              		.cfi_def_cfa_offset 32
  40 0004 00AF     		add	r7, sp, #0
  41              	.LCFI2:
  42              		.cfi_def_cfa_register 7
  43 0006 7860     		str	r0, [r7, #4]
 426:Middlewares/ST/STM32_USB_Device_Library/Core/Inc/usbd_def.h ****   uint16_t _SwapVal;
 427:Middlewares/ST/STM32_USB_Device_Library/Core/Inc/usbd_def.h ****   uint16_t _Byte1;
 428:Middlewares/ST/STM32_USB_Device_Library/Core/Inc/usbd_def.h ****   uint16_t _Byte2;
 429:Middlewares/ST/STM32_USB_Device_Library/Core/Inc/usbd_def.h ****   uint8_t *_pbuff = addr;
  44              		.loc 2 429 12
  45 0008 7B68     		ldr	r3, [r7, #4]
  46 000a 7B61     		str	r3, [r7, #20]
 430:Middlewares/ST/STM32_USB_Device_Library/Core/Inc/usbd_def.h **** 
 431:Middlewares/ST/STM32_USB_Device_Library/Core/Inc/usbd_def.h ****   _Byte1 = *(uint8_t *)_pbuff;
  47              		.loc 2 431 12
  48 000c 7B69     		ldr	r3, [r7, #20]
  49 000e 1B78     		ldrb	r3, [r3]	@ zero_extendqisi2
  50              		.loc 2 431 10
  51 0010 7B82     		strh	r3, [r7, #18]	@ movhi
 432:Middlewares/ST/STM32_USB_Device_Library/Core/Inc/usbd_def.h ****   _pbuff++;
  52              		.loc 2 432 9
  53 0012 7B69     		ldr	r3, [r7, #20]
  54 0014 0133     		adds	r3, r3, #1
  55 0016 7B61     		str	r3, [r7, #20]
 433:Middlewares/ST/STM32_USB_Device_Library/Core/Inc/usbd_def.h ****   _Byte2 = *(uint8_t *)_pbuff;
  56              		.loc 2 433 12
  57 0018 7B69     		ldr	r3, [r7, #20]
  58 001a 1B78     		ldrb	r3, [r3]	@ zero_extendqisi2
  59              		.loc 2 433 10
  60 001c 3B82     		strh	r3, [r7, #16]	@ movhi
 434:Middlewares/ST/STM32_USB_Device_Library/Core/Inc/usbd_def.h **** 
 435:Middlewares/ST/STM32_USB_Device_Library/Core/Inc/usbd_def.h ****   _SwapVal = (_Byte2 << 8) | _Byte1;
  61              		.loc 2 435 28
  62 001e B7F91030 		ldrsh	r3, [r7, #16]
  63 0022 1B02     		lsls	r3, r3, #8
  64 0024 1AB2     		sxth	r2, r3
  65 0026 B7F91230 		ldrsh	r3, [r7, #18]
  66 002a 1343     		orrs	r3, r3, r2
  67 002c 1BB2     		sxth	r3, r3
  68              		.loc 2 435 12
  69 002e FB81     		strh	r3, [r7, #14]	@ movhi
 436:Middlewares/ST/STM32_USB_Device_Library/Core/Inc/usbd_def.h **** 
 437:Middlewares/ST/STM32_USB_Device_Library/Core/Inc/usbd_def.h ****   return _SwapVal;
  70              		.loc 2 437 10
  71 0030 FB89     		ldrh	r3, [r7, #14]
 438:Middlewares/ST/STM32_USB_Device_Library/Core/Inc/usbd_def.h **** }
  72              		.loc 2 438 1
  73 0032 1846     		mov	r0, r3
  74 0034 1C37     		adds	r7, r7, #28
  75              	.LCFI3:
  76              		.cfi_def_cfa_offset 4
ARM GAS  C:\Users\Godwin\AppData\Local\Temp\cc8eSH1G.s 			page 10


  77 0036 BD46     		mov	sp, r7
  78              	.LCFI4:
  79              		.cfi_def_cfa_register 13
  80              		@ sp needed
  81 0038 5DF8047B 		ldr	r7, [sp], #4
  82              	.LCFI5:
  83              		.cfi_restore 7
  84              		.cfi_def_cfa_offset 0
  85 003c 7047     		bx	lr
  86              		.cfi_endproc
  87              	.LFE147:
  89              		.section	.text.USBD_StdDevReq,"ax",%progbits
  90              		.align	1
  91              		.global	USBD_StdDevReq
  92              		.syntax unified
  93              		.thumb
  94              		.thumb_func
  96              	USBD_StdDevReq:
  97              	.LFB148:
   1:Middlewares/ST/STM32_USB_Device_Library/Core/Src/usbd_ctlreq.c **** /**
   2:Middlewares/ST/STM32_USB_Device_Library/Core/Src/usbd_ctlreq.c ****   ******************************************************************************
   3:Middlewares/ST/STM32_USB_Device_Library/Core/Src/usbd_ctlreq.c ****   * @file    usbd_req.c
   4:Middlewares/ST/STM32_USB_Device_Library/Core/Src/usbd_ctlreq.c ****   * @author  MCD Application Team
   5:Middlewares/ST/STM32_USB_Device_Library/Core/Src/usbd_ctlreq.c ****   * @brief   This file provides the standard USB requests following chapter 9.
   6:Middlewares/ST/STM32_USB_Device_Library/Core/Src/usbd_ctlreq.c ****   ******************************************************************************
   7:Middlewares/ST/STM32_USB_Device_Library/Core/Src/usbd_ctlreq.c ****   * @attention
   8:Middlewares/ST/STM32_USB_Device_Library/Core/Src/usbd_ctlreq.c ****   *
   9:Middlewares/ST/STM32_USB_Device_Library/Core/Src/usbd_ctlreq.c ****   * Copyright (c) 2015 STMicroelectronics.
  10:Middlewares/ST/STM32_USB_Device_Library/Core/Src/usbd_ctlreq.c ****   * All rights reserved.
  11:Middlewares/ST/STM32_USB_Device_Library/Core/Src/usbd_ctlreq.c ****   *
  12:Middlewares/ST/STM32_USB_Device_Library/Core/Src/usbd_ctlreq.c ****   * This software is licensed under terms that can be found in the LICENSE file
  13:Middlewares/ST/STM32_USB_Device_Library/Core/Src/usbd_ctlreq.c ****   * in the root directory of this software component.
  14:Middlewares/ST/STM32_USB_Device_Library/Core/Src/usbd_ctlreq.c ****   * If no LICENSE file comes with this software, it is provided AS-IS.
  15:Middlewares/ST/STM32_USB_Device_Library/Core/Src/usbd_ctlreq.c ****   *
  16:Middlewares/ST/STM32_USB_Device_Library/Core/Src/usbd_ctlreq.c ****   ******************************************************************************
  17:Middlewares/ST/STM32_USB_Device_Library/Core/Src/usbd_ctlreq.c ****   */
  18:Middlewares/ST/STM32_USB_Device_Library/Core/Src/usbd_ctlreq.c **** 
  19:Middlewares/ST/STM32_USB_Device_Library/Core/Src/usbd_ctlreq.c **** /* Includes ------------------------------------------------------------------*/
  20:Middlewares/ST/STM32_USB_Device_Library/Core/Src/usbd_ctlreq.c **** #include "usbd_ctlreq.h"
  21:Middlewares/ST/STM32_USB_Device_Library/Core/Src/usbd_ctlreq.c **** #include "usbd_ioreq.h"
  22:Middlewares/ST/STM32_USB_Device_Library/Core/Src/usbd_ctlreq.c **** 
  23:Middlewares/ST/STM32_USB_Device_Library/Core/Src/usbd_ctlreq.c **** #ifdef USE_USBD_COMPOSITE
  24:Middlewares/ST/STM32_USB_Device_Library/Core/Src/usbd_ctlreq.c **** #include "usbd_composite_builder.h"
  25:Middlewares/ST/STM32_USB_Device_Library/Core/Src/usbd_ctlreq.c **** #endif /* USE_USBD_COMPOSITE */
  26:Middlewares/ST/STM32_USB_Device_Library/Core/Src/usbd_ctlreq.c **** 
  27:Middlewares/ST/STM32_USB_Device_Library/Core/Src/usbd_ctlreq.c **** /** @addtogroup STM32_USBD_STATE_DEVICE_LIBRARY
  28:Middlewares/ST/STM32_USB_Device_Library/Core/Src/usbd_ctlreq.c ****   * @{
  29:Middlewares/ST/STM32_USB_Device_Library/Core/Src/usbd_ctlreq.c ****   */
  30:Middlewares/ST/STM32_USB_Device_Library/Core/Src/usbd_ctlreq.c **** 
  31:Middlewares/ST/STM32_USB_Device_Library/Core/Src/usbd_ctlreq.c **** 
  32:Middlewares/ST/STM32_USB_Device_Library/Core/Src/usbd_ctlreq.c **** /** @defgroup USBD_REQ
  33:Middlewares/ST/STM32_USB_Device_Library/Core/Src/usbd_ctlreq.c ****   * @brief USB standard requests module
  34:Middlewares/ST/STM32_USB_Device_Library/Core/Src/usbd_ctlreq.c ****   * @{
  35:Middlewares/ST/STM32_USB_Device_Library/Core/Src/usbd_ctlreq.c ****   */
  36:Middlewares/ST/STM32_USB_Device_Library/Core/Src/usbd_ctlreq.c **** 
  37:Middlewares/ST/STM32_USB_Device_Library/Core/Src/usbd_ctlreq.c **** /** @defgroup USBD_REQ_Private_TypesDefinitions
  38:Middlewares/ST/STM32_USB_Device_Library/Core/Src/usbd_ctlreq.c ****   * @{
ARM GAS  C:\Users\Godwin\AppData\Local\Temp\cc8eSH1G.s 			page 11


  39:Middlewares/ST/STM32_USB_Device_Library/Core/Src/usbd_ctlreq.c ****   */
  40:Middlewares/ST/STM32_USB_Device_Library/Core/Src/usbd_ctlreq.c **** 
  41:Middlewares/ST/STM32_USB_Device_Library/Core/Src/usbd_ctlreq.c **** /**
  42:Middlewares/ST/STM32_USB_Device_Library/Core/Src/usbd_ctlreq.c ****   * @}
  43:Middlewares/ST/STM32_USB_Device_Library/Core/Src/usbd_ctlreq.c ****   */
  44:Middlewares/ST/STM32_USB_Device_Library/Core/Src/usbd_ctlreq.c **** 
  45:Middlewares/ST/STM32_USB_Device_Library/Core/Src/usbd_ctlreq.c **** 
  46:Middlewares/ST/STM32_USB_Device_Library/Core/Src/usbd_ctlreq.c **** /** @defgroup USBD_REQ_Private_Defines
  47:Middlewares/ST/STM32_USB_Device_Library/Core/Src/usbd_ctlreq.c ****   * @{
  48:Middlewares/ST/STM32_USB_Device_Library/Core/Src/usbd_ctlreq.c ****   */
  49:Middlewares/ST/STM32_USB_Device_Library/Core/Src/usbd_ctlreq.c **** #ifndef USBD_MAX_STR_DESC_SIZ
  50:Middlewares/ST/STM32_USB_Device_Library/Core/Src/usbd_ctlreq.c **** #define USBD_MAX_STR_DESC_SIZ                          64U
  51:Middlewares/ST/STM32_USB_Device_Library/Core/Src/usbd_ctlreq.c **** #endif /* USBD_MAX_STR_DESC_SIZ */
  52:Middlewares/ST/STM32_USB_Device_Library/Core/Src/usbd_ctlreq.c **** /**
  53:Middlewares/ST/STM32_USB_Device_Library/Core/Src/usbd_ctlreq.c ****   * @}
  54:Middlewares/ST/STM32_USB_Device_Library/Core/Src/usbd_ctlreq.c ****   */
  55:Middlewares/ST/STM32_USB_Device_Library/Core/Src/usbd_ctlreq.c **** 
  56:Middlewares/ST/STM32_USB_Device_Library/Core/Src/usbd_ctlreq.c **** 
  57:Middlewares/ST/STM32_USB_Device_Library/Core/Src/usbd_ctlreq.c **** /** @defgroup USBD_REQ_Private_Macros
  58:Middlewares/ST/STM32_USB_Device_Library/Core/Src/usbd_ctlreq.c ****   * @{
  59:Middlewares/ST/STM32_USB_Device_Library/Core/Src/usbd_ctlreq.c ****   */
  60:Middlewares/ST/STM32_USB_Device_Library/Core/Src/usbd_ctlreq.c **** 
  61:Middlewares/ST/STM32_USB_Device_Library/Core/Src/usbd_ctlreq.c **** /**
  62:Middlewares/ST/STM32_USB_Device_Library/Core/Src/usbd_ctlreq.c ****   * @}
  63:Middlewares/ST/STM32_USB_Device_Library/Core/Src/usbd_ctlreq.c ****   */
  64:Middlewares/ST/STM32_USB_Device_Library/Core/Src/usbd_ctlreq.c **** 
  65:Middlewares/ST/STM32_USB_Device_Library/Core/Src/usbd_ctlreq.c **** 
  66:Middlewares/ST/STM32_USB_Device_Library/Core/Src/usbd_ctlreq.c **** /** @defgroup USBD_REQ_Private_Variables
  67:Middlewares/ST/STM32_USB_Device_Library/Core/Src/usbd_ctlreq.c ****   * @{
  68:Middlewares/ST/STM32_USB_Device_Library/Core/Src/usbd_ctlreq.c ****   */
  69:Middlewares/ST/STM32_USB_Device_Library/Core/Src/usbd_ctlreq.c **** 
  70:Middlewares/ST/STM32_USB_Device_Library/Core/Src/usbd_ctlreq.c **** /**
  71:Middlewares/ST/STM32_USB_Device_Library/Core/Src/usbd_ctlreq.c ****   * @}
  72:Middlewares/ST/STM32_USB_Device_Library/Core/Src/usbd_ctlreq.c ****   */
  73:Middlewares/ST/STM32_USB_Device_Library/Core/Src/usbd_ctlreq.c **** 
  74:Middlewares/ST/STM32_USB_Device_Library/Core/Src/usbd_ctlreq.c **** 
  75:Middlewares/ST/STM32_USB_Device_Library/Core/Src/usbd_ctlreq.c **** /** @defgroup USBD_REQ_Private_FunctionPrototypes
  76:Middlewares/ST/STM32_USB_Device_Library/Core/Src/usbd_ctlreq.c ****   * @{
  77:Middlewares/ST/STM32_USB_Device_Library/Core/Src/usbd_ctlreq.c ****   */
  78:Middlewares/ST/STM32_USB_Device_Library/Core/Src/usbd_ctlreq.c **** static void USBD_GetDescriptor(USBD_HandleTypeDef *pdev, USBD_SetupReqTypedef *req);
  79:Middlewares/ST/STM32_USB_Device_Library/Core/Src/usbd_ctlreq.c **** static void USBD_SetAddress(USBD_HandleTypeDef *pdev, USBD_SetupReqTypedef *req);
  80:Middlewares/ST/STM32_USB_Device_Library/Core/Src/usbd_ctlreq.c **** static USBD_StatusTypeDef USBD_SetConfig(USBD_HandleTypeDef *pdev, USBD_SetupReqTypedef *req);
  81:Middlewares/ST/STM32_USB_Device_Library/Core/Src/usbd_ctlreq.c **** static void USBD_GetConfig(USBD_HandleTypeDef *pdev, USBD_SetupReqTypedef *req);
  82:Middlewares/ST/STM32_USB_Device_Library/Core/Src/usbd_ctlreq.c **** static void USBD_GetStatus(USBD_HandleTypeDef *pdev, USBD_SetupReqTypedef *req);
  83:Middlewares/ST/STM32_USB_Device_Library/Core/Src/usbd_ctlreq.c **** static void USBD_SetFeature(USBD_HandleTypeDef *pdev, USBD_SetupReqTypedef *req);
  84:Middlewares/ST/STM32_USB_Device_Library/Core/Src/usbd_ctlreq.c **** static void USBD_ClrFeature(USBD_HandleTypeDef *pdev, USBD_SetupReqTypedef *req);
  85:Middlewares/ST/STM32_USB_Device_Library/Core/Src/usbd_ctlreq.c **** static uint8_t USBD_GetLen(uint8_t *buf);
  86:Middlewares/ST/STM32_USB_Device_Library/Core/Src/usbd_ctlreq.c **** 
  87:Middlewares/ST/STM32_USB_Device_Library/Core/Src/usbd_ctlreq.c **** /**
  88:Middlewares/ST/STM32_USB_Device_Library/Core/Src/usbd_ctlreq.c ****   * @}
  89:Middlewares/ST/STM32_USB_Device_Library/Core/Src/usbd_ctlreq.c ****   */
  90:Middlewares/ST/STM32_USB_Device_Library/Core/Src/usbd_ctlreq.c **** 
  91:Middlewares/ST/STM32_USB_Device_Library/Core/Src/usbd_ctlreq.c **** 
  92:Middlewares/ST/STM32_USB_Device_Library/Core/Src/usbd_ctlreq.c **** /** @defgroup USBD_REQ_Private_Functions
  93:Middlewares/ST/STM32_USB_Device_Library/Core/Src/usbd_ctlreq.c ****   * @{
  94:Middlewares/ST/STM32_USB_Device_Library/Core/Src/usbd_ctlreq.c ****   */
  95:Middlewares/ST/STM32_USB_Device_Library/Core/Src/usbd_ctlreq.c **** 
ARM GAS  C:\Users\Godwin\AppData\Local\Temp\cc8eSH1G.s 			page 12


  96:Middlewares/ST/STM32_USB_Device_Library/Core/Src/usbd_ctlreq.c **** 
  97:Middlewares/ST/STM32_USB_Device_Library/Core/Src/usbd_ctlreq.c **** /**
  98:Middlewares/ST/STM32_USB_Device_Library/Core/Src/usbd_ctlreq.c ****   * @brief  USBD_StdDevReq
  99:Middlewares/ST/STM32_USB_Device_Library/Core/Src/usbd_ctlreq.c ****   *         Handle standard usb device requests
 100:Middlewares/ST/STM32_USB_Device_Library/Core/Src/usbd_ctlreq.c ****   * @param  pdev: device instance
 101:Middlewares/ST/STM32_USB_Device_Library/Core/Src/usbd_ctlreq.c ****   * @param  req: usb request
 102:Middlewares/ST/STM32_USB_Device_Library/Core/Src/usbd_ctlreq.c ****   * @retval status
 103:Middlewares/ST/STM32_USB_Device_Library/Core/Src/usbd_ctlreq.c ****   */
 104:Middlewares/ST/STM32_USB_Device_Library/Core/Src/usbd_ctlreq.c **** USBD_StatusTypeDef USBD_StdDevReq(USBD_HandleTypeDef *pdev, USBD_SetupReqTypedef *req)
 105:Middlewares/ST/STM32_USB_Device_Library/Core/Src/usbd_ctlreq.c **** {
  98              		.loc 1 105 1
  99              		.cfi_startproc
 100              		@ args = 0, pretend = 0, frame = 16
 101              		@ frame_needed = 1, uses_anonymous_args = 0
 102 0000 80B5     		push	{r7, lr}
 103              	.LCFI6:
 104              		.cfi_def_cfa_offset 8
 105              		.cfi_offset 7, -8
 106              		.cfi_offset 14, -4
 107 0002 84B0     		sub	sp, sp, #16
 108              	.LCFI7:
 109              		.cfi_def_cfa_offset 24
 110 0004 00AF     		add	r7, sp, #0
 111              	.LCFI8:
 112              		.cfi_def_cfa_register 7
 113 0006 7860     		str	r0, [r7, #4]
 114 0008 3960     		str	r1, [r7]
 106:Middlewares/ST/STM32_USB_Device_Library/Core/Src/usbd_ctlreq.c ****   USBD_StatusTypeDef ret = USBD_OK;
 115              		.loc 1 106 22
 116 000a 0023     		movs	r3, #0
 117 000c FB73     		strb	r3, [r7, #15]
 107:Middlewares/ST/STM32_USB_Device_Library/Core/Src/usbd_ctlreq.c **** 
 108:Middlewares/ST/STM32_USB_Device_Library/Core/Src/usbd_ctlreq.c ****   switch (req->bmRequest & USB_REQ_TYPE_MASK)
 118              		.loc 1 108 14
 119 000e 3B68     		ldr	r3, [r7]
 120 0010 1B78     		ldrb	r3, [r3]	@ zero_extendqisi2
 121              		.loc 1 108 26
 122 0012 03F06003 		and	r3, r3, #96
 123              		.loc 1 108 3
 124 0016 402B     		cmp	r3, #64
 125 0018 05D0     		beq	.L4
 126 001a 402B     		cmp	r3, #64
 127 001c 57D8     		bhi	.L5
 128 001e 002B     		cmp	r3, #0
 129 0020 0FD0     		beq	.L6
 130 0022 202B     		cmp	r3, #32
 131 0024 53D1     		bne	.L5
 132              	.L4:
 109:Middlewares/ST/STM32_USB_Device_Library/Core/Src/usbd_ctlreq.c ****   {
 110:Middlewares/ST/STM32_USB_Device_Library/Core/Src/usbd_ctlreq.c ****     case USB_REQ_TYPE_CLASS:
 111:Middlewares/ST/STM32_USB_Device_Library/Core/Src/usbd_ctlreq.c ****     case USB_REQ_TYPE_VENDOR:
 112:Middlewares/ST/STM32_USB_Device_Library/Core/Src/usbd_ctlreq.c ****       ret = (USBD_StatusTypeDef)pdev->pClass[pdev->classId]->Setup(pdev, req);
 133              		.loc 1 112 50
 134 0026 7B68     		ldr	r3, [r7, #4]
 135 0028 D3F8D422 		ldr	r2, [r3, #724]
 136              		.loc 1 112 45
 137 002c 7B68     		ldr	r3, [r7, #4]
ARM GAS  C:\Users\Godwin\AppData\Local\Temp\cc8eSH1G.s 			page 13


 138 002e AE32     		adds	r2, r2, #174
 139 0030 53F82230 		ldr	r3, [r3, r2, lsl #2]
 140              		.loc 1 112 60
 141 0034 9B68     		ldr	r3, [r3, #8]
 142              		.loc 1 112 33
 143 0036 3968     		ldr	r1, [r7]
 144 0038 7868     		ldr	r0, [r7, #4]
 145 003a 9847     		blx	r3
 146              	.LVL0:
 147 003c 0346     		mov	r3, r0
 148 003e FB73     		strb	r3, [r7, #15]
 113:Middlewares/ST/STM32_USB_Device_Library/Core/Src/usbd_ctlreq.c ****       break;
 149              		.loc 1 113 7
 150 0040 4AE0     		b	.L7
 151              	.L6:
 114:Middlewares/ST/STM32_USB_Device_Library/Core/Src/usbd_ctlreq.c **** 
 115:Middlewares/ST/STM32_USB_Device_Library/Core/Src/usbd_ctlreq.c ****     case USB_REQ_TYPE_STANDARD:
 116:Middlewares/ST/STM32_USB_Device_Library/Core/Src/usbd_ctlreq.c ****       switch (req->bRequest)
 152              		.loc 1 116 18
 153 0042 3B68     		ldr	r3, [r7]
 154 0044 5B78     		ldrb	r3, [r3, #1]	@ zero_extendqisi2
 155 0046 092B     		cmp	r3, #9
 156 0048 3BD8     		bhi	.L8
 157 004a 01A2     		adr	r2, .L10
 158 004c 52F823F0 		ldr	pc, [r2, r3, lsl #2]
 159              		.p2align 2
 160              	.L10:
 161 0050 A5000000 		.word	.L16+1
 162 0054 B9000000 		.word	.L15+1
 163 0058 C3000000 		.word	.L8+1
 164 005c AF000000 		.word	.L14+1
 165 0060 C3000000 		.word	.L8+1
 166 0064 83000000 		.word	.L13+1
 167 0068 79000000 		.word	.L12+1
 168 006c C3000000 		.word	.L8+1
 169 0070 9B000000 		.word	.L11+1
 170 0074 8D000000 		.word	.L9+1
 171              		.p2align 1
 172              	.L12:
 117:Middlewares/ST/STM32_USB_Device_Library/Core/Src/usbd_ctlreq.c ****       {
 118:Middlewares/ST/STM32_USB_Device_Library/Core/Src/usbd_ctlreq.c ****         case USB_REQ_GET_DESCRIPTOR:
 119:Middlewares/ST/STM32_USB_Device_Library/Core/Src/usbd_ctlreq.c ****           USBD_GetDescriptor(pdev, req);
 173              		.loc 1 119 11
 174 0078 3968     		ldr	r1, [r7]
 175 007a 7868     		ldr	r0, [r7, #4]
 176 007c FFF7FEFF 		bl	USBD_GetDescriptor
 120:Middlewares/ST/STM32_USB_Device_Library/Core/Src/usbd_ctlreq.c ****           break;
 177              		.loc 1 120 11
 178 0080 24E0     		b	.L17
 179              	.L13:
 121:Middlewares/ST/STM32_USB_Device_Library/Core/Src/usbd_ctlreq.c **** 
 122:Middlewares/ST/STM32_USB_Device_Library/Core/Src/usbd_ctlreq.c ****         case USB_REQ_SET_ADDRESS:
 123:Middlewares/ST/STM32_USB_Device_Library/Core/Src/usbd_ctlreq.c ****           USBD_SetAddress(pdev, req);
 180              		.loc 1 123 11
 181 0082 3968     		ldr	r1, [r7]
 182 0084 7868     		ldr	r0, [r7, #4]
 183 0086 FFF7FEFF 		bl	USBD_SetAddress
ARM GAS  C:\Users\Godwin\AppData\Local\Temp\cc8eSH1G.s 			page 14


 124:Middlewares/ST/STM32_USB_Device_Library/Core/Src/usbd_ctlreq.c ****           break;
 184              		.loc 1 124 11
 185 008a 1FE0     		b	.L17
 186              	.L9:
 125:Middlewares/ST/STM32_USB_Device_Library/Core/Src/usbd_ctlreq.c **** 
 126:Middlewares/ST/STM32_USB_Device_Library/Core/Src/usbd_ctlreq.c ****         case USB_REQ_SET_CONFIGURATION:
 127:Middlewares/ST/STM32_USB_Device_Library/Core/Src/usbd_ctlreq.c ****           ret = USBD_SetConfig(pdev, req);
 187              		.loc 1 127 17
 188 008c 3968     		ldr	r1, [r7]
 189 008e 7868     		ldr	r0, [r7, #4]
 190 0090 FFF7FEFF 		bl	USBD_SetConfig
 191 0094 0346     		mov	r3, r0
 192 0096 FB73     		strb	r3, [r7, #15]
 128:Middlewares/ST/STM32_USB_Device_Library/Core/Src/usbd_ctlreq.c ****           break;
 193              		.loc 1 128 11
 194 0098 18E0     		b	.L17
 195              	.L11:
 129:Middlewares/ST/STM32_USB_Device_Library/Core/Src/usbd_ctlreq.c **** 
 130:Middlewares/ST/STM32_USB_Device_Library/Core/Src/usbd_ctlreq.c ****         case USB_REQ_GET_CONFIGURATION:
 131:Middlewares/ST/STM32_USB_Device_Library/Core/Src/usbd_ctlreq.c ****           USBD_GetConfig(pdev, req);
 196              		.loc 1 131 11
 197 009a 3968     		ldr	r1, [r7]
 198 009c 7868     		ldr	r0, [r7, #4]
 199 009e FFF7FEFF 		bl	USBD_GetConfig
 132:Middlewares/ST/STM32_USB_Device_Library/Core/Src/usbd_ctlreq.c ****           break;
 200              		.loc 1 132 11
 201 00a2 13E0     		b	.L17
 202              	.L16:
 133:Middlewares/ST/STM32_USB_Device_Library/Core/Src/usbd_ctlreq.c **** 
 134:Middlewares/ST/STM32_USB_Device_Library/Core/Src/usbd_ctlreq.c ****         case USB_REQ_GET_STATUS:
 135:Middlewares/ST/STM32_USB_Device_Library/Core/Src/usbd_ctlreq.c ****           USBD_GetStatus(pdev, req);
 203              		.loc 1 135 11
 204 00a4 3968     		ldr	r1, [r7]
 205 00a6 7868     		ldr	r0, [r7, #4]
 206 00a8 FFF7FEFF 		bl	USBD_GetStatus
 136:Middlewares/ST/STM32_USB_Device_Library/Core/Src/usbd_ctlreq.c ****           break;
 207              		.loc 1 136 11
 208 00ac 0EE0     		b	.L17
 209              	.L14:
 137:Middlewares/ST/STM32_USB_Device_Library/Core/Src/usbd_ctlreq.c **** 
 138:Middlewares/ST/STM32_USB_Device_Library/Core/Src/usbd_ctlreq.c ****         case USB_REQ_SET_FEATURE:
 139:Middlewares/ST/STM32_USB_Device_Library/Core/Src/usbd_ctlreq.c ****           USBD_SetFeature(pdev, req);
 210              		.loc 1 139 11
 211 00ae 3968     		ldr	r1, [r7]
 212 00b0 7868     		ldr	r0, [r7, #4]
 213 00b2 FFF7FEFF 		bl	USBD_SetFeature
 140:Middlewares/ST/STM32_USB_Device_Library/Core/Src/usbd_ctlreq.c ****           break;
 214              		.loc 1 140 11
 215 00b6 09E0     		b	.L17
 216              	.L15:
 141:Middlewares/ST/STM32_USB_Device_Library/Core/Src/usbd_ctlreq.c **** 
 142:Middlewares/ST/STM32_USB_Device_Library/Core/Src/usbd_ctlreq.c ****         case USB_REQ_CLEAR_FEATURE:
 143:Middlewares/ST/STM32_USB_Device_Library/Core/Src/usbd_ctlreq.c ****           USBD_ClrFeature(pdev, req);
 217              		.loc 1 143 11
 218 00b8 3968     		ldr	r1, [r7]
 219 00ba 7868     		ldr	r0, [r7, #4]
 220 00bc FFF7FEFF 		bl	USBD_ClrFeature
ARM GAS  C:\Users\Godwin\AppData\Local\Temp\cc8eSH1G.s 			page 15


 144:Middlewares/ST/STM32_USB_Device_Library/Core/Src/usbd_ctlreq.c ****           break;
 221              		.loc 1 144 11
 222 00c0 04E0     		b	.L17
 223              	.L8:
 145:Middlewares/ST/STM32_USB_Device_Library/Core/Src/usbd_ctlreq.c **** 
 146:Middlewares/ST/STM32_USB_Device_Library/Core/Src/usbd_ctlreq.c ****         default:
 147:Middlewares/ST/STM32_USB_Device_Library/Core/Src/usbd_ctlreq.c ****           USBD_CtlError(pdev, req);
 224              		.loc 1 147 11
 225 00c2 3968     		ldr	r1, [r7]
 226 00c4 7868     		ldr	r0, [r7, #4]
 227 00c6 FFF7FEFF 		bl	USBD_CtlError
 148:Middlewares/ST/STM32_USB_Device_Library/Core/Src/usbd_ctlreq.c ****           break;
 228              		.loc 1 148 11
 229 00ca 00BF     		nop
 230              	.L17:
 149:Middlewares/ST/STM32_USB_Device_Library/Core/Src/usbd_ctlreq.c ****       }
 150:Middlewares/ST/STM32_USB_Device_Library/Core/Src/usbd_ctlreq.c ****       break;
 231              		.loc 1 150 7
 232 00cc 04E0     		b	.L7
 233              	.L5:
 151:Middlewares/ST/STM32_USB_Device_Library/Core/Src/usbd_ctlreq.c **** 
 152:Middlewares/ST/STM32_USB_Device_Library/Core/Src/usbd_ctlreq.c ****     default:
 153:Middlewares/ST/STM32_USB_Device_Library/Core/Src/usbd_ctlreq.c ****       USBD_CtlError(pdev, req);
 234              		.loc 1 153 7
 235 00ce 3968     		ldr	r1, [r7]
 236 00d0 7868     		ldr	r0, [r7, #4]
 237 00d2 FFF7FEFF 		bl	USBD_CtlError
 154:Middlewares/ST/STM32_USB_Device_Library/Core/Src/usbd_ctlreq.c ****       break;
 238              		.loc 1 154 7
 239 00d6 00BF     		nop
 240              	.L7:
 155:Middlewares/ST/STM32_USB_Device_Library/Core/Src/usbd_ctlreq.c ****   }
 156:Middlewares/ST/STM32_USB_Device_Library/Core/Src/usbd_ctlreq.c **** 
 157:Middlewares/ST/STM32_USB_Device_Library/Core/Src/usbd_ctlreq.c ****   return ret;
 241              		.loc 1 157 10
 242 00d8 FB7B     		ldrb	r3, [r7, #15]	@ zero_extendqisi2
 158:Middlewares/ST/STM32_USB_Device_Library/Core/Src/usbd_ctlreq.c **** }
 243              		.loc 1 158 1
 244 00da 1846     		mov	r0, r3
 245 00dc 1037     		adds	r7, r7, #16
 246              	.LCFI9:
 247              		.cfi_def_cfa_offset 8
 248 00de BD46     		mov	sp, r7
 249              	.LCFI10:
 250              		.cfi_def_cfa_register 13
 251              		@ sp needed
 252 00e0 80BD     		pop	{r7, pc}
 253              		.cfi_endproc
 254              	.LFE148:
 256 00e2 00BF     		.section	.text.USBD_StdItfReq,"ax",%progbits
 257              		.align	1
 258              		.global	USBD_StdItfReq
 259              		.syntax unified
 260              		.thumb
 261              		.thumb_func
 263              	USBD_StdItfReq:
 264              	.LFB149:
ARM GAS  C:\Users\Godwin\AppData\Local\Temp\cc8eSH1G.s 			page 16


 159:Middlewares/ST/STM32_USB_Device_Library/Core/Src/usbd_ctlreq.c **** 
 160:Middlewares/ST/STM32_USB_Device_Library/Core/Src/usbd_ctlreq.c **** /**
 161:Middlewares/ST/STM32_USB_Device_Library/Core/Src/usbd_ctlreq.c ****   * @brief  USBD_StdItfReq
 162:Middlewares/ST/STM32_USB_Device_Library/Core/Src/usbd_ctlreq.c ****   *         Handle standard usb interface requests
 163:Middlewares/ST/STM32_USB_Device_Library/Core/Src/usbd_ctlreq.c ****   * @param  pdev: device instance
 164:Middlewares/ST/STM32_USB_Device_Library/Core/Src/usbd_ctlreq.c ****   * @param  req: usb request
 165:Middlewares/ST/STM32_USB_Device_Library/Core/Src/usbd_ctlreq.c ****   * @retval status
 166:Middlewares/ST/STM32_USB_Device_Library/Core/Src/usbd_ctlreq.c ****   */
 167:Middlewares/ST/STM32_USB_Device_Library/Core/Src/usbd_ctlreq.c **** USBD_StatusTypeDef USBD_StdItfReq(USBD_HandleTypeDef *pdev, USBD_SetupReqTypedef *req)
 168:Middlewares/ST/STM32_USB_Device_Library/Core/Src/usbd_ctlreq.c **** {
 265              		.loc 1 168 1
 266              		.cfi_startproc
 267              		@ args = 0, pretend = 0, frame = 16
 268              		@ frame_needed = 1, uses_anonymous_args = 0
 269 0000 80B5     		push	{r7, lr}
 270              	.LCFI11:
 271              		.cfi_def_cfa_offset 8
 272              		.cfi_offset 7, -8
 273              		.cfi_offset 14, -4
 274 0002 84B0     		sub	sp, sp, #16
 275              	.LCFI12:
 276              		.cfi_def_cfa_offset 24
 277 0004 00AF     		add	r7, sp, #0
 278              	.LCFI13:
 279              		.cfi_def_cfa_register 7
 280 0006 7860     		str	r0, [r7, #4]
 281 0008 3960     		str	r1, [r7]
 169:Middlewares/ST/STM32_USB_Device_Library/Core/Src/usbd_ctlreq.c ****   USBD_StatusTypeDef ret = USBD_OK;
 282              		.loc 1 169 22
 283 000a 0023     		movs	r3, #0
 284 000c FB73     		strb	r3, [r7, #15]
 170:Middlewares/ST/STM32_USB_Device_Library/Core/Src/usbd_ctlreq.c ****   uint8_t idx;
 171:Middlewares/ST/STM32_USB_Device_Library/Core/Src/usbd_ctlreq.c **** 
 172:Middlewares/ST/STM32_USB_Device_Library/Core/Src/usbd_ctlreq.c ****   switch (req->bmRequest & USB_REQ_TYPE_MASK)
 285              		.loc 1 172 14
 286 000e 3B68     		ldr	r3, [r7]
 287 0010 1B78     		ldrb	r3, [r3]	@ zero_extendqisi2
 288              		.loc 1 172 26
 289 0012 03F06003 		and	r3, r3, #96
 290              		.loc 1 172 3
 291 0016 402B     		cmp	r3, #64
 292 0018 05D0     		beq	.L20
 293 001a 402B     		cmp	r3, #64
 294 001c 52D8     		bhi	.L21
 295 001e 002B     		cmp	r3, #0
 296 0020 01D0     		beq	.L20
 297 0022 202B     		cmp	r3, #32
 298 0024 4ED1     		bne	.L21
 299              	.L20:
 173:Middlewares/ST/STM32_USB_Device_Library/Core/Src/usbd_ctlreq.c ****   {
 174:Middlewares/ST/STM32_USB_Device_Library/Core/Src/usbd_ctlreq.c ****     case USB_REQ_TYPE_CLASS:
 175:Middlewares/ST/STM32_USB_Device_Library/Core/Src/usbd_ctlreq.c ****     case USB_REQ_TYPE_VENDOR:
 176:Middlewares/ST/STM32_USB_Device_Library/Core/Src/usbd_ctlreq.c ****     case USB_REQ_TYPE_STANDARD:
 177:Middlewares/ST/STM32_USB_Device_Library/Core/Src/usbd_ctlreq.c ****       switch (pdev->dev_state)
 300              		.loc 1 177 19
 301 0026 7B68     		ldr	r3, [r7, #4]
 302 0028 93F89C32 		ldrb	r3, [r3, #668]
ARM GAS  C:\Users\Godwin\AppData\Local\Temp\cc8eSH1G.s 			page 17


 303 002c DBB2     		uxtb	r3, r3
 304 002e 013B     		subs	r3, r3, #1
 305 0030 022B     		cmp	r3, #2
 306 0032 40D8     		bhi	.L22
 178:Middlewares/ST/STM32_USB_Device_Library/Core/Src/usbd_ctlreq.c ****       {
 179:Middlewares/ST/STM32_USB_Device_Library/Core/Src/usbd_ctlreq.c ****         case USBD_STATE_DEFAULT:
 180:Middlewares/ST/STM32_USB_Device_Library/Core/Src/usbd_ctlreq.c ****         case USBD_STATE_ADDRESSED:
 181:Middlewares/ST/STM32_USB_Device_Library/Core/Src/usbd_ctlreq.c ****         case USBD_STATE_CONFIGURED:
 182:Middlewares/ST/STM32_USB_Device_Library/Core/Src/usbd_ctlreq.c **** 
 183:Middlewares/ST/STM32_USB_Device_Library/Core/Src/usbd_ctlreq.c ****           if (LOBYTE(req->wIndex) <= USBD_MAX_NUM_INTERFACES)
 307              		.loc 1 183 15
 308 0034 3B68     		ldr	r3, [r7]
 309 0036 9B88     		ldrh	r3, [r3, #4]
 310 0038 DBB2     		uxtb	r3, r3
 311              		.loc 1 183 14
 312 003a 012B     		cmp	r3, #1
 313 003c 36D8     		bhi	.L23
 184:Middlewares/ST/STM32_USB_Device_Library/Core/Src/usbd_ctlreq.c ****           {
 185:Middlewares/ST/STM32_USB_Device_Library/Core/Src/usbd_ctlreq.c ****             /* Get the class index relative to this interface */
 186:Middlewares/ST/STM32_USB_Device_Library/Core/Src/usbd_ctlreq.c ****             idx = USBD_CoreFindIF(pdev, LOBYTE(req->wIndex));
 314              		.loc 1 186 41
 315 003e 3B68     		ldr	r3, [r7]
 316 0040 9B88     		ldrh	r3, [r3, #4]
 317              		.loc 1 186 19
 318 0042 DBB2     		uxtb	r3, r3
 319 0044 1946     		mov	r1, r3
 320 0046 7868     		ldr	r0, [r7, #4]
 321 0048 FFF7FEFF 		bl	USBD_CoreFindIF
 322 004c 0346     		mov	r3, r0
 323 004e BB73     		strb	r3, [r7, #14]
 187:Middlewares/ST/STM32_USB_Device_Library/Core/Src/usbd_ctlreq.c ****             if (((uint8_t)idx != 0xFFU) && (idx < USBD_MAX_SUPPORTED_CLASS))
 324              		.loc 1 187 16
 325 0050 BB7B     		ldrb	r3, [r7, #14]	@ zero_extendqisi2
 326 0052 FF2B     		cmp	r3, #255
 327 0054 1DD0     		beq	.L24
 328              		.loc 1 187 41 discriminator 1
 329 0056 BB7B     		ldrb	r3, [r7, #14]	@ zero_extendqisi2
 330 0058 002B     		cmp	r3, #0
 331 005a 1AD1     		bne	.L24
 188:Middlewares/ST/STM32_USB_Device_Library/Core/Src/usbd_ctlreq.c ****             {
 189:Middlewares/ST/STM32_USB_Device_Library/Core/Src/usbd_ctlreq.c ****               /* Call the class data out function to manage the request */
 190:Middlewares/ST/STM32_USB_Device_Library/Core/Src/usbd_ctlreq.c ****               if (pdev->pClass[idx]->Setup != NULL)
 332              		.loc 1 190 31
 333 005c BA7B     		ldrb	r2, [r7, #14]	@ zero_extendqisi2
 334 005e 7B68     		ldr	r3, [r7, #4]
 335 0060 AE32     		adds	r2, r2, #174
 336 0062 53F82230 		ldr	r3, [r3, r2, lsl #2]
 337              		.loc 1 190 36
 338 0066 9B68     		ldr	r3, [r3, #8]
 339              		.loc 1 190 18
 340 0068 002B     		cmp	r3, #0
 341 006a 0FD0     		beq	.L25
 191:Middlewares/ST/STM32_USB_Device_Library/Core/Src/usbd_ctlreq.c ****               {
 192:Middlewares/ST/STM32_USB_Device_Library/Core/Src/usbd_ctlreq.c ****                 pdev->classId = idx;
 342              		.loc 1 192 31
 343 006c BA7B     		ldrb	r2, [r7, #14]	@ zero_extendqisi2
 344 006e 7B68     		ldr	r3, [r7, #4]
ARM GAS  C:\Users\Godwin\AppData\Local\Temp\cc8eSH1G.s 			page 18


 345 0070 C3F8D422 		str	r2, [r3, #724]
 193:Middlewares/ST/STM32_USB_Device_Library/Core/Src/usbd_ctlreq.c ****                 ret = (USBD_StatusTypeDef)(pdev->pClass[idx]->Setup(pdev, req));
 346              		.loc 1 193 56
 347 0074 BA7B     		ldrb	r2, [r7, #14]	@ zero_extendqisi2
 348 0076 7B68     		ldr	r3, [r7, #4]
 349 0078 AE32     		adds	r2, r2, #174
 350 007a 53F82230 		ldr	r3, [r3, r2, lsl #2]
 351              		.loc 1 193 61
 352 007e 9B68     		ldr	r3, [r3, #8]
 353              		.loc 1 193 44
 354 0080 3968     		ldr	r1, [r7]
 355 0082 7868     		ldr	r0, [r7, #4]
 356 0084 9847     		blx	r3
 357              	.LVL1:
 358 0086 0346     		mov	r3, r0
 359 0088 FB73     		strb	r3, [r7, #15]
 190:Middlewares/ST/STM32_USB_Device_Library/Core/Src/usbd_ctlreq.c ****               {
 360              		.loc 1 190 18
 361 008a 04E0     		b	.L27
 362              	.L25:
 194:Middlewares/ST/STM32_USB_Device_Library/Core/Src/usbd_ctlreq.c ****               }
 195:Middlewares/ST/STM32_USB_Device_Library/Core/Src/usbd_ctlreq.c ****               else
 196:Middlewares/ST/STM32_USB_Device_Library/Core/Src/usbd_ctlreq.c ****               {
 197:Middlewares/ST/STM32_USB_Device_Library/Core/Src/usbd_ctlreq.c ****                 /* should never reach this condition */
 198:Middlewares/ST/STM32_USB_Device_Library/Core/Src/usbd_ctlreq.c ****                 ret = USBD_FAIL;
 363              		.loc 1 198 21
 364 008c 0323     		movs	r3, #3
 365 008e FB73     		strb	r3, [r7, #15]
 190:Middlewares/ST/STM32_USB_Device_Library/Core/Src/usbd_ctlreq.c ****               {
 366              		.loc 1 190 18
 367 0090 01E0     		b	.L27
 368              	.L24:
 199:Middlewares/ST/STM32_USB_Device_Library/Core/Src/usbd_ctlreq.c ****               }
 200:Middlewares/ST/STM32_USB_Device_Library/Core/Src/usbd_ctlreq.c ****             }
 201:Middlewares/ST/STM32_USB_Device_Library/Core/Src/usbd_ctlreq.c ****             else
 202:Middlewares/ST/STM32_USB_Device_Library/Core/Src/usbd_ctlreq.c ****             {
 203:Middlewares/ST/STM32_USB_Device_Library/Core/Src/usbd_ctlreq.c ****               /* No relative interface found */
 204:Middlewares/ST/STM32_USB_Device_Library/Core/Src/usbd_ctlreq.c ****               ret = USBD_FAIL;
 369              		.loc 1 204 19
 370 0092 0323     		movs	r3, #3
 371 0094 FB73     		strb	r3, [r7, #15]
 372              	.L27:
 205:Middlewares/ST/STM32_USB_Device_Library/Core/Src/usbd_ctlreq.c ****             }
 206:Middlewares/ST/STM32_USB_Device_Library/Core/Src/usbd_ctlreq.c **** 
 207:Middlewares/ST/STM32_USB_Device_Library/Core/Src/usbd_ctlreq.c ****             if ((req->wLength == 0U) && (ret == USBD_OK))
 373              		.loc 1 207 21
 374 0096 3B68     		ldr	r3, [r7]
 375 0098 DB88     		ldrh	r3, [r3, #6]
 376              		.loc 1 207 16
 377 009a 002B     		cmp	r3, #0
 378 009c 10D1     		bne	.L32
 379              		.loc 1 207 38 discriminator 1
 380 009e FB7B     		ldrb	r3, [r7, #15]	@ zero_extendqisi2
 381 00a0 002B     		cmp	r3, #0
 382 00a2 0DD1     		bne	.L32
 208:Middlewares/ST/STM32_USB_Device_Library/Core/Src/usbd_ctlreq.c ****             {
 209:Middlewares/ST/STM32_USB_Device_Library/Core/Src/usbd_ctlreq.c ****               (void)USBD_CtlSendStatus(pdev);
ARM GAS  C:\Users\Godwin\AppData\Local\Temp\cc8eSH1G.s 			page 19


 383              		.loc 1 209 21
 384 00a4 7868     		ldr	r0, [r7, #4]
 385 00a6 FFF7FEFF 		bl	USBD_CtlSendStatus
 210:Middlewares/ST/STM32_USB_Device_Library/Core/Src/usbd_ctlreq.c ****             }
 211:Middlewares/ST/STM32_USB_Device_Library/Core/Src/usbd_ctlreq.c ****           }
 212:Middlewares/ST/STM32_USB_Device_Library/Core/Src/usbd_ctlreq.c ****           else
 213:Middlewares/ST/STM32_USB_Device_Library/Core/Src/usbd_ctlreq.c ****           {
 214:Middlewares/ST/STM32_USB_Device_Library/Core/Src/usbd_ctlreq.c ****             USBD_CtlError(pdev, req);
 215:Middlewares/ST/STM32_USB_Device_Library/Core/Src/usbd_ctlreq.c ****           }
 216:Middlewares/ST/STM32_USB_Device_Library/Core/Src/usbd_ctlreq.c ****           break;
 386              		.loc 1 216 11
 387 00aa 09E0     		b	.L32
 388              	.L23:
 214:Middlewares/ST/STM32_USB_Device_Library/Core/Src/usbd_ctlreq.c ****           }
 389              		.loc 1 214 13
 390 00ac 3968     		ldr	r1, [r7]
 391 00ae 7868     		ldr	r0, [r7, #4]
 392 00b0 FFF7FEFF 		bl	USBD_CtlError
 393              		.loc 1 216 11
 394 00b4 04E0     		b	.L32
 395              	.L22:
 217:Middlewares/ST/STM32_USB_Device_Library/Core/Src/usbd_ctlreq.c **** 
 218:Middlewares/ST/STM32_USB_Device_Library/Core/Src/usbd_ctlreq.c ****         default:
 219:Middlewares/ST/STM32_USB_Device_Library/Core/Src/usbd_ctlreq.c ****           USBD_CtlError(pdev, req);
 396              		.loc 1 219 11
 397 00b6 3968     		ldr	r1, [r7]
 398 00b8 7868     		ldr	r0, [r7, #4]
 399 00ba FFF7FEFF 		bl	USBD_CtlError
 220:Middlewares/ST/STM32_USB_Device_Library/Core/Src/usbd_ctlreq.c ****           break;
 400              		.loc 1 220 11
 401 00be 00E0     		b	.L29
 402              	.L32:
 216:Middlewares/ST/STM32_USB_Device_Library/Core/Src/usbd_ctlreq.c **** 
 403              		.loc 1 216 11
 404 00c0 00BF     		nop
 405              	.L29:
 221:Middlewares/ST/STM32_USB_Device_Library/Core/Src/usbd_ctlreq.c ****       }
 222:Middlewares/ST/STM32_USB_Device_Library/Core/Src/usbd_ctlreq.c ****       break;
 406              		.loc 1 222 7
 407 00c2 04E0     		b	.L30
 408              	.L21:
 223:Middlewares/ST/STM32_USB_Device_Library/Core/Src/usbd_ctlreq.c **** 
 224:Middlewares/ST/STM32_USB_Device_Library/Core/Src/usbd_ctlreq.c ****     default:
 225:Middlewares/ST/STM32_USB_Device_Library/Core/Src/usbd_ctlreq.c ****       USBD_CtlError(pdev, req);
 409              		.loc 1 225 7
 410 00c4 3968     		ldr	r1, [r7]
 411 00c6 7868     		ldr	r0, [r7, #4]
 412 00c8 FFF7FEFF 		bl	USBD_CtlError
 226:Middlewares/ST/STM32_USB_Device_Library/Core/Src/usbd_ctlreq.c ****       break;
 413              		.loc 1 226 7
 414 00cc 00BF     		nop
 415              	.L30:
 227:Middlewares/ST/STM32_USB_Device_Library/Core/Src/usbd_ctlreq.c ****   }
 228:Middlewares/ST/STM32_USB_Device_Library/Core/Src/usbd_ctlreq.c **** 
 229:Middlewares/ST/STM32_USB_Device_Library/Core/Src/usbd_ctlreq.c ****   return ret;
 416              		.loc 1 229 10
 417 00ce FB7B     		ldrb	r3, [r7, #15]	@ zero_extendqisi2
ARM GAS  C:\Users\Godwin\AppData\Local\Temp\cc8eSH1G.s 			page 20


 230:Middlewares/ST/STM32_USB_Device_Library/Core/Src/usbd_ctlreq.c **** }
 418              		.loc 1 230 1
 419 00d0 1846     		mov	r0, r3
 420 00d2 1037     		adds	r7, r7, #16
 421              	.LCFI14:
 422              		.cfi_def_cfa_offset 8
 423 00d4 BD46     		mov	sp, r7
 424              	.LCFI15:
 425              		.cfi_def_cfa_register 13
 426              		@ sp needed
 427 00d6 80BD     		pop	{r7, pc}
 428              		.cfi_endproc
 429              	.LFE149:
 431              		.section	.text.USBD_StdEPReq,"ax",%progbits
 432              		.align	1
 433              		.global	USBD_StdEPReq
 434              		.syntax unified
 435              		.thumb
 436              		.thumb_func
 438              	USBD_StdEPReq:
 439              	.LFB150:
 231:Middlewares/ST/STM32_USB_Device_Library/Core/Src/usbd_ctlreq.c **** 
 232:Middlewares/ST/STM32_USB_Device_Library/Core/Src/usbd_ctlreq.c **** /**
 233:Middlewares/ST/STM32_USB_Device_Library/Core/Src/usbd_ctlreq.c ****   * @brief  USBD_StdEPReq
 234:Middlewares/ST/STM32_USB_Device_Library/Core/Src/usbd_ctlreq.c ****   *         Handle standard usb endpoint requests
 235:Middlewares/ST/STM32_USB_Device_Library/Core/Src/usbd_ctlreq.c ****   * @param  pdev: device instance
 236:Middlewares/ST/STM32_USB_Device_Library/Core/Src/usbd_ctlreq.c ****   * @param  req: usb request
 237:Middlewares/ST/STM32_USB_Device_Library/Core/Src/usbd_ctlreq.c ****   * @retval status
 238:Middlewares/ST/STM32_USB_Device_Library/Core/Src/usbd_ctlreq.c ****   */
 239:Middlewares/ST/STM32_USB_Device_Library/Core/Src/usbd_ctlreq.c **** USBD_StatusTypeDef USBD_StdEPReq(USBD_HandleTypeDef *pdev, USBD_SetupReqTypedef *req)
 240:Middlewares/ST/STM32_USB_Device_Library/Core/Src/usbd_ctlreq.c **** {
 440              		.loc 1 240 1
 441              		.cfi_startproc
 442              		@ args = 0, pretend = 0, frame = 16
 443              		@ frame_needed = 1, uses_anonymous_args = 0
 444 0000 80B5     		push	{r7, lr}
 445              	.LCFI16:
 446              		.cfi_def_cfa_offset 8
 447              		.cfi_offset 7, -8
 448              		.cfi_offset 14, -4
 449 0002 84B0     		sub	sp, sp, #16
 450              	.LCFI17:
 451              		.cfi_def_cfa_offset 24
 452 0004 00AF     		add	r7, sp, #0
 453              	.LCFI18:
 454              		.cfi_def_cfa_register 7
 455 0006 7860     		str	r0, [r7, #4]
 456 0008 3960     		str	r1, [r7]
 241:Middlewares/ST/STM32_USB_Device_Library/Core/Src/usbd_ctlreq.c ****   USBD_EndpointTypeDef *pep;
 242:Middlewares/ST/STM32_USB_Device_Library/Core/Src/usbd_ctlreq.c ****   uint8_t ep_addr;
 243:Middlewares/ST/STM32_USB_Device_Library/Core/Src/usbd_ctlreq.c ****   uint8_t idx;
 244:Middlewares/ST/STM32_USB_Device_Library/Core/Src/usbd_ctlreq.c ****   USBD_StatusTypeDef ret = USBD_OK;
 457              		.loc 1 244 22
 458 000a 0023     		movs	r3, #0
 459 000c FB73     		strb	r3, [r7, #15]
 245:Middlewares/ST/STM32_USB_Device_Library/Core/Src/usbd_ctlreq.c **** 
 246:Middlewares/ST/STM32_USB_Device_Library/Core/Src/usbd_ctlreq.c ****   ep_addr = LOBYTE(req->wIndex);
ARM GAS  C:\Users\Godwin\AppData\Local\Temp\cc8eSH1G.s 			page 21


 460              		.loc 1 246 13
 461 000e 3B68     		ldr	r3, [r7]
 462 0010 9B88     		ldrh	r3, [r3, #4]
 463              		.loc 1 246 11
 464 0012 BB73     		strb	r3, [r7, #14]
 247:Middlewares/ST/STM32_USB_Device_Library/Core/Src/usbd_ctlreq.c **** 
 248:Middlewares/ST/STM32_USB_Device_Library/Core/Src/usbd_ctlreq.c ****   switch (req->bmRequest & USB_REQ_TYPE_MASK)
 465              		.loc 1 248 14
 466 0014 3B68     		ldr	r3, [r7]
 467 0016 1B78     		ldrb	r3, [r3]	@ zero_extendqisi2
 468              		.loc 1 248 26
 469 0018 03F06003 		and	r3, r3, #96
 470              		.loc 1 248 3
 471 001c 402B     		cmp	r3, #64
 472 001e 07D0     		beq	.L34
 473 0020 402B     		cmp	r3, #64
 474 0022 00F27F81 		bhi	.L35
 475 0026 002B     		cmp	r3, #0
 476 0028 2AD0     		beq	.L36
 477 002a 202B     		cmp	r3, #32
 478 002c 40F07A81 		bne	.L35
 479              	.L34:
 249:Middlewares/ST/STM32_USB_Device_Library/Core/Src/usbd_ctlreq.c ****   {
 250:Middlewares/ST/STM32_USB_Device_Library/Core/Src/usbd_ctlreq.c ****     case USB_REQ_TYPE_CLASS:
 251:Middlewares/ST/STM32_USB_Device_Library/Core/Src/usbd_ctlreq.c ****     case USB_REQ_TYPE_VENDOR:
 252:Middlewares/ST/STM32_USB_Device_Library/Core/Src/usbd_ctlreq.c ****       /* Get the class index relative to this endpoint */
 253:Middlewares/ST/STM32_USB_Device_Library/Core/Src/usbd_ctlreq.c ****       idx = USBD_CoreFindEP(pdev, ep_addr);
 480              		.loc 1 253 13
 481 0030 BB7B     		ldrb	r3, [r7, #14]	@ zero_extendqisi2
 482 0032 1946     		mov	r1, r3
 483 0034 7868     		ldr	r0, [r7, #4]
 484 0036 FFF7FEFF 		bl	USBD_CoreFindEP
 485 003a 0346     		mov	r3, r0
 486 003c 7B73     		strb	r3, [r7, #13]
 254:Middlewares/ST/STM32_USB_Device_Library/Core/Src/usbd_ctlreq.c ****       if (((uint8_t)idx != 0xFFU) && (idx < USBD_MAX_SUPPORTED_CLASS))
 487              		.loc 1 254 10
 488 003e 7B7B     		ldrb	r3, [r7, #13]	@ zero_extendqisi2
 489 0040 FF2B     		cmp	r3, #255
 490 0042 00F07481 		beq	.L78
 491              		.loc 1 254 35 discriminator 1
 492 0046 7B7B     		ldrb	r3, [r7, #13]	@ zero_extendqisi2
 493 0048 002B     		cmp	r3, #0
 494 004a 40F07081 		bne	.L78
 255:Middlewares/ST/STM32_USB_Device_Library/Core/Src/usbd_ctlreq.c ****       {
 256:Middlewares/ST/STM32_USB_Device_Library/Core/Src/usbd_ctlreq.c ****         pdev->classId = idx;
 495              		.loc 1 256 23
 496 004e 7A7B     		ldrb	r2, [r7, #13]	@ zero_extendqisi2
 497 0050 7B68     		ldr	r3, [r7, #4]
 498 0052 C3F8D422 		str	r2, [r3, #724]
 257:Middlewares/ST/STM32_USB_Device_Library/Core/Src/usbd_ctlreq.c ****         /* Call the class data out function to manage the request */
 258:Middlewares/ST/STM32_USB_Device_Library/Core/Src/usbd_ctlreq.c ****         if (pdev->pClass[idx]->Setup != NULL)
 499              		.loc 1 258 25
 500 0056 7A7B     		ldrb	r2, [r7, #13]	@ zero_extendqisi2
 501 0058 7B68     		ldr	r3, [r7, #4]
 502 005a AE32     		adds	r2, r2, #174
 503 005c 53F82230 		ldr	r3, [r3, r2, lsl #2]
 504              		.loc 1 258 30
ARM GAS  C:\Users\Godwin\AppData\Local\Temp\cc8eSH1G.s 			page 22


 505 0060 9B68     		ldr	r3, [r3, #8]
 506              		.loc 1 258 12
 507 0062 002B     		cmp	r3, #0
 508 0064 00F06381 		beq	.L78
 259:Middlewares/ST/STM32_USB_Device_Library/Core/Src/usbd_ctlreq.c ****         {
 260:Middlewares/ST/STM32_USB_Device_Library/Core/Src/usbd_ctlreq.c ****           ret = (USBD_StatusTypeDef)pdev->pClass[idx]->Setup(pdev, req);
 509              		.loc 1 260 49
 510 0068 7A7B     		ldrb	r2, [r7, #13]	@ zero_extendqisi2
 511 006a 7B68     		ldr	r3, [r7, #4]
 512 006c AE32     		adds	r2, r2, #174
 513 006e 53F82230 		ldr	r3, [r3, r2, lsl #2]
 514              		.loc 1 260 54
 515 0072 9B68     		ldr	r3, [r3, #8]
 516              		.loc 1 260 37
 517 0074 3968     		ldr	r1, [r7]
 518 0076 7868     		ldr	r0, [r7, #4]
 519 0078 9847     		blx	r3
 520              	.LVL2:
 521 007a 0346     		mov	r3, r0
 522 007c FB73     		strb	r3, [r7, #15]
 261:Middlewares/ST/STM32_USB_Device_Library/Core/Src/usbd_ctlreq.c ****         }
 262:Middlewares/ST/STM32_USB_Device_Library/Core/Src/usbd_ctlreq.c ****       }
 263:Middlewares/ST/STM32_USB_Device_Library/Core/Src/usbd_ctlreq.c ****       break;
 523              		.loc 1 263 7
 524 007e 56E1     		b	.L78
 525              	.L36:
 264:Middlewares/ST/STM32_USB_Device_Library/Core/Src/usbd_ctlreq.c **** 
 265:Middlewares/ST/STM32_USB_Device_Library/Core/Src/usbd_ctlreq.c ****     case USB_REQ_TYPE_STANDARD:
 266:Middlewares/ST/STM32_USB_Device_Library/Core/Src/usbd_ctlreq.c ****       switch (req->bRequest)
 526              		.loc 1 266 18
 527 0080 3B68     		ldr	r3, [r7]
 528 0082 5B78     		ldrb	r3, [r3, #1]	@ zero_extendqisi2
 529 0084 032B     		cmp	r3, #3
 530 0086 08D0     		beq	.L39
 531 0088 032B     		cmp	r3, #3
 532 008a 00F34581 		bgt	.L40
 533 008e 002B     		cmp	r3, #0
 534 0090 00F09B80 		beq	.L41
 535 0094 012B     		cmp	r3, #1
 536 0096 3CD0     		beq	.L42
 537 0098 3EE1     		b	.L40
 538              	.L39:
 267:Middlewares/ST/STM32_USB_Device_Library/Core/Src/usbd_ctlreq.c ****       {
 268:Middlewares/ST/STM32_USB_Device_Library/Core/Src/usbd_ctlreq.c ****         case USB_REQ_SET_FEATURE:
 269:Middlewares/ST/STM32_USB_Device_Library/Core/Src/usbd_ctlreq.c ****           switch (pdev->dev_state)
 539              		.loc 1 269 23
 540 009a 7B68     		ldr	r3, [r7, #4]
 541 009c 93F89C32 		ldrb	r3, [r3, #668]
 542 00a0 DBB2     		uxtb	r3, r3
 543 00a2 022B     		cmp	r3, #2
 544 00a4 02D0     		beq	.L43
 545 00a6 032B     		cmp	r3, #3
 546 00a8 16D0     		beq	.L44
 547 00aa 2CE0     		b	.L75
 548              	.L43:
 270:Middlewares/ST/STM32_USB_Device_Library/Core/Src/usbd_ctlreq.c ****           {
 271:Middlewares/ST/STM32_USB_Device_Library/Core/Src/usbd_ctlreq.c ****             case USBD_STATE_ADDRESSED:
ARM GAS  C:\Users\Godwin\AppData\Local\Temp\cc8eSH1G.s 			page 23


 272:Middlewares/ST/STM32_USB_Device_Library/Core/Src/usbd_ctlreq.c ****               if ((ep_addr != 0x00U) && (ep_addr != 0x80U))
 549              		.loc 1 272 18
 550 00ac BB7B     		ldrb	r3, [r7, #14]	@ zero_extendqisi2
 551 00ae 002B     		cmp	r3, #0
 552 00b0 0DD0     		beq	.L46
 553              		.loc 1 272 38 discriminator 1
 554 00b2 BB7B     		ldrb	r3, [r7, #14]	@ zero_extendqisi2
 555 00b4 802B     		cmp	r3, #128
 556 00b6 0AD0     		beq	.L46
 273:Middlewares/ST/STM32_USB_Device_Library/Core/Src/usbd_ctlreq.c ****               {
 274:Middlewares/ST/STM32_USB_Device_Library/Core/Src/usbd_ctlreq.c ****                 (void)USBD_LL_StallEP(pdev, ep_addr);
 557              		.loc 1 274 23
 558 00b8 BB7B     		ldrb	r3, [r7, #14]	@ zero_extendqisi2
 559 00ba 1946     		mov	r1, r3
 560 00bc 7868     		ldr	r0, [r7, #4]
 561 00be FFF7FEFF 		bl	USBD_LL_StallEP
 275:Middlewares/ST/STM32_USB_Device_Library/Core/Src/usbd_ctlreq.c ****                 (void)USBD_LL_StallEP(pdev, 0x80U);
 562              		.loc 1 275 23
 563 00c2 8021     		movs	r1, #128
 564 00c4 7868     		ldr	r0, [r7, #4]
 565 00c6 FFF7FEFF 		bl	USBD_LL_StallEP
 566              		.loc 1 275 17
 567 00ca 00BF     		nop
 276:Middlewares/ST/STM32_USB_Device_Library/Core/Src/usbd_ctlreq.c ****               }
 277:Middlewares/ST/STM32_USB_Device_Library/Core/Src/usbd_ctlreq.c ****               else
 278:Middlewares/ST/STM32_USB_Device_Library/Core/Src/usbd_ctlreq.c ****               {
 279:Middlewares/ST/STM32_USB_Device_Library/Core/Src/usbd_ctlreq.c ****                 USBD_CtlError(pdev, req);
 280:Middlewares/ST/STM32_USB_Device_Library/Core/Src/usbd_ctlreq.c ****               }
 281:Middlewares/ST/STM32_USB_Device_Library/Core/Src/usbd_ctlreq.c ****               break;
 568              		.loc 1 281 15
 569 00cc 20E0     		b	.L48
 570              	.L46:
 279:Middlewares/ST/STM32_USB_Device_Library/Core/Src/usbd_ctlreq.c ****               }
 571              		.loc 1 279 17
 572 00ce 3968     		ldr	r1, [r7]
 573 00d0 7868     		ldr	r0, [r7, #4]
 574 00d2 FFF7FEFF 		bl	USBD_CtlError
 575              		.loc 1 281 15
 576 00d6 1BE0     		b	.L48
 577              	.L44:
 282:Middlewares/ST/STM32_USB_Device_Library/Core/Src/usbd_ctlreq.c **** 
 283:Middlewares/ST/STM32_USB_Device_Library/Core/Src/usbd_ctlreq.c ****             case USBD_STATE_CONFIGURED:
 284:Middlewares/ST/STM32_USB_Device_Library/Core/Src/usbd_ctlreq.c ****               if (req->wValue == USB_FEATURE_EP_HALT)
 578              		.loc 1 284 22
 579 00d8 3B68     		ldr	r3, [r7]
 580 00da 5B88     		ldrh	r3, [r3, #2]
 581              		.loc 1 284 18
 582 00dc 002B     		cmp	r3, #0
 583 00de 0ED1     		bne	.L49
 285:Middlewares/ST/STM32_USB_Device_Library/Core/Src/usbd_ctlreq.c ****               {
 286:Middlewares/ST/STM32_USB_Device_Library/Core/Src/usbd_ctlreq.c ****                 if ((ep_addr != 0x00U) && (ep_addr != 0x80U) && (req->wLength == 0x00U))
 584              		.loc 1 286 20
 585 00e0 BB7B     		ldrb	r3, [r7, #14]	@ zero_extendqisi2
 586 00e2 002B     		cmp	r3, #0
 587 00e4 0BD0     		beq	.L49
 588              		.loc 1 286 40 discriminator 1
 589 00e6 BB7B     		ldrb	r3, [r7, #14]	@ zero_extendqisi2
ARM GAS  C:\Users\Godwin\AppData\Local\Temp\cc8eSH1G.s 			page 24


 590 00e8 802B     		cmp	r3, #128
 591 00ea 08D0     		beq	.L49
 592              		.loc 1 286 69 discriminator 2
 593 00ec 3B68     		ldr	r3, [r7]
 594 00ee DB88     		ldrh	r3, [r3, #6]
 595              		.loc 1 286 62 discriminator 2
 596 00f0 002B     		cmp	r3, #0
 597 00f2 04D1     		bne	.L49
 287:Middlewares/ST/STM32_USB_Device_Library/Core/Src/usbd_ctlreq.c ****                 {
 288:Middlewares/ST/STM32_USB_Device_Library/Core/Src/usbd_ctlreq.c ****                   (void)USBD_LL_StallEP(pdev, ep_addr);
 598              		.loc 1 288 25
 599 00f4 BB7B     		ldrb	r3, [r7, #14]	@ zero_extendqisi2
 600 00f6 1946     		mov	r1, r3
 601 00f8 7868     		ldr	r0, [r7, #4]
 602 00fa FFF7FEFF 		bl	USBD_LL_StallEP
 603              	.L49:
 289:Middlewares/ST/STM32_USB_Device_Library/Core/Src/usbd_ctlreq.c ****                 }
 290:Middlewares/ST/STM32_USB_Device_Library/Core/Src/usbd_ctlreq.c ****               }
 291:Middlewares/ST/STM32_USB_Device_Library/Core/Src/usbd_ctlreq.c ****               (void)USBD_CtlSendStatus(pdev);
 604              		.loc 1 291 21
 605 00fe 7868     		ldr	r0, [r7, #4]
 606 0100 FFF7FEFF 		bl	USBD_CtlSendStatus
 292:Middlewares/ST/STM32_USB_Device_Library/Core/Src/usbd_ctlreq.c **** 
 293:Middlewares/ST/STM32_USB_Device_Library/Core/Src/usbd_ctlreq.c ****               break;
 607              		.loc 1 293 15
 608 0104 04E0     		b	.L48
 609              	.L75:
 294:Middlewares/ST/STM32_USB_Device_Library/Core/Src/usbd_ctlreq.c **** 
 295:Middlewares/ST/STM32_USB_Device_Library/Core/Src/usbd_ctlreq.c ****             default:
 296:Middlewares/ST/STM32_USB_Device_Library/Core/Src/usbd_ctlreq.c ****               USBD_CtlError(pdev, req);
 610              		.loc 1 296 15
 611 0106 3968     		ldr	r1, [r7]
 612 0108 7868     		ldr	r0, [r7, #4]
 613 010a FFF7FEFF 		bl	USBD_CtlError
 297:Middlewares/ST/STM32_USB_Device_Library/Core/Src/usbd_ctlreq.c ****               break;
 614              		.loc 1 297 15
 615 010e 00BF     		nop
 616              	.L48:
 298:Middlewares/ST/STM32_USB_Device_Library/Core/Src/usbd_ctlreq.c ****           }
 299:Middlewares/ST/STM32_USB_Device_Library/Core/Src/usbd_ctlreq.c ****           break;
 617              		.loc 1 299 11
 618 0110 07E1     		b	.L50
 619              	.L42:
 300:Middlewares/ST/STM32_USB_Device_Library/Core/Src/usbd_ctlreq.c **** 
 301:Middlewares/ST/STM32_USB_Device_Library/Core/Src/usbd_ctlreq.c ****         case USB_REQ_CLEAR_FEATURE:
 302:Middlewares/ST/STM32_USB_Device_Library/Core/Src/usbd_ctlreq.c **** 
 303:Middlewares/ST/STM32_USB_Device_Library/Core/Src/usbd_ctlreq.c ****           switch (pdev->dev_state)
 620              		.loc 1 303 23
 621 0112 7B68     		ldr	r3, [r7, #4]
 622 0114 93F89C32 		ldrb	r3, [r3, #668]
 623 0118 DBB2     		uxtb	r3, r3
 624 011a 022B     		cmp	r3, #2
 625 011c 02D0     		beq	.L51
 626 011e 032B     		cmp	r3, #3
 627 0120 16D0     		beq	.L52
 628 0122 4BE0     		b	.L76
 629              	.L51:
ARM GAS  C:\Users\Godwin\AppData\Local\Temp\cc8eSH1G.s 			page 25


 304:Middlewares/ST/STM32_USB_Device_Library/Core/Src/usbd_ctlreq.c ****           {
 305:Middlewares/ST/STM32_USB_Device_Library/Core/Src/usbd_ctlreq.c ****             case USBD_STATE_ADDRESSED:
 306:Middlewares/ST/STM32_USB_Device_Library/Core/Src/usbd_ctlreq.c ****               if ((ep_addr != 0x00U) && (ep_addr != 0x80U))
 630              		.loc 1 306 18
 631 0124 BB7B     		ldrb	r3, [r7, #14]	@ zero_extendqisi2
 632 0126 002B     		cmp	r3, #0
 633 0128 0DD0     		beq	.L54
 634              		.loc 1 306 38 discriminator 1
 635 012a BB7B     		ldrb	r3, [r7, #14]	@ zero_extendqisi2
 636 012c 802B     		cmp	r3, #128
 637 012e 0AD0     		beq	.L54
 307:Middlewares/ST/STM32_USB_Device_Library/Core/Src/usbd_ctlreq.c ****               {
 308:Middlewares/ST/STM32_USB_Device_Library/Core/Src/usbd_ctlreq.c ****                 (void)USBD_LL_StallEP(pdev, ep_addr);
 638              		.loc 1 308 23
 639 0130 BB7B     		ldrb	r3, [r7, #14]	@ zero_extendqisi2
 640 0132 1946     		mov	r1, r3
 641 0134 7868     		ldr	r0, [r7, #4]
 642 0136 FFF7FEFF 		bl	USBD_LL_StallEP
 309:Middlewares/ST/STM32_USB_Device_Library/Core/Src/usbd_ctlreq.c ****                 (void)USBD_LL_StallEP(pdev, 0x80U);
 643              		.loc 1 309 23
 644 013a 8021     		movs	r1, #128
 645 013c 7868     		ldr	r0, [r7, #4]
 646 013e FFF7FEFF 		bl	USBD_LL_StallEP
 647              		.loc 1 309 17
 648 0142 00BF     		nop
 310:Middlewares/ST/STM32_USB_Device_Library/Core/Src/usbd_ctlreq.c ****               }
 311:Middlewares/ST/STM32_USB_Device_Library/Core/Src/usbd_ctlreq.c ****               else
 312:Middlewares/ST/STM32_USB_Device_Library/Core/Src/usbd_ctlreq.c ****               {
 313:Middlewares/ST/STM32_USB_Device_Library/Core/Src/usbd_ctlreq.c ****                 USBD_CtlError(pdev, req);
 314:Middlewares/ST/STM32_USB_Device_Library/Core/Src/usbd_ctlreq.c ****               }
 315:Middlewares/ST/STM32_USB_Device_Library/Core/Src/usbd_ctlreq.c ****               break;
 649              		.loc 1 315 15
 650 0144 40E0     		b	.L56
 651              	.L54:
 313:Middlewares/ST/STM32_USB_Device_Library/Core/Src/usbd_ctlreq.c ****               }
 652              		.loc 1 313 17
 653 0146 3968     		ldr	r1, [r7]
 654 0148 7868     		ldr	r0, [r7, #4]
 655 014a FFF7FEFF 		bl	USBD_CtlError
 656              		.loc 1 315 15
 657 014e 3BE0     		b	.L56
 658              	.L52:
 316:Middlewares/ST/STM32_USB_Device_Library/Core/Src/usbd_ctlreq.c **** 
 317:Middlewares/ST/STM32_USB_Device_Library/Core/Src/usbd_ctlreq.c ****             case USBD_STATE_CONFIGURED:
 318:Middlewares/ST/STM32_USB_Device_Library/Core/Src/usbd_ctlreq.c ****               if (req->wValue == USB_FEATURE_EP_HALT)
 659              		.loc 1 318 22
 660 0150 3B68     		ldr	r3, [r7]
 661 0152 5B88     		ldrh	r3, [r3, #2]
 662              		.loc 1 318 18
 663 0154 002B     		cmp	r3, #0
 664 0156 36D1     		bne	.L79
 319:Middlewares/ST/STM32_USB_Device_Library/Core/Src/usbd_ctlreq.c ****               {
 320:Middlewares/ST/STM32_USB_Device_Library/Core/Src/usbd_ctlreq.c ****                 if ((ep_addr & 0x7FU) != 0x00U)
 665              		.loc 1 320 30
 666 0158 BB7B     		ldrb	r3, [r7, #14]	@ zero_extendqisi2
 667 015a 03F07F03 		and	r3, r3, #127
 668              		.loc 1 320 20
ARM GAS  C:\Users\Godwin\AppData\Local\Temp\cc8eSH1G.s 			page 26


 669 015e 002B     		cmp	r3, #0
 670 0160 04D0     		beq	.L58
 321:Middlewares/ST/STM32_USB_Device_Library/Core/Src/usbd_ctlreq.c ****                 {
 322:Middlewares/ST/STM32_USB_Device_Library/Core/Src/usbd_ctlreq.c ****                   (void)USBD_LL_ClearStallEP(pdev, ep_addr);
 671              		.loc 1 322 25
 672 0162 BB7B     		ldrb	r3, [r7, #14]	@ zero_extendqisi2
 673 0164 1946     		mov	r1, r3
 674 0166 7868     		ldr	r0, [r7, #4]
 675 0168 FFF7FEFF 		bl	USBD_LL_ClearStallEP
 676              	.L58:
 323:Middlewares/ST/STM32_USB_Device_Library/Core/Src/usbd_ctlreq.c ****                 }
 324:Middlewares/ST/STM32_USB_Device_Library/Core/Src/usbd_ctlreq.c ****                 (void)USBD_CtlSendStatus(pdev);
 677              		.loc 1 324 23
 678 016c 7868     		ldr	r0, [r7, #4]
 679 016e FFF7FEFF 		bl	USBD_CtlSendStatus
 325:Middlewares/ST/STM32_USB_Device_Library/Core/Src/usbd_ctlreq.c **** 
 326:Middlewares/ST/STM32_USB_Device_Library/Core/Src/usbd_ctlreq.c ****                 /* Get the class index relative to this interface */
 327:Middlewares/ST/STM32_USB_Device_Library/Core/Src/usbd_ctlreq.c ****                 idx = USBD_CoreFindEP(pdev, ep_addr);
 680              		.loc 1 327 23
 681 0172 BB7B     		ldrb	r3, [r7, #14]	@ zero_extendqisi2
 682 0174 1946     		mov	r1, r3
 683 0176 7868     		ldr	r0, [r7, #4]
 684 0178 FFF7FEFF 		bl	USBD_CoreFindEP
 685 017c 0346     		mov	r3, r0
 686 017e 7B73     		strb	r3, [r7, #13]
 328:Middlewares/ST/STM32_USB_Device_Library/Core/Src/usbd_ctlreq.c ****                 if (((uint8_t)idx != 0xFFU) && (idx < USBD_MAX_SUPPORTED_CLASS))
 687              		.loc 1 328 20
 688 0180 7B7B     		ldrb	r3, [r7, #13]	@ zero_extendqisi2
 689 0182 FF2B     		cmp	r3, #255
 690 0184 1FD0     		beq	.L79
 691              		.loc 1 328 45 discriminator 1
 692 0186 7B7B     		ldrb	r3, [r7, #13]	@ zero_extendqisi2
 693 0188 002B     		cmp	r3, #0
 694 018a 1CD1     		bne	.L79
 329:Middlewares/ST/STM32_USB_Device_Library/Core/Src/usbd_ctlreq.c ****                 {
 330:Middlewares/ST/STM32_USB_Device_Library/Core/Src/usbd_ctlreq.c ****                   pdev->classId = idx;
 695              		.loc 1 330 33
 696 018c 7A7B     		ldrb	r2, [r7, #13]	@ zero_extendqisi2
 697 018e 7B68     		ldr	r3, [r7, #4]
 698 0190 C3F8D422 		str	r2, [r3, #724]
 331:Middlewares/ST/STM32_USB_Device_Library/Core/Src/usbd_ctlreq.c ****                   /* Call the class data out function to manage the request */
 332:Middlewares/ST/STM32_USB_Device_Library/Core/Src/usbd_ctlreq.c ****                   if (pdev->pClass[idx]->Setup != NULL)
 699              		.loc 1 332 35
 700 0194 7A7B     		ldrb	r2, [r7, #13]	@ zero_extendqisi2
 701 0196 7B68     		ldr	r3, [r7, #4]
 702 0198 AE32     		adds	r2, r2, #174
 703 019a 53F82230 		ldr	r3, [r3, r2, lsl #2]
 704              		.loc 1 332 40
 705 019e 9B68     		ldr	r3, [r3, #8]
 706              		.loc 1 332 22
 707 01a0 002B     		cmp	r3, #0
 708 01a2 10D0     		beq	.L79
 333:Middlewares/ST/STM32_USB_Device_Library/Core/Src/usbd_ctlreq.c ****                   {
 334:Middlewares/ST/STM32_USB_Device_Library/Core/Src/usbd_ctlreq.c ****                     ret = (USBD_StatusTypeDef)(pdev->pClass[idx]->Setup(pdev, req));
 709              		.loc 1 334 60
 710 01a4 7A7B     		ldrb	r2, [r7, #13]	@ zero_extendqisi2
 711 01a6 7B68     		ldr	r3, [r7, #4]
ARM GAS  C:\Users\Godwin\AppData\Local\Temp\cc8eSH1G.s 			page 27


 712 01a8 AE32     		adds	r2, r2, #174
 713 01aa 53F82230 		ldr	r3, [r3, r2, lsl #2]
 714              		.loc 1 334 65
 715 01ae 9B68     		ldr	r3, [r3, #8]
 716              		.loc 1 334 48
 717 01b0 3968     		ldr	r1, [r7]
 718 01b2 7868     		ldr	r0, [r7, #4]
 719 01b4 9847     		blx	r3
 720              	.LVL3:
 721 01b6 0346     		mov	r3, r0
 722 01b8 FB73     		strb	r3, [r7, #15]
 335:Middlewares/ST/STM32_USB_Device_Library/Core/Src/usbd_ctlreq.c ****                   }
 336:Middlewares/ST/STM32_USB_Device_Library/Core/Src/usbd_ctlreq.c ****                 }
 337:Middlewares/ST/STM32_USB_Device_Library/Core/Src/usbd_ctlreq.c ****               }
 338:Middlewares/ST/STM32_USB_Device_Library/Core/Src/usbd_ctlreq.c ****               break;
 723              		.loc 1 338 15
 724 01ba 04E0     		b	.L79
 725              	.L76:
 339:Middlewares/ST/STM32_USB_Device_Library/Core/Src/usbd_ctlreq.c **** 
 340:Middlewares/ST/STM32_USB_Device_Library/Core/Src/usbd_ctlreq.c ****             default:
 341:Middlewares/ST/STM32_USB_Device_Library/Core/Src/usbd_ctlreq.c ****               USBD_CtlError(pdev, req);
 726              		.loc 1 341 15
 727 01bc 3968     		ldr	r1, [r7]
 728 01be 7868     		ldr	r0, [r7, #4]
 729 01c0 FFF7FEFF 		bl	USBD_CtlError
 342:Middlewares/ST/STM32_USB_Device_Library/Core/Src/usbd_ctlreq.c ****               break;
 730              		.loc 1 342 15
 731 01c4 00E0     		b	.L56
 732              	.L79:
 338:Middlewares/ST/STM32_USB_Device_Library/Core/Src/usbd_ctlreq.c **** 
 733              		.loc 1 338 15
 734 01c6 00BF     		nop
 735              	.L56:
 343:Middlewares/ST/STM32_USB_Device_Library/Core/Src/usbd_ctlreq.c ****           }
 344:Middlewares/ST/STM32_USB_Device_Library/Core/Src/usbd_ctlreq.c ****           break;
 736              		.loc 1 344 11
 737 01c8 ABE0     		b	.L50
 738              	.L41:
 345:Middlewares/ST/STM32_USB_Device_Library/Core/Src/usbd_ctlreq.c **** 
 346:Middlewares/ST/STM32_USB_Device_Library/Core/Src/usbd_ctlreq.c ****         case USB_REQ_GET_STATUS:
 347:Middlewares/ST/STM32_USB_Device_Library/Core/Src/usbd_ctlreq.c ****           switch (pdev->dev_state)
 739              		.loc 1 347 23
 740 01ca 7B68     		ldr	r3, [r7, #4]
 741 01cc 93F89C32 		ldrb	r3, [r3, #668]
 742 01d0 DBB2     		uxtb	r3, r3
 743 01d2 022B     		cmp	r3, #2
 744 01d4 02D0     		beq	.L59
 745 01d6 032B     		cmp	r3, #3
 746 01d8 32D0     		beq	.L60
 747 01da 97E0     		b	.L77
 748              	.L59:
 348:Middlewares/ST/STM32_USB_Device_Library/Core/Src/usbd_ctlreq.c ****           {
 349:Middlewares/ST/STM32_USB_Device_Library/Core/Src/usbd_ctlreq.c ****             case USBD_STATE_ADDRESSED:
 350:Middlewares/ST/STM32_USB_Device_Library/Core/Src/usbd_ctlreq.c ****               if ((ep_addr != 0x00U) && (ep_addr != 0x80U))
 749              		.loc 1 350 18
 750 01dc BB7B     		ldrb	r3, [r7, #14]	@ zero_extendqisi2
 751 01de 002B     		cmp	r3, #0
ARM GAS  C:\Users\Godwin\AppData\Local\Temp\cc8eSH1G.s 			page 28


 752 01e0 07D0     		beq	.L62
 753              		.loc 1 350 38 discriminator 1
 754 01e2 BB7B     		ldrb	r3, [r7, #14]	@ zero_extendqisi2
 755 01e4 802B     		cmp	r3, #128
 756 01e6 04D0     		beq	.L62
 351:Middlewares/ST/STM32_USB_Device_Library/Core/Src/usbd_ctlreq.c ****               {
 352:Middlewares/ST/STM32_USB_Device_Library/Core/Src/usbd_ctlreq.c ****                 USBD_CtlError(pdev, req);
 757              		.loc 1 352 17
 758 01e8 3968     		ldr	r1, [r7]
 759 01ea 7868     		ldr	r0, [r7, #4]
 760 01ec FFF7FEFF 		bl	USBD_CtlError
 353:Middlewares/ST/STM32_USB_Device_Library/Core/Src/usbd_ctlreq.c ****                 break;
 761              		.loc 1 353 17
 762 01f0 91E0     		b	.L63
 763              	.L62:
 354:Middlewares/ST/STM32_USB_Device_Library/Core/Src/usbd_ctlreq.c ****               }
 355:Middlewares/ST/STM32_USB_Device_Library/Core/Src/usbd_ctlreq.c ****               pep = ((ep_addr & 0x80U) == 0x80U) ? &pdev->ep_in[ep_addr & 0x7FU] : \
 764              		.loc 1 355 40
 765 01f2 97F90E30 		ldrsb	r3, [r7, #14]
 766              		.loc 1 355 82
 767 01f6 002B     		cmp	r3, #0
 768 01f8 0BDA     		bge	.L64
 769              		.loc 1 355 73 discriminator 1
 770 01fa BB7B     		ldrb	r3, [r7, #14]	@ zero_extendqisi2
 771 01fc 03F07F02 		and	r2, r3, #127
 772              		.loc 1 355 82 discriminator 1
 773 0200 1346     		mov	r3, r2
 774 0202 9B00     		lsls	r3, r3, #2
 775 0204 1344     		add	r3, r3, r2
 776 0206 9B00     		lsls	r3, r3, #2
 777 0208 1033     		adds	r3, r3, #16
 778 020a 7A68     		ldr	r2, [r7, #4]
 779 020c 1344     		add	r3, r3, r2
 780 020e 0433     		adds	r3, r3, #4
 781 0210 0BE0     		b	.L65
 782              	.L64:
 356:Middlewares/ST/STM32_USB_Device_Library/Core/Src/usbd_ctlreq.c ****                     &pdev->ep_out[ep_addr & 0x7FU];
 783              		.loc 1 356 43
 784 0212 BB7B     		ldrb	r3, [r7, #14]	@ zero_extendqisi2
 785 0214 03F07F02 		and	r2, r3, #127
 355:Middlewares/ST/STM32_USB_Device_Library/Core/Src/usbd_ctlreq.c ****                     &pdev->ep_out[ep_addr & 0x7FU];
 786              		.loc 1 355 82 discriminator 2
 787 0218 1346     		mov	r3, r2
 788 021a 9B00     		lsls	r3, r3, #2
 789 021c 1344     		add	r3, r3, r2
 790 021e 9B00     		lsls	r3, r3, #2
 791 0220 03F5A873 		add	r3, r3, #336
 792 0224 7A68     		ldr	r2, [r7, #4]
 793 0226 1344     		add	r3, r3, r2
 794 0228 0433     		adds	r3, r3, #4
 795              	.L65:
 355:Middlewares/ST/STM32_USB_Device_Library/Core/Src/usbd_ctlreq.c ****                     &pdev->ep_out[ep_addr & 0x7FU];
 796              		.loc 1 355 19 discriminator 4
 797 022a BB60     		str	r3, [r7, #8]
 357:Middlewares/ST/STM32_USB_Device_Library/Core/Src/usbd_ctlreq.c **** 
 358:Middlewares/ST/STM32_USB_Device_Library/Core/Src/usbd_ctlreq.c ****               pep->status = 0x0000U;
 798              		.loc 1 358 27
ARM GAS  C:\Users\Godwin\AppData\Local\Temp\cc8eSH1G.s 			page 29


 799 022c BB68     		ldr	r3, [r7, #8]
 800 022e 0022     		movs	r2, #0
 801 0230 1A60     		str	r2, [r3]
 359:Middlewares/ST/STM32_USB_Device_Library/Core/Src/usbd_ctlreq.c **** 
 360:Middlewares/ST/STM32_USB_Device_Library/Core/Src/usbd_ctlreq.c ****               (void)USBD_CtlSendData(pdev, (uint8_t *)&pep->status, 2U);
 802              		.loc 1 360 55
 803 0232 BB68     		ldr	r3, [r7, #8]
 804              		.loc 1 360 21
 805 0234 0222     		movs	r2, #2
 806 0236 1946     		mov	r1, r3
 807 0238 7868     		ldr	r0, [r7, #4]
 808 023a FFF7FEFF 		bl	USBD_CtlSendData
 361:Middlewares/ST/STM32_USB_Device_Library/Core/Src/usbd_ctlreq.c ****               break;
 809              		.loc 1 361 15
 810 023e 6AE0     		b	.L63
 811              	.L60:
 362:Middlewares/ST/STM32_USB_Device_Library/Core/Src/usbd_ctlreq.c **** 
 363:Middlewares/ST/STM32_USB_Device_Library/Core/Src/usbd_ctlreq.c ****             case USBD_STATE_CONFIGURED:
 364:Middlewares/ST/STM32_USB_Device_Library/Core/Src/usbd_ctlreq.c ****               if ((ep_addr & 0x80U) == 0x80U)
 812              		.loc 1 364 37
 813 0240 97F90E30 		ldrsb	r3, [r7, #14]
 814              		.loc 1 364 18
 815 0244 002B     		cmp	r3, #0
 816 0246 11DA     		bge	.L66
 365:Middlewares/ST/STM32_USB_Device_Library/Core/Src/usbd_ctlreq.c ****               {
 366:Middlewares/ST/STM32_USB_Device_Library/Core/Src/usbd_ctlreq.c ****                 if (pdev->ep_in[ep_addr & 0xFU].is_used == 0U)
 817              		.loc 1 366 41
 818 0248 BB7B     		ldrb	r3, [r7, #14]	@ zero_extendqisi2
 819 024a 03F00F02 		and	r2, r3, #15
 820              		.loc 1 366 48
 821 024e 7968     		ldr	r1, [r7, #4]
 822 0250 1346     		mov	r3, r2
 823 0252 9B00     		lsls	r3, r3, #2
 824 0254 1344     		add	r3, r3, r2
 825 0256 9B00     		lsls	r3, r3, #2
 826 0258 0B44     		add	r3, r3, r1
 827 025a 2433     		adds	r3, r3, #36
 828 025c 1B88     		ldrh	r3, [r3]
 829              		.loc 1 366 20
 830 025e 002B     		cmp	r3, #0
 831 0260 17D1     		bne	.L67
 367:Middlewares/ST/STM32_USB_Device_Library/Core/Src/usbd_ctlreq.c ****                 {
 368:Middlewares/ST/STM32_USB_Device_Library/Core/Src/usbd_ctlreq.c ****                   USBD_CtlError(pdev, req);
 832              		.loc 1 368 19
 833 0262 3968     		ldr	r1, [r7]
 834 0264 7868     		ldr	r0, [r7, #4]
 835 0266 FFF7FEFF 		bl	USBD_CtlError
 369:Middlewares/ST/STM32_USB_Device_Library/Core/Src/usbd_ctlreq.c ****                   break;
 836              		.loc 1 369 19
 837 026a 54E0     		b	.L63
 838              	.L66:
 370:Middlewares/ST/STM32_USB_Device_Library/Core/Src/usbd_ctlreq.c ****                 }
 371:Middlewares/ST/STM32_USB_Device_Library/Core/Src/usbd_ctlreq.c ****               }
 372:Middlewares/ST/STM32_USB_Device_Library/Core/Src/usbd_ctlreq.c ****               else
 373:Middlewares/ST/STM32_USB_Device_Library/Core/Src/usbd_ctlreq.c ****               {
 374:Middlewares/ST/STM32_USB_Device_Library/Core/Src/usbd_ctlreq.c ****                 if (pdev->ep_out[ep_addr & 0xFU].is_used == 0U)
 839              		.loc 1 374 42
ARM GAS  C:\Users\Godwin\AppData\Local\Temp\cc8eSH1G.s 			page 30


 840 026c BB7B     		ldrb	r3, [r7, #14]	@ zero_extendqisi2
 841 026e 03F00F02 		and	r2, r3, #15
 842              		.loc 1 374 49
 843 0272 7968     		ldr	r1, [r7, #4]
 844 0274 1346     		mov	r3, r2
 845 0276 9B00     		lsls	r3, r3, #2
 846 0278 1344     		add	r3, r3, r2
 847 027a 9B00     		lsls	r3, r3, #2
 848 027c 0B44     		add	r3, r3, r1
 849 027e 03F5B273 		add	r3, r3, #356
 850 0282 1B88     		ldrh	r3, [r3]
 851              		.loc 1 374 20
 852 0284 002B     		cmp	r3, #0
 853 0286 04D1     		bne	.L67
 375:Middlewares/ST/STM32_USB_Device_Library/Core/Src/usbd_ctlreq.c ****                 {
 376:Middlewares/ST/STM32_USB_Device_Library/Core/Src/usbd_ctlreq.c ****                   USBD_CtlError(pdev, req);
 854              		.loc 1 376 19
 855 0288 3968     		ldr	r1, [r7]
 856 028a 7868     		ldr	r0, [r7, #4]
 857 028c FFF7FEFF 		bl	USBD_CtlError
 377:Middlewares/ST/STM32_USB_Device_Library/Core/Src/usbd_ctlreq.c ****                   break;
 858              		.loc 1 377 19
 859 0290 41E0     		b	.L63
 860              	.L67:
 378:Middlewares/ST/STM32_USB_Device_Library/Core/Src/usbd_ctlreq.c ****                 }
 379:Middlewares/ST/STM32_USB_Device_Library/Core/Src/usbd_ctlreq.c ****               }
 380:Middlewares/ST/STM32_USB_Device_Library/Core/Src/usbd_ctlreq.c **** 
 381:Middlewares/ST/STM32_USB_Device_Library/Core/Src/usbd_ctlreq.c ****               pep = ((ep_addr & 0x80U) == 0x80U) ? &pdev->ep_in[ep_addr & 0x7FU] : \
 861              		.loc 1 381 40
 862 0292 97F90E30 		ldrsb	r3, [r7, #14]
 863              		.loc 1 381 82
 864 0296 002B     		cmp	r3, #0
 865 0298 0BDA     		bge	.L68
 866              		.loc 1 381 73 discriminator 1
 867 029a BB7B     		ldrb	r3, [r7, #14]	@ zero_extendqisi2
 868 029c 03F07F02 		and	r2, r3, #127
 869              		.loc 1 381 82 discriminator 1
 870 02a0 1346     		mov	r3, r2
 871 02a2 9B00     		lsls	r3, r3, #2
 872 02a4 1344     		add	r3, r3, r2
 873 02a6 9B00     		lsls	r3, r3, #2
 874 02a8 1033     		adds	r3, r3, #16
 875 02aa 7A68     		ldr	r2, [r7, #4]
 876 02ac 1344     		add	r3, r3, r2
 877 02ae 0433     		adds	r3, r3, #4
 878 02b0 0BE0     		b	.L69
 879              	.L68:
 382:Middlewares/ST/STM32_USB_Device_Library/Core/Src/usbd_ctlreq.c ****                     &pdev->ep_out[ep_addr & 0x7FU];
 880              		.loc 1 382 43
 881 02b2 BB7B     		ldrb	r3, [r7, #14]	@ zero_extendqisi2
 882 02b4 03F07F02 		and	r2, r3, #127
 381:Middlewares/ST/STM32_USB_Device_Library/Core/Src/usbd_ctlreq.c ****                     &pdev->ep_out[ep_addr & 0x7FU];
 883              		.loc 1 381 82 discriminator 2
 884 02b8 1346     		mov	r3, r2
 885 02ba 9B00     		lsls	r3, r3, #2
 886 02bc 1344     		add	r3, r3, r2
 887 02be 9B00     		lsls	r3, r3, #2
ARM GAS  C:\Users\Godwin\AppData\Local\Temp\cc8eSH1G.s 			page 31


 888 02c0 03F5A873 		add	r3, r3, #336
 889 02c4 7A68     		ldr	r2, [r7, #4]
 890 02c6 1344     		add	r3, r3, r2
 891 02c8 0433     		adds	r3, r3, #4
 892              	.L69:
 381:Middlewares/ST/STM32_USB_Device_Library/Core/Src/usbd_ctlreq.c ****                     &pdev->ep_out[ep_addr & 0x7FU];
 893              		.loc 1 381 19 discriminator 4
 894 02ca BB60     		str	r3, [r7, #8]
 383:Middlewares/ST/STM32_USB_Device_Library/Core/Src/usbd_ctlreq.c **** 
 384:Middlewares/ST/STM32_USB_Device_Library/Core/Src/usbd_ctlreq.c ****               if ((ep_addr == 0x00U) || (ep_addr == 0x80U))
 895              		.loc 1 384 18
 896 02cc BB7B     		ldrb	r3, [r7, #14]	@ zero_extendqisi2
 897 02ce 002B     		cmp	r3, #0
 898 02d0 02D0     		beq	.L70
 899              		.loc 1 384 38 discriminator 1
 900 02d2 BB7B     		ldrb	r3, [r7, #14]	@ zero_extendqisi2
 901 02d4 802B     		cmp	r3, #128
 902 02d6 03D1     		bne	.L71
 903              	.L70:
 385:Middlewares/ST/STM32_USB_Device_Library/Core/Src/usbd_ctlreq.c ****               {
 386:Middlewares/ST/STM32_USB_Device_Library/Core/Src/usbd_ctlreq.c ****                 pep->status = 0x0000U;
 904              		.loc 1 386 29
 905 02d8 BB68     		ldr	r3, [r7, #8]
 906 02da 0022     		movs	r2, #0
 907 02dc 1A60     		str	r2, [r3]
 908 02de 0EE0     		b	.L72
 909              	.L71:
 387:Middlewares/ST/STM32_USB_Device_Library/Core/Src/usbd_ctlreq.c ****               }
 388:Middlewares/ST/STM32_USB_Device_Library/Core/Src/usbd_ctlreq.c ****               else if (USBD_LL_IsStallEP(pdev, ep_addr) != 0U)
 910              		.loc 1 388 24
 911 02e0 BB7B     		ldrb	r3, [r7, #14]	@ zero_extendqisi2
 912 02e2 1946     		mov	r1, r3
 913 02e4 7868     		ldr	r0, [r7, #4]
 914 02e6 FFF7FEFF 		bl	USBD_LL_IsStallEP
 915 02ea 0346     		mov	r3, r0
 916              		.loc 1 388 23 discriminator 1
 917 02ec 002B     		cmp	r3, #0
 918 02ee 03D0     		beq	.L73
 389:Middlewares/ST/STM32_USB_Device_Library/Core/Src/usbd_ctlreq.c ****               {
 390:Middlewares/ST/STM32_USB_Device_Library/Core/Src/usbd_ctlreq.c ****                 pep->status = 0x0001U;
 919              		.loc 1 390 29
 920 02f0 BB68     		ldr	r3, [r7, #8]
 921 02f2 0122     		movs	r2, #1
 922 02f4 1A60     		str	r2, [r3]
 923 02f6 02E0     		b	.L72
 924              	.L73:
 391:Middlewares/ST/STM32_USB_Device_Library/Core/Src/usbd_ctlreq.c ****               }
 392:Middlewares/ST/STM32_USB_Device_Library/Core/Src/usbd_ctlreq.c ****               else
 393:Middlewares/ST/STM32_USB_Device_Library/Core/Src/usbd_ctlreq.c ****               {
 394:Middlewares/ST/STM32_USB_Device_Library/Core/Src/usbd_ctlreq.c ****                 pep->status = 0x0000U;
 925              		.loc 1 394 29
 926 02f8 BB68     		ldr	r3, [r7, #8]
 927 02fa 0022     		movs	r2, #0
 928 02fc 1A60     		str	r2, [r3]
 929              	.L72:
 395:Middlewares/ST/STM32_USB_Device_Library/Core/Src/usbd_ctlreq.c ****               }
 396:Middlewares/ST/STM32_USB_Device_Library/Core/Src/usbd_ctlreq.c **** 
ARM GAS  C:\Users\Godwin\AppData\Local\Temp\cc8eSH1G.s 			page 32


 397:Middlewares/ST/STM32_USB_Device_Library/Core/Src/usbd_ctlreq.c ****               (void)USBD_CtlSendData(pdev, (uint8_t *)&pep->status, 2U);
 930              		.loc 1 397 55
 931 02fe BB68     		ldr	r3, [r7, #8]
 932              		.loc 1 397 21
 933 0300 0222     		movs	r2, #2
 934 0302 1946     		mov	r1, r3
 935 0304 7868     		ldr	r0, [r7, #4]
 936 0306 FFF7FEFF 		bl	USBD_CtlSendData
 398:Middlewares/ST/STM32_USB_Device_Library/Core/Src/usbd_ctlreq.c ****               break;
 937              		.loc 1 398 15
 938 030a 04E0     		b	.L63
 939              	.L77:
 399:Middlewares/ST/STM32_USB_Device_Library/Core/Src/usbd_ctlreq.c **** 
 400:Middlewares/ST/STM32_USB_Device_Library/Core/Src/usbd_ctlreq.c ****             default:
 401:Middlewares/ST/STM32_USB_Device_Library/Core/Src/usbd_ctlreq.c ****               USBD_CtlError(pdev, req);
 940              		.loc 1 401 15
 941 030c 3968     		ldr	r1, [r7]
 942 030e 7868     		ldr	r0, [r7, #4]
 943 0310 FFF7FEFF 		bl	USBD_CtlError
 402:Middlewares/ST/STM32_USB_Device_Library/Core/Src/usbd_ctlreq.c ****               break;
 944              		.loc 1 402 15
 945 0314 00BF     		nop
 946              	.L63:
 403:Middlewares/ST/STM32_USB_Device_Library/Core/Src/usbd_ctlreq.c ****           }
 404:Middlewares/ST/STM32_USB_Device_Library/Core/Src/usbd_ctlreq.c ****           break;
 947              		.loc 1 404 11
 948 0316 04E0     		b	.L50
 949              	.L40:
 405:Middlewares/ST/STM32_USB_Device_Library/Core/Src/usbd_ctlreq.c **** 
 406:Middlewares/ST/STM32_USB_Device_Library/Core/Src/usbd_ctlreq.c ****         default:
 407:Middlewares/ST/STM32_USB_Device_Library/Core/Src/usbd_ctlreq.c ****           USBD_CtlError(pdev, req);
 950              		.loc 1 407 11
 951 0318 3968     		ldr	r1, [r7]
 952 031a 7868     		ldr	r0, [r7, #4]
 953 031c FFF7FEFF 		bl	USBD_CtlError
 408:Middlewares/ST/STM32_USB_Device_Library/Core/Src/usbd_ctlreq.c ****           break;
 954              		.loc 1 408 11
 955 0320 00BF     		nop
 956              	.L50:
 409:Middlewares/ST/STM32_USB_Device_Library/Core/Src/usbd_ctlreq.c ****       }
 410:Middlewares/ST/STM32_USB_Device_Library/Core/Src/usbd_ctlreq.c ****       break;
 957              		.loc 1 410 7
 958 0322 05E0     		b	.L38
 959              	.L35:
 411:Middlewares/ST/STM32_USB_Device_Library/Core/Src/usbd_ctlreq.c **** 
 412:Middlewares/ST/STM32_USB_Device_Library/Core/Src/usbd_ctlreq.c ****     default:
 413:Middlewares/ST/STM32_USB_Device_Library/Core/Src/usbd_ctlreq.c ****       USBD_CtlError(pdev, req);
 960              		.loc 1 413 7
 961 0324 3968     		ldr	r1, [r7]
 962 0326 7868     		ldr	r0, [r7, #4]
 963 0328 FFF7FEFF 		bl	USBD_CtlError
 414:Middlewares/ST/STM32_USB_Device_Library/Core/Src/usbd_ctlreq.c ****       break;
 964              		.loc 1 414 7
 965 032c 00E0     		b	.L38
 966              	.L78:
 263:Middlewares/ST/STM32_USB_Device_Library/Core/Src/usbd_ctlreq.c **** 
 967              		.loc 1 263 7
ARM GAS  C:\Users\Godwin\AppData\Local\Temp\cc8eSH1G.s 			page 33


 968 032e 00BF     		nop
 969              	.L38:
 415:Middlewares/ST/STM32_USB_Device_Library/Core/Src/usbd_ctlreq.c ****   }
 416:Middlewares/ST/STM32_USB_Device_Library/Core/Src/usbd_ctlreq.c **** 
 417:Middlewares/ST/STM32_USB_Device_Library/Core/Src/usbd_ctlreq.c ****   return ret;
 970              		.loc 1 417 10
 971 0330 FB7B     		ldrb	r3, [r7, #15]	@ zero_extendqisi2
 418:Middlewares/ST/STM32_USB_Device_Library/Core/Src/usbd_ctlreq.c **** }
 972              		.loc 1 418 1
 973 0332 1846     		mov	r0, r3
 974 0334 1037     		adds	r7, r7, #16
 975              	.LCFI19:
 976              		.cfi_def_cfa_offset 8
 977 0336 BD46     		mov	sp, r7
 978              	.LCFI20:
 979              		.cfi_def_cfa_register 13
 980              		@ sp needed
 981 0338 80BD     		pop	{r7, pc}
 982              		.cfi_endproc
 983              	.LFE150:
 985              		.section	.text.USBD_GetDescriptor,"ax",%progbits
 986              		.align	1
 987              		.syntax unified
 988              		.thumb
 989              		.thumb_func
 991              	USBD_GetDescriptor:
 992              	.LFB151:
 419:Middlewares/ST/STM32_USB_Device_Library/Core/Src/usbd_ctlreq.c **** 
 420:Middlewares/ST/STM32_USB_Device_Library/Core/Src/usbd_ctlreq.c **** 
 421:Middlewares/ST/STM32_USB_Device_Library/Core/Src/usbd_ctlreq.c **** /**
 422:Middlewares/ST/STM32_USB_Device_Library/Core/Src/usbd_ctlreq.c ****   * @brief  USBD_GetDescriptor
 423:Middlewares/ST/STM32_USB_Device_Library/Core/Src/usbd_ctlreq.c ****   *         Handle Get Descriptor requests
 424:Middlewares/ST/STM32_USB_Device_Library/Core/Src/usbd_ctlreq.c ****   * @param  pdev: device instance
 425:Middlewares/ST/STM32_USB_Device_Library/Core/Src/usbd_ctlreq.c ****   * @param  req: usb request
 426:Middlewares/ST/STM32_USB_Device_Library/Core/Src/usbd_ctlreq.c ****   * @retval None
 427:Middlewares/ST/STM32_USB_Device_Library/Core/Src/usbd_ctlreq.c ****   */
 428:Middlewares/ST/STM32_USB_Device_Library/Core/Src/usbd_ctlreq.c **** static void USBD_GetDescriptor(USBD_HandleTypeDef *pdev, USBD_SetupReqTypedef *req)
 429:Middlewares/ST/STM32_USB_Device_Library/Core/Src/usbd_ctlreq.c **** {
 993              		.loc 1 429 1
 994              		.cfi_startproc
 995              		@ args = 0, pretend = 0, frame = 16
 996              		@ frame_needed = 1, uses_anonymous_args = 0
 997 0000 80B5     		push	{r7, lr}
 998              	.LCFI21:
 999              		.cfi_def_cfa_offset 8
 1000              		.cfi_offset 7, -8
 1001              		.cfi_offset 14, -4
 1002 0002 84B0     		sub	sp, sp, #16
 1003              	.LCFI22:
 1004              		.cfi_def_cfa_offset 24
 1005 0004 00AF     		add	r7, sp, #0
 1006              	.LCFI23:
 1007              		.cfi_def_cfa_register 7
 1008 0006 7860     		str	r0, [r7, #4]
 1009 0008 3960     		str	r1, [r7]
 430:Middlewares/ST/STM32_USB_Device_Library/Core/Src/usbd_ctlreq.c ****   uint16_t len = 0U;
 1010              		.loc 1 430 12
ARM GAS  C:\Users\Godwin\AppData\Local\Temp\cc8eSH1G.s 			page 34


 1011 000a 0023     		movs	r3, #0
 1012 000c 3B81     		strh	r3, [r7, #8]	@ movhi
 431:Middlewares/ST/STM32_USB_Device_Library/Core/Src/usbd_ctlreq.c ****   uint8_t *pbuf = NULL;
 1013              		.loc 1 431 12
 1014 000e 0023     		movs	r3, #0
 1015 0010 FB60     		str	r3, [r7, #12]
 432:Middlewares/ST/STM32_USB_Device_Library/Core/Src/usbd_ctlreq.c ****   uint8_t err = 0U;
 1016              		.loc 1 432 11
 1017 0012 0023     		movs	r3, #0
 1018 0014 FB72     		strb	r3, [r7, #11]
 433:Middlewares/ST/STM32_USB_Device_Library/Core/Src/usbd_ctlreq.c **** 
 434:Middlewares/ST/STM32_USB_Device_Library/Core/Src/usbd_ctlreq.c ****   switch (req->wValue >> 8)
 1019              		.loc 1 434 14
 1020 0016 3B68     		ldr	r3, [r7]
 1021 0018 5B88     		ldrh	r3, [r3, #2]
 1022              		.loc 1 434 23
 1023 001a 1B0A     		lsrs	r3, r3, #8
 1024 001c 9BB2     		uxth	r3, r3
 1025              		.loc 1 434 3
 1026 001e 013B     		subs	r3, r3, #1
 1027 0020 0E2B     		cmp	r3, #14
 1028 0022 00F25281 		bhi	.L81
 1029 0026 01A2     		adr	r2, .L83
 1030 0028 52F823F0 		ldr	pc, [r2, r3, lsl #2]
 1031              		.p2align 2
 1032              	.L83:
 1033 002c 9D000000 		.word	.L88+1
 1034 0030 B5000000 		.word	.L87+1
 1035 0034 F5000000 		.word	.L86+1
 1036 0038 CB020000 		.word	.L81+1
 1037 003c CB020000 		.word	.L81+1
 1038 0040 6B020000 		.word	.L85+1
 1039 0044 97020000 		.word	.L84+1
 1040 0048 CB020000 		.word	.L81+1
 1041 004c CB020000 		.word	.L81+1
 1042 0050 CB020000 		.word	.L81+1
 1043 0054 CB020000 		.word	.L81+1
 1044 0058 CB020000 		.word	.L81+1
 1045 005c CB020000 		.word	.L81+1
 1046 0060 CB020000 		.word	.L81+1
 1047 0064 69000000 		.word	.L82+1
 1048              		.p2align 1
 1049              	.L82:
 435:Middlewares/ST/STM32_USB_Device_Library/Core/Src/usbd_ctlreq.c ****   {
 436:Middlewares/ST/STM32_USB_Device_Library/Core/Src/usbd_ctlreq.c **** #if ((USBD_LPM_ENABLED == 1U) || (USBD_CLASS_BOS_ENABLED == 1U))
 437:Middlewares/ST/STM32_USB_Device_Library/Core/Src/usbd_ctlreq.c ****     case USB_DESC_TYPE_BOS:
 438:Middlewares/ST/STM32_USB_Device_Library/Core/Src/usbd_ctlreq.c ****       if (pdev->pDesc->GetBOSDescriptor != NULL)
 1050              		.loc 1 438 15
 1051 0068 7B68     		ldr	r3, [r7, #4]
 1052 006a D3F8B432 		ldr	r3, [r3, #692]
 1053              		.loc 1 438 22
 1054 006e DB69     		ldr	r3, [r3, #28]
 1055              		.loc 1 438 10
 1056 0070 002B     		cmp	r3, #0
 1057 0072 0BD0     		beq	.L89
 439:Middlewares/ST/STM32_USB_Device_Library/Core/Src/usbd_ctlreq.c ****       {
 440:Middlewares/ST/STM32_USB_Device_Library/Core/Src/usbd_ctlreq.c ****         pbuf = pdev->pDesc->GetBOSDescriptor(pdev->dev_speed, &len);
ARM GAS  C:\Users\Godwin\AppData\Local\Temp\cc8eSH1G.s 			page 35


 1058              		.loc 1 440 20
 1059 0074 7B68     		ldr	r3, [r7, #4]
 1060 0076 D3F8B432 		ldr	r3, [r3, #692]
 1061              		.loc 1 440 27
 1062 007a DB69     		ldr	r3, [r3, #28]
 1063              		.loc 1 440 16
 1064 007c 7A68     		ldr	r2, [r7, #4]
 1065 007e 127C     		ldrb	r2, [r2, #16]	@ zero_extendqisi2
 1066 0080 07F10801 		add	r1, r7, #8
 1067 0084 1046     		mov	r0, r2
 1068 0086 9847     		blx	r3
 1069              	.LVL4:
 1070 0088 F860     		str	r0, [r7, #12]
 441:Middlewares/ST/STM32_USB_Device_Library/Core/Src/usbd_ctlreq.c ****       }
 442:Middlewares/ST/STM32_USB_Device_Library/Core/Src/usbd_ctlreq.c ****       else
 443:Middlewares/ST/STM32_USB_Device_Library/Core/Src/usbd_ctlreq.c ****       {
 444:Middlewares/ST/STM32_USB_Device_Library/Core/Src/usbd_ctlreq.c ****         USBD_CtlError(pdev, req);
 445:Middlewares/ST/STM32_USB_Device_Library/Core/Src/usbd_ctlreq.c ****         err++;
 446:Middlewares/ST/STM32_USB_Device_Library/Core/Src/usbd_ctlreq.c ****       }
 447:Middlewares/ST/STM32_USB_Device_Library/Core/Src/usbd_ctlreq.c ****       break;
 1071              		.loc 1 447 7
 1072 008a 26E1     		b	.L91
 1073              	.L89:
 444:Middlewares/ST/STM32_USB_Device_Library/Core/Src/usbd_ctlreq.c ****         err++;
 1074              		.loc 1 444 9
 1075 008c 3968     		ldr	r1, [r7]
 1076 008e 7868     		ldr	r0, [r7, #4]
 1077 0090 FFF7FEFF 		bl	USBD_CtlError
 445:Middlewares/ST/STM32_USB_Device_Library/Core/Src/usbd_ctlreq.c ****       }
 1078              		.loc 1 445 12
 1079 0094 FB7A     		ldrb	r3, [r7, #11]	@ zero_extendqisi2
 1080 0096 0133     		adds	r3, r3, #1
 1081 0098 FB72     		strb	r3, [r7, #11]
 1082              		.loc 1 447 7
 1083 009a 1EE1     		b	.L91
 1084              	.L88:
 448:Middlewares/ST/STM32_USB_Device_Library/Core/Src/usbd_ctlreq.c **** #endif /* (USBD_LPM_ENABLED == 1U) || (USBD_CLASS_BOS_ENABLED == 1U) */
 449:Middlewares/ST/STM32_USB_Device_Library/Core/Src/usbd_ctlreq.c ****     case USB_DESC_TYPE_DEVICE:
 450:Middlewares/ST/STM32_USB_Device_Library/Core/Src/usbd_ctlreq.c ****       pbuf = pdev->pDesc->GetDeviceDescriptor(pdev->dev_speed, &len);
 1085              		.loc 1 450 18
 1086 009c 7B68     		ldr	r3, [r7, #4]
 1087 009e D3F8B432 		ldr	r3, [r3, #692]
 1088              		.loc 1 450 25
 1089 00a2 1B68     		ldr	r3, [r3]
 1090              		.loc 1 450 14
 1091 00a4 7A68     		ldr	r2, [r7, #4]
 1092 00a6 127C     		ldrb	r2, [r2, #16]	@ zero_extendqisi2
 1093 00a8 07F10801 		add	r1, r7, #8
 1094 00ac 1046     		mov	r0, r2
 1095 00ae 9847     		blx	r3
 1096              	.LVL5:
 1097 00b0 F860     		str	r0, [r7, #12]
 451:Middlewares/ST/STM32_USB_Device_Library/Core/Src/usbd_ctlreq.c ****       break;
 1098              		.loc 1 451 7
 1099 00b2 12E1     		b	.L91
 1100              	.L87:
 452:Middlewares/ST/STM32_USB_Device_Library/Core/Src/usbd_ctlreq.c **** 
ARM GAS  C:\Users\Godwin\AppData\Local\Temp\cc8eSH1G.s 			page 36


 453:Middlewares/ST/STM32_USB_Device_Library/Core/Src/usbd_ctlreq.c ****     case USB_DESC_TYPE_CONFIGURATION:
 454:Middlewares/ST/STM32_USB_Device_Library/Core/Src/usbd_ctlreq.c ****       if (pdev->dev_speed == USBD_SPEED_HIGH)
 1101              		.loc 1 454 15
 1102 00b4 7B68     		ldr	r3, [r7, #4]
 1103 00b6 1B7C     		ldrb	r3, [r3, #16]	@ zero_extendqisi2
 1104              		.loc 1 454 10
 1105 00b8 002B     		cmp	r3, #0
 1106 00ba 0DD1     		bne	.L92
 455:Middlewares/ST/STM32_USB_Device_Library/Core/Src/usbd_ctlreq.c ****       {
 456:Middlewares/ST/STM32_USB_Device_Library/Core/Src/usbd_ctlreq.c **** #ifdef USE_USBD_COMPOSITE
 457:Middlewares/ST/STM32_USB_Device_Library/Core/Src/usbd_ctlreq.c ****         if ((uint8_t)(pdev->NumClasses) > 0U)
 458:Middlewares/ST/STM32_USB_Device_Library/Core/Src/usbd_ctlreq.c ****         {
 459:Middlewares/ST/STM32_USB_Device_Library/Core/Src/usbd_ctlreq.c ****           pbuf = (uint8_t *)USBD_CMPSIT.GetHSConfigDescriptor(&len);
 460:Middlewares/ST/STM32_USB_Device_Library/Core/Src/usbd_ctlreq.c ****         }
 461:Middlewares/ST/STM32_USB_Device_Library/Core/Src/usbd_ctlreq.c ****         else
 462:Middlewares/ST/STM32_USB_Device_Library/Core/Src/usbd_ctlreq.c **** #endif /* USE_USBD_COMPOSITE */
 463:Middlewares/ST/STM32_USB_Device_Library/Core/Src/usbd_ctlreq.c ****         {
 464:Middlewares/ST/STM32_USB_Device_Library/Core/Src/usbd_ctlreq.c ****           pbuf = (uint8_t *)pdev->pClass[0]->GetHSConfigDescriptor(&len);
 1107              		.loc 1 464 41
 1108 00bc 7B68     		ldr	r3, [r7, #4]
 1109 00be D3F8B832 		ldr	r3, [r3, #696]
 1110              		.loc 1 464 44
 1111 00c2 9B6A     		ldr	r3, [r3, #40]
 1112              		.loc 1 464 18
 1113 00c4 07F10802 		add	r2, r7, #8
 1114 00c8 1046     		mov	r0, r2
 1115 00ca 9847     		blx	r3
 1116              	.LVL6:
 1117 00cc F860     		str	r0, [r7, #12]
 465:Middlewares/ST/STM32_USB_Device_Library/Core/Src/usbd_ctlreq.c ****         }
 466:Middlewares/ST/STM32_USB_Device_Library/Core/Src/usbd_ctlreq.c ****         pbuf[1] = USB_DESC_TYPE_CONFIGURATION;
 1118              		.loc 1 466 13
 1119 00ce FB68     		ldr	r3, [r7, #12]
 1120 00d0 0133     		adds	r3, r3, #1
 1121              		.loc 1 466 17
 1122 00d2 0222     		movs	r2, #2
 1123 00d4 1A70     		strb	r2, [r3]
 467:Middlewares/ST/STM32_USB_Device_Library/Core/Src/usbd_ctlreq.c ****       }
 468:Middlewares/ST/STM32_USB_Device_Library/Core/Src/usbd_ctlreq.c ****       else
 469:Middlewares/ST/STM32_USB_Device_Library/Core/Src/usbd_ctlreq.c ****       {
 470:Middlewares/ST/STM32_USB_Device_Library/Core/Src/usbd_ctlreq.c **** #ifdef USE_USBD_COMPOSITE
 471:Middlewares/ST/STM32_USB_Device_Library/Core/Src/usbd_ctlreq.c ****         if ((uint8_t)(pdev->NumClasses) > 0U)
 472:Middlewares/ST/STM32_USB_Device_Library/Core/Src/usbd_ctlreq.c ****         {
 473:Middlewares/ST/STM32_USB_Device_Library/Core/Src/usbd_ctlreq.c ****           pbuf = (uint8_t *)USBD_CMPSIT.GetFSConfigDescriptor(&len);
 474:Middlewares/ST/STM32_USB_Device_Library/Core/Src/usbd_ctlreq.c ****         }
 475:Middlewares/ST/STM32_USB_Device_Library/Core/Src/usbd_ctlreq.c ****         else
 476:Middlewares/ST/STM32_USB_Device_Library/Core/Src/usbd_ctlreq.c **** #endif /* USE_USBD_COMPOSITE */
 477:Middlewares/ST/STM32_USB_Device_Library/Core/Src/usbd_ctlreq.c ****         {
 478:Middlewares/ST/STM32_USB_Device_Library/Core/Src/usbd_ctlreq.c ****           pbuf = (uint8_t *)pdev->pClass[0]->GetFSConfigDescriptor(&len);
 479:Middlewares/ST/STM32_USB_Device_Library/Core/Src/usbd_ctlreq.c ****         }
 480:Middlewares/ST/STM32_USB_Device_Library/Core/Src/usbd_ctlreq.c ****         pbuf[1] = USB_DESC_TYPE_CONFIGURATION;
 481:Middlewares/ST/STM32_USB_Device_Library/Core/Src/usbd_ctlreq.c ****       }
 482:Middlewares/ST/STM32_USB_Device_Library/Core/Src/usbd_ctlreq.c ****       break;
 1124              		.loc 1 482 7
 1125 00d6 00E1     		b	.L91
 1126              	.L92:
 478:Middlewares/ST/STM32_USB_Device_Library/Core/Src/usbd_ctlreq.c ****         }
ARM GAS  C:\Users\Godwin\AppData\Local\Temp\cc8eSH1G.s 			page 37


 1127              		.loc 1 478 41
 1128 00d8 7B68     		ldr	r3, [r7, #4]
 1129 00da D3F8B832 		ldr	r3, [r3, #696]
 478:Middlewares/ST/STM32_USB_Device_Library/Core/Src/usbd_ctlreq.c ****         }
 1130              		.loc 1 478 44
 1131 00de DB6A     		ldr	r3, [r3, #44]
 478:Middlewares/ST/STM32_USB_Device_Library/Core/Src/usbd_ctlreq.c ****         }
 1132              		.loc 1 478 18
 1133 00e0 07F10802 		add	r2, r7, #8
 1134 00e4 1046     		mov	r0, r2
 1135 00e6 9847     		blx	r3
 1136              	.LVL7:
 1137 00e8 F860     		str	r0, [r7, #12]
 480:Middlewares/ST/STM32_USB_Device_Library/Core/Src/usbd_ctlreq.c ****       }
 1138              		.loc 1 480 13
 1139 00ea FB68     		ldr	r3, [r7, #12]
 1140 00ec 0133     		adds	r3, r3, #1
 480:Middlewares/ST/STM32_USB_Device_Library/Core/Src/usbd_ctlreq.c ****       }
 1141              		.loc 1 480 17
 1142 00ee 0222     		movs	r2, #2
 1143 00f0 1A70     		strb	r2, [r3]
 1144              		.loc 1 482 7
 1145 00f2 F2E0     		b	.L91
 1146              	.L86:
 483:Middlewares/ST/STM32_USB_Device_Library/Core/Src/usbd_ctlreq.c **** 
 484:Middlewares/ST/STM32_USB_Device_Library/Core/Src/usbd_ctlreq.c ****     case USB_DESC_TYPE_STRING:
 485:Middlewares/ST/STM32_USB_Device_Library/Core/Src/usbd_ctlreq.c ****       switch ((uint8_t)(req->wValue))
 1147              		.loc 1 485 28
 1148 00f4 3B68     		ldr	r3, [r7]
 1149 00f6 5B88     		ldrh	r3, [r3, #2]
 1150              		.loc 1 485 15
 1151 00f8 DBB2     		uxtb	r3, r3
 1152 00fa 052B     		cmp	r3, #5
 1153 00fc 00F2AC80 		bhi	.L94
 1154 0100 01A2     		adr	r2, .L96
 1155 0102 52F823F0 		ldr	pc, [r2, r3, lsl #2]
 1156 0106 00BF     		.p2align 2
 1157              	.L96:
 1158 0108 21010000 		.word	.L101+1
 1159 010c 55010000 		.word	.L100+1
 1160 0110 89010000 		.word	.L99+1
 1161 0114 BD010000 		.word	.L98+1
 1162 0118 F1010000 		.word	.L97+1
 1163 011c 25020000 		.word	.L95+1
 1164              		.p2align 1
 1165              	.L101:
 486:Middlewares/ST/STM32_USB_Device_Library/Core/Src/usbd_ctlreq.c ****       {
 487:Middlewares/ST/STM32_USB_Device_Library/Core/Src/usbd_ctlreq.c ****         case USBD_IDX_LANGID_STR:
 488:Middlewares/ST/STM32_USB_Device_Library/Core/Src/usbd_ctlreq.c ****           if (pdev->pDesc->GetLangIDStrDescriptor != NULL)
 1166              		.loc 1 488 19
 1167 0120 7B68     		ldr	r3, [r7, #4]
 1168 0122 D3F8B432 		ldr	r3, [r3, #692]
 1169              		.loc 1 488 26
 1170 0126 5B68     		ldr	r3, [r3, #4]
 1171              		.loc 1 488 14
 1172 0128 002B     		cmp	r3, #0
 1173 012a 0BD0     		beq	.L102
ARM GAS  C:\Users\Godwin\AppData\Local\Temp\cc8eSH1G.s 			page 38


 489:Middlewares/ST/STM32_USB_Device_Library/Core/Src/usbd_ctlreq.c ****           {
 490:Middlewares/ST/STM32_USB_Device_Library/Core/Src/usbd_ctlreq.c ****             pbuf = pdev->pDesc->GetLangIDStrDescriptor(pdev->dev_speed, &len);
 1174              		.loc 1 490 24
 1175 012c 7B68     		ldr	r3, [r7, #4]
 1176 012e D3F8B432 		ldr	r3, [r3, #692]
 1177              		.loc 1 490 31
 1178 0132 5B68     		ldr	r3, [r3, #4]
 1179              		.loc 1 490 20
 1180 0134 7A68     		ldr	r2, [r7, #4]
 1181 0136 127C     		ldrb	r2, [r2, #16]	@ zero_extendqisi2
 1182 0138 07F10801 		add	r1, r7, #8
 1183 013c 1046     		mov	r0, r2
 1184 013e 9847     		blx	r3
 1185              	.LVL8:
 1186 0140 F860     		str	r0, [r7, #12]
 491:Middlewares/ST/STM32_USB_Device_Library/Core/Src/usbd_ctlreq.c ****           }
 492:Middlewares/ST/STM32_USB_Device_Library/Core/Src/usbd_ctlreq.c ****           else
 493:Middlewares/ST/STM32_USB_Device_Library/Core/Src/usbd_ctlreq.c ****           {
 494:Middlewares/ST/STM32_USB_Device_Library/Core/Src/usbd_ctlreq.c ****             USBD_CtlError(pdev, req);
 495:Middlewares/ST/STM32_USB_Device_Library/Core/Src/usbd_ctlreq.c ****             err++;
 496:Middlewares/ST/STM32_USB_Device_Library/Core/Src/usbd_ctlreq.c ****           }
 497:Middlewares/ST/STM32_USB_Device_Library/Core/Src/usbd_ctlreq.c ****           break;
 1187              		.loc 1 497 11
 1188 0142 91E0     		b	.L104
 1189              	.L102:
 494:Middlewares/ST/STM32_USB_Device_Library/Core/Src/usbd_ctlreq.c ****             err++;
 1190              		.loc 1 494 13
 1191 0144 3968     		ldr	r1, [r7]
 1192 0146 7868     		ldr	r0, [r7, #4]
 1193 0148 FFF7FEFF 		bl	USBD_CtlError
 495:Middlewares/ST/STM32_USB_Device_Library/Core/Src/usbd_ctlreq.c ****           }
 1194              		.loc 1 495 16
 1195 014c FB7A     		ldrb	r3, [r7, #11]	@ zero_extendqisi2
 1196 014e 0133     		adds	r3, r3, #1
 1197 0150 FB72     		strb	r3, [r7, #11]
 1198              		.loc 1 497 11
 1199 0152 89E0     		b	.L104
 1200              	.L100:
 498:Middlewares/ST/STM32_USB_Device_Library/Core/Src/usbd_ctlreq.c **** 
 499:Middlewares/ST/STM32_USB_Device_Library/Core/Src/usbd_ctlreq.c ****         case USBD_IDX_MFC_STR:
 500:Middlewares/ST/STM32_USB_Device_Library/Core/Src/usbd_ctlreq.c ****           if (pdev->pDesc->GetManufacturerStrDescriptor != NULL)
 1201              		.loc 1 500 19
 1202 0154 7B68     		ldr	r3, [r7, #4]
 1203 0156 D3F8B432 		ldr	r3, [r3, #692]
 1204              		.loc 1 500 26
 1205 015a 9B68     		ldr	r3, [r3, #8]
 1206              		.loc 1 500 14
 1207 015c 002B     		cmp	r3, #0
 1208 015e 0BD0     		beq	.L105
 501:Middlewares/ST/STM32_USB_Device_Library/Core/Src/usbd_ctlreq.c ****           {
 502:Middlewares/ST/STM32_USB_Device_Library/Core/Src/usbd_ctlreq.c ****             pbuf = pdev->pDesc->GetManufacturerStrDescriptor(pdev->dev_speed, &len);
 1209              		.loc 1 502 24
 1210 0160 7B68     		ldr	r3, [r7, #4]
 1211 0162 D3F8B432 		ldr	r3, [r3, #692]
 1212              		.loc 1 502 31
 1213 0166 9B68     		ldr	r3, [r3, #8]
 1214              		.loc 1 502 20
ARM GAS  C:\Users\Godwin\AppData\Local\Temp\cc8eSH1G.s 			page 39


 1215 0168 7A68     		ldr	r2, [r7, #4]
 1216 016a 127C     		ldrb	r2, [r2, #16]	@ zero_extendqisi2
 1217 016c 07F10801 		add	r1, r7, #8
 1218 0170 1046     		mov	r0, r2
 1219 0172 9847     		blx	r3
 1220              	.LVL9:
 1221 0174 F860     		str	r0, [r7, #12]
 503:Middlewares/ST/STM32_USB_Device_Library/Core/Src/usbd_ctlreq.c ****           }
 504:Middlewares/ST/STM32_USB_Device_Library/Core/Src/usbd_ctlreq.c ****           else
 505:Middlewares/ST/STM32_USB_Device_Library/Core/Src/usbd_ctlreq.c ****           {
 506:Middlewares/ST/STM32_USB_Device_Library/Core/Src/usbd_ctlreq.c ****             USBD_CtlError(pdev, req);
 507:Middlewares/ST/STM32_USB_Device_Library/Core/Src/usbd_ctlreq.c ****             err++;
 508:Middlewares/ST/STM32_USB_Device_Library/Core/Src/usbd_ctlreq.c ****           }
 509:Middlewares/ST/STM32_USB_Device_Library/Core/Src/usbd_ctlreq.c ****           break;
 1222              		.loc 1 509 11
 1223 0176 77E0     		b	.L104
 1224              	.L105:
 506:Middlewares/ST/STM32_USB_Device_Library/Core/Src/usbd_ctlreq.c ****             err++;
 1225              		.loc 1 506 13
 1226 0178 3968     		ldr	r1, [r7]
 1227 017a 7868     		ldr	r0, [r7, #4]
 1228 017c FFF7FEFF 		bl	USBD_CtlError
 507:Middlewares/ST/STM32_USB_Device_Library/Core/Src/usbd_ctlreq.c ****           }
 1229              		.loc 1 507 16
 1230 0180 FB7A     		ldrb	r3, [r7, #11]	@ zero_extendqisi2
 1231 0182 0133     		adds	r3, r3, #1
 1232 0184 FB72     		strb	r3, [r7, #11]
 1233              		.loc 1 509 11
 1234 0186 6FE0     		b	.L104
 1235              	.L99:
 510:Middlewares/ST/STM32_USB_Device_Library/Core/Src/usbd_ctlreq.c **** 
 511:Middlewares/ST/STM32_USB_Device_Library/Core/Src/usbd_ctlreq.c ****         case USBD_IDX_PRODUCT_STR:
 512:Middlewares/ST/STM32_USB_Device_Library/Core/Src/usbd_ctlreq.c ****           if (pdev->pDesc->GetProductStrDescriptor != NULL)
 1236              		.loc 1 512 19
 1237 0188 7B68     		ldr	r3, [r7, #4]
 1238 018a D3F8B432 		ldr	r3, [r3, #692]
 1239              		.loc 1 512 26
 1240 018e DB68     		ldr	r3, [r3, #12]
 1241              		.loc 1 512 14
 1242 0190 002B     		cmp	r3, #0
 1243 0192 0BD0     		beq	.L107
 513:Middlewares/ST/STM32_USB_Device_Library/Core/Src/usbd_ctlreq.c ****           {
 514:Middlewares/ST/STM32_USB_Device_Library/Core/Src/usbd_ctlreq.c ****             pbuf = pdev->pDesc->GetProductStrDescriptor(pdev->dev_speed, &len);
 1244              		.loc 1 514 24
 1245 0194 7B68     		ldr	r3, [r7, #4]
 1246 0196 D3F8B432 		ldr	r3, [r3, #692]
 1247              		.loc 1 514 31
 1248 019a DB68     		ldr	r3, [r3, #12]
 1249              		.loc 1 514 20
 1250 019c 7A68     		ldr	r2, [r7, #4]
 1251 019e 127C     		ldrb	r2, [r2, #16]	@ zero_extendqisi2
 1252 01a0 07F10801 		add	r1, r7, #8
 1253 01a4 1046     		mov	r0, r2
 1254 01a6 9847     		blx	r3
 1255              	.LVL10:
 1256 01a8 F860     		str	r0, [r7, #12]
 515:Middlewares/ST/STM32_USB_Device_Library/Core/Src/usbd_ctlreq.c ****           }
ARM GAS  C:\Users\Godwin\AppData\Local\Temp\cc8eSH1G.s 			page 40


 516:Middlewares/ST/STM32_USB_Device_Library/Core/Src/usbd_ctlreq.c ****           else
 517:Middlewares/ST/STM32_USB_Device_Library/Core/Src/usbd_ctlreq.c ****           {
 518:Middlewares/ST/STM32_USB_Device_Library/Core/Src/usbd_ctlreq.c ****             USBD_CtlError(pdev, req);
 519:Middlewares/ST/STM32_USB_Device_Library/Core/Src/usbd_ctlreq.c ****             err++;
 520:Middlewares/ST/STM32_USB_Device_Library/Core/Src/usbd_ctlreq.c ****           }
 521:Middlewares/ST/STM32_USB_Device_Library/Core/Src/usbd_ctlreq.c ****           break;
 1257              		.loc 1 521 11
 1258 01aa 5DE0     		b	.L104
 1259              	.L107:
 518:Middlewares/ST/STM32_USB_Device_Library/Core/Src/usbd_ctlreq.c ****             err++;
 1260              		.loc 1 518 13
 1261 01ac 3968     		ldr	r1, [r7]
 1262 01ae 7868     		ldr	r0, [r7, #4]
 1263 01b0 FFF7FEFF 		bl	USBD_CtlError
 519:Middlewares/ST/STM32_USB_Device_Library/Core/Src/usbd_ctlreq.c ****           }
 1264              		.loc 1 519 16
 1265 01b4 FB7A     		ldrb	r3, [r7, #11]	@ zero_extendqisi2
 1266 01b6 0133     		adds	r3, r3, #1
 1267 01b8 FB72     		strb	r3, [r7, #11]
 1268              		.loc 1 521 11
 1269 01ba 55E0     		b	.L104
 1270              	.L98:
 522:Middlewares/ST/STM32_USB_Device_Library/Core/Src/usbd_ctlreq.c **** 
 523:Middlewares/ST/STM32_USB_Device_Library/Core/Src/usbd_ctlreq.c ****         case USBD_IDX_SERIAL_STR:
 524:Middlewares/ST/STM32_USB_Device_Library/Core/Src/usbd_ctlreq.c ****           if (pdev->pDesc->GetSerialStrDescriptor != NULL)
 1271              		.loc 1 524 19
 1272 01bc 7B68     		ldr	r3, [r7, #4]
 1273 01be D3F8B432 		ldr	r3, [r3, #692]
 1274              		.loc 1 524 26
 1275 01c2 1B69     		ldr	r3, [r3, #16]
 1276              		.loc 1 524 14
 1277 01c4 002B     		cmp	r3, #0
 1278 01c6 0BD0     		beq	.L109
 525:Middlewares/ST/STM32_USB_Device_Library/Core/Src/usbd_ctlreq.c ****           {
 526:Middlewares/ST/STM32_USB_Device_Library/Core/Src/usbd_ctlreq.c ****             pbuf = pdev->pDesc->GetSerialStrDescriptor(pdev->dev_speed, &len);
 1279              		.loc 1 526 24
 1280 01c8 7B68     		ldr	r3, [r7, #4]
 1281 01ca D3F8B432 		ldr	r3, [r3, #692]
 1282              		.loc 1 526 31
 1283 01ce 1B69     		ldr	r3, [r3, #16]
 1284              		.loc 1 526 20
 1285 01d0 7A68     		ldr	r2, [r7, #4]
 1286 01d2 127C     		ldrb	r2, [r2, #16]	@ zero_extendqisi2
 1287 01d4 07F10801 		add	r1, r7, #8
 1288 01d8 1046     		mov	r0, r2
 1289 01da 9847     		blx	r3
 1290              	.LVL11:
 1291 01dc F860     		str	r0, [r7, #12]
 527:Middlewares/ST/STM32_USB_Device_Library/Core/Src/usbd_ctlreq.c ****           }
 528:Middlewares/ST/STM32_USB_Device_Library/Core/Src/usbd_ctlreq.c ****           else
 529:Middlewares/ST/STM32_USB_Device_Library/Core/Src/usbd_ctlreq.c ****           {
 530:Middlewares/ST/STM32_USB_Device_Library/Core/Src/usbd_ctlreq.c ****             USBD_CtlError(pdev, req);
 531:Middlewares/ST/STM32_USB_Device_Library/Core/Src/usbd_ctlreq.c ****             err++;
 532:Middlewares/ST/STM32_USB_Device_Library/Core/Src/usbd_ctlreq.c ****           }
 533:Middlewares/ST/STM32_USB_Device_Library/Core/Src/usbd_ctlreq.c ****           break;
 1292              		.loc 1 533 11
 1293 01de 43E0     		b	.L104
ARM GAS  C:\Users\Godwin\AppData\Local\Temp\cc8eSH1G.s 			page 41


 1294              	.L109:
 530:Middlewares/ST/STM32_USB_Device_Library/Core/Src/usbd_ctlreq.c ****             err++;
 1295              		.loc 1 530 13
 1296 01e0 3968     		ldr	r1, [r7]
 1297 01e2 7868     		ldr	r0, [r7, #4]
 1298 01e4 FFF7FEFF 		bl	USBD_CtlError
 531:Middlewares/ST/STM32_USB_Device_Library/Core/Src/usbd_ctlreq.c ****           }
 1299              		.loc 1 531 16
 1300 01e8 FB7A     		ldrb	r3, [r7, #11]	@ zero_extendqisi2
 1301 01ea 0133     		adds	r3, r3, #1
 1302 01ec FB72     		strb	r3, [r7, #11]
 1303              		.loc 1 533 11
 1304 01ee 3BE0     		b	.L104
 1305              	.L97:
 534:Middlewares/ST/STM32_USB_Device_Library/Core/Src/usbd_ctlreq.c **** 
 535:Middlewares/ST/STM32_USB_Device_Library/Core/Src/usbd_ctlreq.c ****         case USBD_IDX_CONFIG_STR:
 536:Middlewares/ST/STM32_USB_Device_Library/Core/Src/usbd_ctlreq.c ****           if (pdev->pDesc->GetConfigurationStrDescriptor != NULL)
 1306              		.loc 1 536 19
 1307 01f0 7B68     		ldr	r3, [r7, #4]
 1308 01f2 D3F8B432 		ldr	r3, [r3, #692]
 1309              		.loc 1 536 26
 1310 01f6 5B69     		ldr	r3, [r3, #20]
 1311              		.loc 1 536 14
 1312 01f8 002B     		cmp	r3, #0
 1313 01fa 0BD0     		beq	.L111
 537:Middlewares/ST/STM32_USB_Device_Library/Core/Src/usbd_ctlreq.c ****           {
 538:Middlewares/ST/STM32_USB_Device_Library/Core/Src/usbd_ctlreq.c ****             pbuf = pdev->pDesc->GetConfigurationStrDescriptor(pdev->dev_speed, &len);
 1314              		.loc 1 538 24
 1315 01fc 7B68     		ldr	r3, [r7, #4]
 1316 01fe D3F8B432 		ldr	r3, [r3, #692]
 1317              		.loc 1 538 31
 1318 0202 5B69     		ldr	r3, [r3, #20]
 1319              		.loc 1 538 20
 1320 0204 7A68     		ldr	r2, [r7, #4]
 1321 0206 127C     		ldrb	r2, [r2, #16]	@ zero_extendqisi2
 1322 0208 07F10801 		add	r1, r7, #8
 1323 020c 1046     		mov	r0, r2
 1324 020e 9847     		blx	r3
 1325              	.LVL12:
 1326 0210 F860     		str	r0, [r7, #12]
 539:Middlewares/ST/STM32_USB_Device_Library/Core/Src/usbd_ctlreq.c ****           }
 540:Middlewares/ST/STM32_USB_Device_Library/Core/Src/usbd_ctlreq.c ****           else
 541:Middlewares/ST/STM32_USB_Device_Library/Core/Src/usbd_ctlreq.c ****           {
 542:Middlewares/ST/STM32_USB_Device_Library/Core/Src/usbd_ctlreq.c ****             USBD_CtlError(pdev, req);
 543:Middlewares/ST/STM32_USB_Device_Library/Core/Src/usbd_ctlreq.c ****             err++;
 544:Middlewares/ST/STM32_USB_Device_Library/Core/Src/usbd_ctlreq.c ****           }
 545:Middlewares/ST/STM32_USB_Device_Library/Core/Src/usbd_ctlreq.c ****           break;
 1327              		.loc 1 545 11
 1328 0212 29E0     		b	.L104
 1329              	.L111:
 542:Middlewares/ST/STM32_USB_Device_Library/Core/Src/usbd_ctlreq.c ****             err++;
 1330              		.loc 1 542 13
 1331 0214 3968     		ldr	r1, [r7]
 1332 0216 7868     		ldr	r0, [r7, #4]
 1333 0218 FFF7FEFF 		bl	USBD_CtlError
 543:Middlewares/ST/STM32_USB_Device_Library/Core/Src/usbd_ctlreq.c ****           }
 1334              		.loc 1 543 16
ARM GAS  C:\Users\Godwin\AppData\Local\Temp\cc8eSH1G.s 			page 42


 1335 021c FB7A     		ldrb	r3, [r7, #11]	@ zero_extendqisi2
 1336 021e 0133     		adds	r3, r3, #1
 1337 0220 FB72     		strb	r3, [r7, #11]
 1338              		.loc 1 545 11
 1339 0222 21E0     		b	.L104
 1340              	.L95:
 546:Middlewares/ST/STM32_USB_Device_Library/Core/Src/usbd_ctlreq.c **** 
 547:Middlewares/ST/STM32_USB_Device_Library/Core/Src/usbd_ctlreq.c ****         case USBD_IDX_INTERFACE_STR:
 548:Middlewares/ST/STM32_USB_Device_Library/Core/Src/usbd_ctlreq.c ****           if (pdev->pDesc->GetInterfaceStrDescriptor != NULL)
 1341              		.loc 1 548 19
 1342 0224 7B68     		ldr	r3, [r7, #4]
 1343 0226 D3F8B432 		ldr	r3, [r3, #692]
 1344              		.loc 1 548 26
 1345 022a 9B69     		ldr	r3, [r3, #24]
 1346              		.loc 1 548 14
 1347 022c 002B     		cmp	r3, #0
 1348 022e 0BD0     		beq	.L113
 549:Middlewares/ST/STM32_USB_Device_Library/Core/Src/usbd_ctlreq.c ****           {
 550:Middlewares/ST/STM32_USB_Device_Library/Core/Src/usbd_ctlreq.c ****             pbuf = pdev->pDesc->GetInterfaceStrDescriptor(pdev->dev_speed, &len);
 1349              		.loc 1 550 24
 1350 0230 7B68     		ldr	r3, [r7, #4]
 1351 0232 D3F8B432 		ldr	r3, [r3, #692]
 1352              		.loc 1 550 31
 1353 0236 9B69     		ldr	r3, [r3, #24]
 1354              		.loc 1 550 20
 1355 0238 7A68     		ldr	r2, [r7, #4]
 1356 023a 127C     		ldrb	r2, [r2, #16]	@ zero_extendqisi2
 1357 023c 07F10801 		add	r1, r7, #8
 1358 0240 1046     		mov	r0, r2
 1359 0242 9847     		blx	r3
 1360              	.LVL13:
 1361 0244 F860     		str	r0, [r7, #12]
 551:Middlewares/ST/STM32_USB_Device_Library/Core/Src/usbd_ctlreq.c ****           }
 552:Middlewares/ST/STM32_USB_Device_Library/Core/Src/usbd_ctlreq.c ****           else
 553:Middlewares/ST/STM32_USB_Device_Library/Core/Src/usbd_ctlreq.c ****           {
 554:Middlewares/ST/STM32_USB_Device_Library/Core/Src/usbd_ctlreq.c ****             USBD_CtlError(pdev, req);
 555:Middlewares/ST/STM32_USB_Device_Library/Core/Src/usbd_ctlreq.c ****             err++;
 556:Middlewares/ST/STM32_USB_Device_Library/Core/Src/usbd_ctlreq.c ****           }
 557:Middlewares/ST/STM32_USB_Device_Library/Core/Src/usbd_ctlreq.c ****           break;
 1362              		.loc 1 557 11
 1363 0246 0FE0     		b	.L104
 1364              	.L113:
 554:Middlewares/ST/STM32_USB_Device_Library/Core/Src/usbd_ctlreq.c ****             err++;
 1365              		.loc 1 554 13
 1366 0248 3968     		ldr	r1, [r7]
 1367 024a 7868     		ldr	r0, [r7, #4]
 1368 024c FFF7FEFF 		bl	USBD_CtlError
 555:Middlewares/ST/STM32_USB_Device_Library/Core/Src/usbd_ctlreq.c ****           }
 1369              		.loc 1 555 16
 1370 0250 FB7A     		ldrb	r3, [r7, #11]	@ zero_extendqisi2
 1371 0252 0133     		adds	r3, r3, #1
 1372 0254 FB72     		strb	r3, [r7, #11]
 1373              		.loc 1 557 11
 1374 0256 07E0     		b	.L104
 1375              	.L94:
 558:Middlewares/ST/STM32_USB_Device_Library/Core/Src/usbd_ctlreq.c **** 
 559:Middlewares/ST/STM32_USB_Device_Library/Core/Src/usbd_ctlreq.c ****         default:
ARM GAS  C:\Users\Godwin\AppData\Local\Temp\cc8eSH1G.s 			page 43


 560:Middlewares/ST/STM32_USB_Device_Library/Core/Src/usbd_ctlreq.c **** #if (USBD_SUPPORT_USER_STRING_DESC == 1U)
 561:Middlewares/ST/STM32_USB_Device_Library/Core/Src/usbd_ctlreq.c ****           pbuf = NULL;
 562:Middlewares/ST/STM32_USB_Device_Library/Core/Src/usbd_ctlreq.c **** 
 563:Middlewares/ST/STM32_USB_Device_Library/Core/Src/usbd_ctlreq.c ****           for (uint32_t idx = 0U; (idx < pdev->NumClasses); idx++)
 564:Middlewares/ST/STM32_USB_Device_Library/Core/Src/usbd_ctlreq.c ****           {
 565:Middlewares/ST/STM32_USB_Device_Library/Core/Src/usbd_ctlreq.c ****             if (pdev->pClass[idx]->GetUsrStrDescriptor != NULL)
 566:Middlewares/ST/STM32_USB_Device_Library/Core/Src/usbd_ctlreq.c ****             {
 567:Middlewares/ST/STM32_USB_Device_Library/Core/Src/usbd_ctlreq.c ****               pdev->classId = idx;
 568:Middlewares/ST/STM32_USB_Device_Library/Core/Src/usbd_ctlreq.c ****               pbuf = pdev->pClass[idx]->GetUsrStrDescriptor(pdev, LOBYTE(req->wValue), &len);
 569:Middlewares/ST/STM32_USB_Device_Library/Core/Src/usbd_ctlreq.c **** 
 570:Middlewares/ST/STM32_USB_Device_Library/Core/Src/usbd_ctlreq.c ****               if (pbuf == NULL) /* This means that no class recognized the string index */
 571:Middlewares/ST/STM32_USB_Device_Library/Core/Src/usbd_ctlreq.c ****               {
 572:Middlewares/ST/STM32_USB_Device_Library/Core/Src/usbd_ctlreq.c ****                 continue;
 573:Middlewares/ST/STM32_USB_Device_Library/Core/Src/usbd_ctlreq.c ****               }
 574:Middlewares/ST/STM32_USB_Device_Library/Core/Src/usbd_ctlreq.c ****               else
 575:Middlewares/ST/STM32_USB_Device_Library/Core/Src/usbd_ctlreq.c ****               {
 576:Middlewares/ST/STM32_USB_Device_Library/Core/Src/usbd_ctlreq.c ****                 break;
 577:Middlewares/ST/STM32_USB_Device_Library/Core/Src/usbd_ctlreq.c ****               }
 578:Middlewares/ST/STM32_USB_Device_Library/Core/Src/usbd_ctlreq.c ****             }
 579:Middlewares/ST/STM32_USB_Device_Library/Core/Src/usbd_ctlreq.c ****           }
 580:Middlewares/ST/STM32_USB_Device_Library/Core/Src/usbd_ctlreq.c **** #endif /* USBD_SUPPORT_USER_STRING_DESC  */
 581:Middlewares/ST/STM32_USB_Device_Library/Core/Src/usbd_ctlreq.c **** 
 582:Middlewares/ST/STM32_USB_Device_Library/Core/Src/usbd_ctlreq.c **** #if (USBD_CLASS_USER_STRING_DESC == 1U)
 583:Middlewares/ST/STM32_USB_Device_Library/Core/Src/usbd_ctlreq.c ****           if (pdev->pDesc->GetUserStrDescriptor != NULL)
 584:Middlewares/ST/STM32_USB_Device_Library/Core/Src/usbd_ctlreq.c ****           {
 585:Middlewares/ST/STM32_USB_Device_Library/Core/Src/usbd_ctlreq.c ****             pbuf = pdev->pDesc->GetUserStrDescriptor(pdev->dev_speed, LOBYTE(req->wValue), &len);
 586:Middlewares/ST/STM32_USB_Device_Library/Core/Src/usbd_ctlreq.c ****           }
 587:Middlewares/ST/STM32_USB_Device_Library/Core/Src/usbd_ctlreq.c ****           else
 588:Middlewares/ST/STM32_USB_Device_Library/Core/Src/usbd_ctlreq.c ****           {
 589:Middlewares/ST/STM32_USB_Device_Library/Core/Src/usbd_ctlreq.c ****             USBD_CtlError(pdev, req);
 590:Middlewares/ST/STM32_USB_Device_Library/Core/Src/usbd_ctlreq.c ****             err++;
 591:Middlewares/ST/STM32_USB_Device_Library/Core/Src/usbd_ctlreq.c ****           }
 592:Middlewares/ST/STM32_USB_Device_Library/Core/Src/usbd_ctlreq.c **** #endif /* USBD_SUPPORT_USER_STRING_DESC  */
 593:Middlewares/ST/STM32_USB_Device_Library/Core/Src/usbd_ctlreq.c **** 
 594:Middlewares/ST/STM32_USB_Device_Library/Core/Src/usbd_ctlreq.c **** #if ((USBD_CLASS_USER_STRING_DESC == 0U) && (USBD_SUPPORT_USER_STRING_DESC == 0U))
 595:Middlewares/ST/STM32_USB_Device_Library/Core/Src/usbd_ctlreq.c ****           USBD_CtlError(pdev, req);
 1376              		.loc 1 595 11
 1377 0258 3968     		ldr	r1, [r7]
 1378 025a 7868     		ldr	r0, [r7, #4]
 1379 025c FFF7FEFF 		bl	USBD_CtlError
 596:Middlewares/ST/STM32_USB_Device_Library/Core/Src/usbd_ctlreq.c ****           err++;
 1380              		.loc 1 596 14
 1381 0260 FB7A     		ldrb	r3, [r7, #11]	@ zero_extendqisi2
 1382 0262 0133     		adds	r3, r3, #1
 1383 0264 FB72     		strb	r3, [r7, #11]
 597:Middlewares/ST/STM32_USB_Device_Library/Core/Src/usbd_ctlreq.c **** #endif /* (USBD_CLASS_USER_STRING_DESC == 0U) && (USBD_SUPPORT_USER_STRING_DESC == 0U) */
 598:Middlewares/ST/STM32_USB_Device_Library/Core/Src/usbd_ctlreq.c ****           break;
 1384              		.loc 1 598 11
 1385 0266 00BF     		nop
 1386              	.L104:
 599:Middlewares/ST/STM32_USB_Device_Library/Core/Src/usbd_ctlreq.c ****       }
 600:Middlewares/ST/STM32_USB_Device_Library/Core/Src/usbd_ctlreq.c ****       break;
 1387              		.loc 1 600 7
 1388 0268 37E0     		b	.L91
 1389              	.L85:
 601:Middlewares/ST/STM32_USB_Device_Library/Core/Src/usbd_ctlreq.c **** 
 602:Middlewares/ST/STM32_USB_Device_Library/Core/Src/usbd_ctlreq.c ****     case USB_DESC_TYPE_DEVICE_QUALIFIER:
ARM GAS  C:\Users\Godwin\AppData\Local\Temp\cc8eSH1G.s 			page 44


 603:Middlewares/ST/STM32_USB_Device_Library/Core/Src/usbd_ctlreq.c ****       if (pdev->dev_speed == USBD_SPEED_HIGH)
 1390              		.loc 1 603 15
 1391 026a 7B68     		ldr	r3, [r7, #4]
 1392 026c 1B7C     		ldrb	r3, [r3, #16]	@ zero_extendqisi2
 1393              		.loc 1 603 10
 1394 026e 002B     		cmp	r3, #0
 1395 0270 09D1     		bne	.L115
 604:Middlewares/ST/STM32_USB_Device_Library/Core/Src/usbd_ctlreq.c ****       {
 605:Middlewares/ST/STM32_USB_Device_Library/Core/Src/usbd_ctlreq.c **** #ifdef USE_USBD_COMPOSITE
 606:Middlewares/ST/STM32_USB_Device_Library/Core/Src/usbd_ctlreq.c ****         if ((uint8_t)(pdev->NumClasses) > 0U)
 607:Middlewares/ST/STM32_USB_Device_Library/Core/Src/usbd_ctlreq.c ****         {
 608:Middlewares/ST/STM32_USB_Device_Library/Core/Src/usbd_ctlreq.c ****           pbuf = (uint8_t *)USBD_CMPSIT.GetDeviceQualifierDescriptor(&len);
 609:Middlewares/ST/STM32_USB_Device_Library/Core/Src/usbd_ctlreq.c ****         }
 610:Middlewares/ST/STM32_USB_Device_Library/Core/Src/usbd_ctlreq.c ****         else
 611:Middlewares/ST/STM32_USB_Device_Library/Core/Src/usbd_ctlreq.c **** #endif /* USE_USBD_COMPOSITE */
 612:Middlewares/ST/STM32_USB_Device_Library/Core/Src/usbd_ctlreq.c ****         {
 613:Middlewares/ST/STM32_USB_Device_Library/Core/Src/usbd_ctlreq.c ****           pbuf = (uint8_t *)pdev->pClass[0]->GetDeviceQualifierDescriptor(&len);
 1396              		.loc 1 613 41
 1397 0272 7B68     		ldr	r3, [r7, #4]
 1398 0274 D3F8B832 		ldr	r3, [r3, #696]
 1399              		.loc 1 613 44
 1400 0278 5B6B     		ldr	r3, [r3, #52]
 1401              		.loc 1 613 18
 1402 027a 07F10802 		add	r2, r7, #8
 1403 027e 1046     		mov	r0, r2
 1404 0280 9847     		blx	r3
 1405              	.LVL14:
 1406 0282 F860     		str	r0, [r7, #12]
 614:Middlewares/ST/STM32_USB_Device_Library/Core/Src/usbd_ctlreq.c ****         }
 615:Middlewares/ST/STM32_USB_Device_Library/Core/Src/usbd_ctlreq.c ****       }
 616:Middlewares/ST/STM32_USB_Device_Library/Core/Src/usbd_ctlreq.c ****       else
 617:Middlewares/ST/STM32_USB_Device_Library/Core/Src/usbd_ctlreq.c ****       {
 618:Middlewares/ST/STM32_USB_Device_Library/Core/Src/usbd_ctlreq.c ****         USBD_CtlError(pdev, req);
 619:Middlewares/ST/STM32_USB_Device_Library/Core/Src/usbd_ctlreq.c ****         err++;
 620:Middlewares/ST/STM32_USB_Device_Library/Core/Src/usbd_ctlreq.c ****       }
 621:Middlewares/ST/STM32_USB_Device_Library/Core/Src/usbd_ctlreq.c ****       break;
 1407              		.loc 1 621 7
 1408 0284 29E0     		b	.L91
 1409              	.L115:
 618:Middlewares/ST/STM32_USB_Device_Library/Core/Src/usbd_ctlreq.c ****         err++;
 1410              		.loc 1 618 9
 1411 0286 3968     		ldr	r1, [r7]
 1412 0288 7868     		ldr	r0, [r7, #4]
 1413 028a FFF7FEFF 		bl	USBD_CtlError
 619:Middlewares/ST/STM32_USB_Device_Library/Core/Src/usbd_ctlreq.c ****       }
 1414              		.loc 1 619 12
 1415 028e FB7A     		ldrb	r3, [r7, #11]	@ zero_extendqisi2
 1416 0290 0133     		adds	r3, r3, #1
 1417 0292 FB72     		strb	r3, [r7, #11]
 1418              		.loc 1 621 7
 1419 0294 21E0     		b	.L91
 1420              	.L84:
 622:Middlewares/ST/STM32_USB_Device_Library/Core/Src/usbd_ctlreq.c **** 
 623:Middlewares/ST/STM32_USB_Device_Library/Core/Src/usbd_ctlreq.c ****     case USB_DESC_TYPE_OTHER_SPEED_CONFIGURATION:
 624:Middlewares/ST/STM32_USB_Device_Library/Core/Src/usbd_ctlreq.c ****       if (pdev->dev_speed == USBD_SPEED_HIGH)
 1421              		.loc 1 624 15
 1422 0296 7B68     		ldr	r3, [r7, #4]
ARM GAS  C:\Users\Godwin\AppData\Local\Temp\cc8eSH1G.s 			page 45


 1423 0298 1B7C     		ldrb	r3, [r3, #16]	@ zero_extendqisi2
 1424              		.loc 1 624 10
 1425 029a 002B     		cmp	r3, #0
 1426 029c 0DD1     		bne	.L117
 625:Middlewares/ST/STM32_USB_Device_Library/Core/Src/usbd_ctlreq.c ****       {
 626:Middlewares/ST/STM32_USB_Device_Library/Core/Src/usbd_ctlreq.c **** #ifdef USE_USBD_COMPOSITE
 627:Middlewares/ST/STM32_USB_Device_Library/Core/Src/usbd_ctlreq.c ****         if ((uint8_t)(pdev->NumClasses) > 0U)
 628:Middlewares/ST/STM32_USB_Device_Library/Core/Src/usbd_ctlreq.c ****         {
 629:Middlewares/ST/STM32_USB_Device_Library/Core/Src/usbd_ctlreq.c ****           pbuf = (uint8_t *)USBD_CMPSIT.GetOtherSpeedConfigDescriptor(&len);
 630:Middlewares/ST/STM32_USB_Device_Library/Core/Src/usbd_ctlreq.c ****         }
 631:Middlewares/ST/STM32_USB_Device_Library/Core/Src/usbd_ctlreq.c ****         else
 632:Middlewares/ST/STM32_USB_Device_Library/Core/Src/usbd_ctlreq.c **** #endif /* USE_USBD_COMPOSITE */
 633:Middlewares/ST/STM32_USB_Device_Library/Core/Src/usbd_ctlreq.c ****         {
 634:Middlewares/ST/STM32_USB_Device_Library/Core/Src/usbd_ctlreq.c ****           pbuf = (uint8_t *)pdev->pClass[0]->GetOtherSpeedConfigDescriptor(&len);
 1427              		.loc 1 634 41
 1428 029e 7B68     		ldr	r3, [r7, #4]
 1429 02a0 D3F8B832 		ldr	r3, [r3, #696]
 1430              		.loc 1 634 44
 1431 02a4 1B6B     		ldr	r3, [r3, #48]
 1432              		.loc 1 634 18
 1433 02a6 07F10802 		add	r2, r7, #8
 1434 02aa 1046     		mov	r0, r2
 1435 02ac 9847     		blx	r3
 1436              	.LVL15:
 1437 02ae F860     		str	r0, [r7, #12]
 635:Middlewares/ST/STM32_USB_Device_Library/Core/Src/usbd_ctlreq.c ****         }
 636:Middlewares/ST/STM32_USB_Device_Library/Core/Src/usbd_ctlreq.c ****         pbuf[1] = USB_DESC_TYPE_OTHER_SPEED_CONFIGURATION;
 1438              		.loc 1 636 13
 1439 02b0 FB68     		ldr	r3, [r7, #12]
 1440 02b2 0133     		adds	r3, r3, #1
 1441              		.loc 1 636 17
 1442 02b4 0722     		movs	r2, #7
 1443 02b6 1A70     		strb	r2, [r3]
 637:Middlewares/ST/STM32_USB_Device_Library/Core/Src/usbd_ctlreq.c ****       }
 638:Middlewares/ST/STM32_USB_Device_Library/Core/Src/usbd_ctlreq.c ****       else
 639:Middlewares/ST/STM32_USB_Device_Library/Core/Src/usbd_ctlreq.c ****       {
 640:Middlewares/ST/STM32_USB_Device_Library/Core/Src/usbd_ctlreq.c ****         USBD_CtlError(pdev, req);
 641:Middlewares/ST/STM32_USB_Device_Library/Core/Src/usbd_ctlreq.c ****         err++;
 642:Middlewares/ST/STM32_USB_Device_Library/Core/Src/usbd_ctlreq.c ****       }
 643:Middlewares/ST/STM32_USB_Device_Library/Core/Src/usbd_ctlreq.c ****       break;
 1444              		.loc 1 643 7
 1445 02b8 0FE0     		b	.L91
 1446              	.L117:
 640:Middlewares/ST/STM32_USB_Device_Library/Core/Src/usbd_ctlreq.c ****         err++;
 1447              		.loc 1 640 9
 1448 02ba 3968     		ldr	r1, [r7]
 1449 02bc 7868     		ldr	r0, [r7, #4]
 1450 02be FFF7FEFF 		bl	USBD_CtlError
 641:Middlewares/ST/STM32_USB_Device_Library/Core/Src/usbd_ctlreq.c ****       }
 1451              		.loc 1 641 12
 1452 02c2 FB7A     		ldrb	r3, [r7, #11]	@ zero_extendqisi2
 1453 02c4 0133     		adds	r3, r3, #1
 1454 02c6 FB72     		strb	r3, [r7, #11]
 1455              		.loc 1 643 7
 1456 02c8 07E0     		b	.L91
 1457              	.L81:
 644:Middlewares/ST/STM32_USB_Device_Library/Core/Src/usbd_ctlreq.c **** 
ARM GAS  C:\Users\Godwin\AppData\Local\Temp\cc8eSH1G.s 			page 46


 645:Middlewares/ST/STM32_USB_Device_Library/Core/Src/usbd_ctlreq.c ****     default:
 646:Middlewares/ST/STM32_USB_Device_Library/Core/Src/usbd_ctlreq.c ****       USBD_CtlError(pdev, req);
 1458              		.loc 1 646 7
 1459 02ca 3968     		ldr	r1, [r7]
 1460 02cc 7868     		ldr	r0, [r7, #4]
 1461 02ce FFF7FEFF 		bl	USBD_CtlError
 647:Middlewares/ST/STM32_USB_Device_Library/Core/Src/usbd_ctlreq.c ****       err++;
 1462              		.loc 1 647 10
 1463 02d2 FB7A     		ldrb	r3, [r7, #11]	@ zero_extendqisi2
 1464 02d4 0133     		adds	r3, r3, #1
 1465 02d6 FB72     		strb	r3, [r7, #11]
 648:Middlewares/ST/STM32_USB_Device_Library/Core/Src/usbd_ctlreq.c ****       break;
 1466              		.loc 1 648 7
 1467 02d8 00BF     		nop
 1468              	.L91:
 649:Middlewares/ST/STM32_USB_Device_Library/Core/Src/usbd_ctlreq.c ****   }
 650:Middlewares/ST/STM32_USB_Device_Library/Core/Src/usbd_ctlreq.c **** 
 651:Middlewares/ST/STM32_USB_Device_Library/Core/Src/usbd_ctlreq.c ****   if (err != 0U)
 1469              		.loc 1 651 6
 1470 02da FB7A     		ldrb	r3, [r7, #11]	@ zero_extendqisi2
 1471 02dc 002B     		cmp	r3, #0
 1472 02de 1ED1     		bne	.L124
 652:Middlewares/ST/STM32_USB_Device_Library/Core/Src/usbd_ctlreq.c ****   {
 653:Middlewares/ST/STM32_USB_Device_Library/Core/Src/usbd_ctlreq.c ****     return;
 654:Middlewares/ST/STM32_USB_Device_Library/Core/Src/usbd_ctlreq.c ****   }
 655:Middlewares/ST/STM32_USB_Device_Library/Core/Src/usbd_ctlreq.c **** 
 656:Middlewares/ST/STM32_USB_Device_Library/Core/Src/usbd_ctlreq.c ****   if (req->wLength != 0U)
 1473              		.loc 1 656 10
 1474 02e0 3B68     		ldr	r3, [r7]
 1475 02e2 DB88     		ldrh	r3, [r3, #6]
 1476              		.loc 1 656 6
 1477 02e4 002B     		cmp	r3, #0
 1478 02e6 16D0     		beq	.L121
 657:Middlewares/ST/STM32_USB_Device_Library/Core/Src/usbd_ctlreq.c ****   {
 658:Middlewares/ST/STM32_USB_Device_Library/Core/Src/usbd_ctlreq.c ****     if (len != 0U)
 1479              		.loc 1 658 13
 1480 02e8 3B89     		ldrh	r3, [r7, #8]
 1481              		.loc 1 658 8
 1482 02ea 002B     		cmp	r3, #0
 1483 02ec 0ED0     		beq	.L122
 659:Middlewares/ST/STM32_USB_Device_Library/Core/Src/usbd_ctlreq.c ****     {
 660:Middlewares/ST/STM32_USB_Device_Library/Core/Src/usbd_ctlreq.c ****       len = MIN(len, req->wLength);
 1484              		.loc 1 660 13
 1485 02ee 3B68     		ldr	r3, [r7]
 1486 02f0 DA88     		ldrh	r2, [r3, #6]
 1487 02f2 3B89     		ldrh	r3, [r7, #8]
 1488 02f4 9342     		cmp	r3, r2
 1489 02f6 28BF     		it	cs
 1490 02f8 1346     		movcs	r3, r2
 1491 02fa 9BB2     		uxth	r3, r3
 1492              		.loc 1 660 11
 1493 02fc 3B81     		strh	r3, [r7, #8]	@ movhi
 661:Middlewares/ST/STM32_USB_Device_Library/Core/Src/usbd_ctlreq.c ****       (void)USBD_CtlSendData(pdev, pbuf, len);
 1494              		.loc 1 661 13
 1495 02fe 3B89     		ldrh	r3, [r7, #8]
 1496 0300 1A46     		mov	r2, r3
 1497 0302 F968     		ldr	r1, [r7, #12]
ARM GAS  C:\Users\Godwin\AppData\Local\Temp\cc8eSH1G.s 			page 47


 1498 0304 7868     		ldr	r0, [r7, #4]
 1499 0306 FFF7FEFF 		bl	USBD_CtlSendData
 1500 030a 09E0     		b	.L80
 1501              	.L122:
 662:Middlewares/ST/STM32_USB_Device_Library/Core/Src/usbd_ctlreq.c ****     }
 663:Middlewares/ST/STM32_USB_Device_Library/Core/Src/usbd_ctlreq.c ****     else
 664:Middlewares/ST/STM32_USB_Device_Library/Core/Src/usbd_ctlreq.c ****     {
 665:Middlewares/ST/STM32_USB_Device_Library/Core/Src/usbd_ctlreq.c ****       USBD_CtlError(pdev, req);
 1502              		.loc 1 665 7
 1503 030c 3968     		ldr	r1, [r7]
 1504 030e 7868     		ldr	r0, [r7, #4]
 1505 0310 FFF7FEFF 		bl	USBD_CtlError
 1506 0314 04E0     		b	.L80
 1507              	.L121:
 666:Middlewares/ST/STM32_USB_Device_Library/Core/Src/usbd_ctlreq.c ****     }
 667:Middlewares/ST/STM32_USB_Device_Library/Core/Src/usbd_ctlreq.c ****   }
 668:Middlewares/ST/STM32_USB_Device_Library/Core/Src/usbd_ctlreq.c ****   else
 669:Middlewares/ST/STM32_USB_Device_Library/Core/Src/usbd_ctlreq.c ****   {
 670:Middlewares/ST/STM32_USB_Device_Library/Core/Src/usbd_ctlreq.c ****     (void)USBD_CtlSendStatus(pdev);
 1508              		.loc 1 670 11
 1509 0316 7868     		ldr	r0, [r7, #4]
 1510 0318 FFF7FEFF 		bl	USBD_CtlSendStatus
 1511 031c 00E0     		b	.L80
 1512              	.L124:
 653:Middlewares/ST/STM32_USB_Device_Library/Core/Src/usbd_ctlreq.c ****   }
 1513              		.loc 1 653 5 discriminator 1
 1514 031e 00BF     		nop
 1515              	.L80:
 671:Middlewares/ST/STM32_USB_Device_Library/Core/Src/usbd_ctlreq.c ****   }
 672:Middlewares/ST/STM32_USB_Device_Library/Core/Src/usbd_ctlreq.c **** }
 1516              		.loc 1 672 1
 1517 0320 1037     		adds	r7, r7, #16
 1518              	.LCFI24:
 1519              		.cfi_def_cfa_offset 8
 1520 0322 BD46     		mov	sp, r7
 1521              	.LCFI25:
 1522              		.cfi_def_cfa_register 13
 1523              		@ sp needed
 1524 0324 80BD     		pop	{r7, pc}
 1525              		.cfi_endproc
 1526              	.LFE151:
 1528 0326 00BF     		.section	.text.USBD_SetAddress,"ax",%progbits
 1529              		.align	1
 1530              		.syntax unified
 1531              		.thumb
 1532              		.thumb_func
 1534              	USBD_SetAddress:
 1535              	.LFB152:
 673:Middlewares/ST/STM32_USB_Device_Library/Core/Src/usbd_ctlreq.c **** 
 674:Middlewares/ST/STM32_USB_Device_Library/Core/Src/usbd_ctlreq.c **** 
 675:Middlewares/ST/STM32_USB_Device_Library/Core/Src/usbd_ctlreq.c **** /**
 676:Middlewares/ST/STM32_USB_Device_Library/Core/Src/usbd_ctlreq.c ****   * @brief  USBD_SetAddress
 677:Middlewares/ST/STM32_USB_Device_Library/Core/Src/usbd_ctlreq.c ****   *         Set device address
 678:Middlewares/ST/STM32_USB_Device_Library/Core/Src/usbd_ctlreq.c ****   * @param  pdev: device instance
 679:Middlewares/ST/STM32_USB_Device_Library/Core/Src/usbd_ctlreq.c ****   * @param  req: usb request
 680:Middlewares/ST/STM32_USB_Device_Library/Core/Src/usbd_ctlreq.c ****   * @retval None
 681:Middlewares/ST/STM32_USB_Device_Library/Core/Src/usbd_ctlreq.c ****   */
ARM GAS  C:\Users\Godwin\AppData\Local\Temp\cc8eSH1G.s 			page 48


 682:Middlewares/ST/STM32_USB_Device_Library/Core/Src/usbd_ctlreq.c **** static void USBD_SetAddress(USBD_HandleTypeDef *pdev, USBD_SetupReqTypedef *req)
 683:Middlewares/ST/STM32_USB_Device_Library/Core/Src/usbd_ctlreq.c **** {
 1536              		.loc 1 683 1
 1537              		.cfi_startproc
 1538              		@ args = 0, pretend = 0, frame = 16
 1539              		@ frame_needed = 1, uses_anonymous_args = 0
 1540 0000 80B5     		push	{r7, lr}
 1541              	.LCFI26:
 1542              		.cfi_def_cfa_offset 8
 1543              		.cfi_offset 7, -8
 1544              		.cfi_offset 14, -4
 1545 0002 84B0     		sub	sp, sp, #16
 1546              	.LCFI27:
 1547              		.cfi_def_cfa_offset 24
 1548 0004 00AF     		add	r7, sp, #0
 1549              	.LCFI28:
 1550              		.cfi_def_cfa_register 7
 1551 0006 7860     		str	r0, [r7, #4]
 1552 0008 3960     		str	r1, [r7]
 684:Middlewares/ST/STM32_USB_Device_Library/Core/Src/usbd_ctlreq.c ****   uint8_t  dev_addr;
 685:Middlewares/ST/STM32_USB_Device_Library/Core/Src/usbd_ctlreq.c **** 
 686:Middlewares/ST/STM32_USB_Device_Library/Core/Src/usbd_ctlreq.c ****   if ((req->wIndex == 0U) && (req->wLength == 0U) && (req->wValue < 128U))
 1553              		.loc 1 686 11
 1554 000a 3B68     		ldr	r3, [r7]
 1555 000c 9B88     		ldrh	r3, [r3, #4]
 1556              		.loc 1 686 6
 1557 000e 002B     		cmp	r3, #0
 1558 0010 31D1     		bne	.L126
 1559              		.loc 1 686 34 discriminator 1
 1560 0012 3B68     		ldr	r3, [r7]
 1561 0014 DB88     		ldrh	r3, [r3, #6]
 1562              		.loc 1 686 27 discriminator 1
 1563 0016 002B     		cmp	r3, #0
 1564 0018 2DD1     		bne	.L126
 1565              		.loc 1 686 58 discriminator 2
 1566 001a 3B68     		ldr	r3, [r7]
 1567 001c 5B88     		ldrh	r3, [r3, #2]
 1568              		.loc 1 686 51 discriminator 2
 1569 001e 7F2B     		cmp	r3, #127
 1570 0020 29D8     		bhi	.L126
 687:Middlewares/ST/STM32_USB_Device_Library/Core/Src/usbd_ctlreq.c ****   {
 688:Middlewares/ST/STM32_USB_Device_Library/Core/Src/usbd_ctlreq.c ****     dev_addr = (uint8_t)(req->wValue) & 0x7FU;
 1571              		.loc 1 688 29
 1572 0022 3B68     		ldr	r3, [r7]
 1573 0024 5B88     		ldrh	r3, [r3, #2]
 1574              		.loc 1 688 16
 1575 0026 DBB2     		uxtb	r3, r3
 1576              		.loc 1 688 14
 1577 0028 03F07F03 		and	r3, r3, #127
 1578 002c FB73     		strb	r3, [r7, #15]
 689:Middlewares/ST/STM32_USB_Device_Library/Core/Src/usbd_ctlreq.c **** 
 690:Middlewares/ST/STM32_USB_Device_Library/Core/Src/usbd_ctlreq.c ****     if (pdev->dev_state == USBD_STATE_CONFIGURED)
 1579              		.loc 1 690 13
 1580 002e 7B68     		ldr	r3, [r7, #4]
 1581 0030 93F89C32 		ldrb	r3, [r3, #668]
 1582 0034 DBB2     		uxtb	r3, r3
 1583              		.loc 1 690 8
ARM GAS  C:\Users\Godwin\AppData\Local\Temp\cc8eSH1G.s 			page 49


 1584 0036 032B     		cmp	r3, #3
 1585 0038 04D1     		bne	.L127
 691:Middlewares/ST/STM32_USB_Device_Library/Core/Src/usbd_ctlreq.c ****     {
 692:Middlewares/ST/STM32_USB_Device_Library/Core/Src/usbd_ctlreq.c ****       USBD_CtlError(pdev, req);
 1586              		.loc 1 692 7
 1587 003a 3968     		ldr	r1, [r7]
 1588 003c 7868     		ldr	r0, [r7, #4]
 1589 003e FFF7FEFF 		bl	USBD_CtlError
 690:Middlewares/ST/STM32_USB_Device_Library/Core/Src/usbd_ctlreq.c ****     {
 1590              		.loc 1 690 8
 1591 0042 1DE0     		b	.L130
 1592              	.L127:
 693:Middlewares/ST/STM32_USB_Device_Library/Core/Src/usbd_ctlreq.c ****     }
 694:Middlewares/ST/STM32_USB_Device_Library/Core/Src/usbd_ctlreq.c ****     else
 695:Middlewares/ST/STM32_USB_Device_Library/Core/Src/usbd_ctlreq.c ****     {
 696:Middlewares/ST/STM32_USB_Device_Library/Core/Src/usbd_ctlreq.c ****       pdev->dev_address = dev_addr;
 1593              		.loc 1 696 25
 1594 0044 7B68     		ldr	r3, [r7, #4]
 1595 0046 FA7B     		ldrb	r2, [r7, #15]
 1596 0048 83F89E22 		strb	r2, [r3, #670]
 697:Middlewares/ST/STM32_USB_Device_Library/Core/Src/usbd_ctlreq.c ****       (void)USBD_LL_SetUSBAddress(pdev, dev_addr);
 1597              		.loc 1 697 13
 1598 004c FB7B     		ldrb	r3, [r7, #15]	@ zero_extendqisi2
 1599 004e 1946     		mov	r1, r3
 1600 0050 7868     		ldr	r0, [r7, #4]
 1601 0052 FFF7FEFF 		bl	USBD_LL_SetUSBAddress
 698:Middlewares/ST/STM32_USB_Device_Library/Core/Src/usbd_ctlreq.c ****       (void)USBD_CtlSendStatus(pdev);
 1602              		.loc 1 698 13
 1603 0056 7868     		ldr	r0, [r7, #4]
 1604 0058 FFF7FEFF 		bl	USBD_CtlSendStatus
 699:Middlewares/ST/STM32_USB_Device_Library/Core/Src/usbd_ctlreq.c **** 
 700:Middlewares/ST/STM32_USB_Device_Library/Core/Src/usbd_ctlreq.c ****       if (dev_addr != 0U)
 1605              		.loc 1 700 10
 1606 005c FB7B     		ldrb	r3, [r7, #15]	@ zero_extendqisi2
 1607 005e 002B     		cmp	r3, #0
 1608 0060 04D0     		beq	.L129
 701:Middlewares/ST/STM32_USB_Device_Library/Core/Src/usbd_ctlreq.c ****       {
 702:Middlewares/ST/STM32_USB_Device_Library/Core/Src/usbd_ctlreq.c ****         pdev->dev_state = USBD_STATE_ADDRESSED;
 1609              		.loc 1 702 25
 1610 0062 7B68     		ldr	r3, [r7, #4]
 1611 0064 0222     		movs	r2, #2
 1612 0066 83F89C22 		strb	r2, [r3, #668]
 690:Middlewares/ST/STM32_USB_Device_Library/Core/Src/usbd_ctlreq.c ****     {
 1613              		.loc 1 690 8
 1614 006a 09E0     		b	.L130
 1615              	.L129:
 703:Middlewares/ST/STM32_USB_Device_Library/Core/Src/usbd_ctlreq.c ****       }
 704:Middlewares/ST/STM32_USB_Device_Library/Core/Src/usbd_ctlreq.c ****       else
 705:Middlewares/ST/STM32_USB_Device_Library/Core/Src/usbd_ctlreq.c ****       {
 706:Middlewares/ST/STM32_USB_Device_Library/Core/Src/usbd_ctlreq.c ****         pdev->dev_state = USBD_STATE_DEFAULT;
 1616              		.loc 1 706 25
 1617 006c 7B68     		ldr	r3, [r7, #4]
 1618 006e 0122     		movs	r2, #1
 1619 0070 83F89C22 		strb	r2, [r3, #668]
 690:Middlewares/ST/STM32_USB_Device_Library/Core/Src/usbd_ctlreq.c ****     {
 1620              		.loc 1 690 8
 1621 0074 04E0     		b	.L130
ARM GAS  C:\Users\Godwin\AppData\Local\Temp\cc8eSH1G.s 			page 50


 1622              	.L126:
 707:Middlewares/ST/STM32_USB_Device_Library/Core/Src/usbd_ctlreq.c ****       }
 708:Middlewares/ST/STM32_USB_Device_Library/Core/Src/usbd_ctlreq.c ****     }
 709:Middlewares/ST/STM32_USB_Device_Library/Core/Src/usbd_ctlreq.c ****   }
 710:Middlewares/ST/STM32_USB_Device_Library/Core/Src/usbd_ctlreq.c ****   else
 711:Middlewares/ST/STM32_USB_Device_Library/Core/Src/usbd_ctlreq.c ****   {
 712:Middlewares/ST/STM32_USB_Device_Library/Core/Src/usbd_ctlreq.c ****     USBD_CtlError(pdev, req);
 1623              		.loc 1 712 5
 1624 0076 3968     		ldr	r1, [r7]
 1625 0078 7868     		ldr	r0, [r7, #4]
 1626 007a FFF7FEFF 		bl	USBD_CtlError
 713:Middlewares/ST/STM32_USB_Device_Library/Core/Src/usbd_ctlreq.c ****   }
 714:Middlewares/ST/STM32_USB_Device_Library/Core/Src/usbd_ctlreq.c **** }
 1627              		.loc 1 714 1
 1628 007e 00BF     		nop
 1629              	.L130:
 1630 0080 00BF     		nop
 1631 0082 1037     		adds	r7, r7, #16
 1632              	.LCFI29:
 1633              		.cfi_def_cfa_offset 8
 1634 0084 BD46     		mov	sp, r7
 1635              	.LCFI30:
 1636              		.cfi_def_cfa_register 13
 1637              		@ sp needed
 1638 0086 80BD     		pop	{r7, pc}
 1639              		.cfi_endproc
 1640              	.LFE152:
 1642              		.section	.text.USBD_SetConfig,"ax",%progbits
 1643              		.align	1
 1644              		.syntax unified
 1645              		.thumb
 1646              		.thumb_func
 1648              	USBD_SetConfig:
 1649              	.LFB153:
 715:Middlewares/ST/STM32_USB_Device_Library/Core/Src/usbd_ctlreq.c **** 
 716:Middlewares/ST/STM32_USB_Device_Library/Core/Src/usbd_ctlreq.c **** /**
 717:Middlewares/ST/STM32_USB_Device_Library/Core/Src/usbd_ctlreq.c ****   * @brief  USBD_SetConfig
 718:Middlewares/ST/STM32_USB_Device_Library/Core/Src/usbd_ctlreq.c ****   *         Handle Set device configuration request
 719:Middlewares/ST/STM32_USB_Device_Library/Core/Src/usbd_ctlreq.c ****   * @param  pdev: device instance
 720:Middlewares/ST/STM32_USB_Device_Library/Core/Src/usbd_ctlreq.c ****   * @param  req: usb request
 721:Middlewares/ST/STM32_USB_Device_Library/Core/Src/usbd_ctlreq.c ****   * @retval status
 722:Middlewares/ST/STM32_USB_Device_Library/Core/Src/usbd_ctlreq.c ****   */
 723:Middlewares/ST/STM32_USB_Device_Library/Core/Src/usbd_ctlreq.c **** static USBD_StatusTypeDef USBD_SetConfig(USBD_HandleTypeDef *pdev, USBD_SetupReqTypedef *req)
 724:Middlewares/ST/STM32_USB_Device_Library/Core/Src/usbd_ctlreq.c **** {
 1650              		.loc 1 724 1
 1651              		.cfi_startproc
 1652              		@ args = 0, pretend = 0, frame = 16
 1653              		@ frame_needed = 1, uses_anonymous_args = 0
 1654 0000 80B5     		push	{r7, lr}
 1655              	.LCFI31:
 1656              		.cfi_def_cfa_offset 8
 1657              		.cfi_offset 7, -8
 1658              		.cfi_offset 14, -4
 1659 0002 84B0     		sub	sp, sp, #16
 1660              	.LCFI32:
 1661              		.cfi_def_cfa_offset 24
 1662 0004 00AF     		add	r7, sp, #0
ARM GAS  C:\Users\Godwin\AppData\Local\Temp\cc8eSH1G.s 			page 51


 1663              	.LCFI33:
 1664              		.cfi_def_cfa_register 7
 1665 0006 7860     		str	r0, [r7, #4]
 1666 0008 3960     		str	r1, [r7]
 725:Middlewares/ST/STM32_USB_Device_Library/Core/Src/usbd_ctlreq.c ****   USBD_StatusTypeDef ret = USBD_OK;
 1667              		.loc 1 725 22
 1668 000a 0023     		movs	r3, #0
 1669 000c FB73     		strb	r3, [r7, #15]
 726:Middlewares/ST/STM32_USB_Device_Library/Core/Src/usbd_ctlreq.c ****   static uint8_t cfgidx;
 727:Middlewares/ST/STM32_USB_Device_Library/Core/Src/usbd_ctlreq.c **** 
 728:Middlewares/ST/STM32_USB_Device_Library/Core/Src/usbd_ctlreq.c ****   cfgidx = (uint8_t)(req->wValue);
 1670              		.loc 1 728 25
 1671 000e 3B68     		ldr	r3, [r7]
 1672 0010 5B88     		ldrh	r3, [r3, #2]
 1673              		.loc 1 728 12
 1674 0012 DAB2     		uxtb	r2, r3
 1675              		.loc 1 728 10
 1676 0014 4E4B     		ldr	r3, .L146
 1677 0016 1A70     		strb	r2, [r3]
 729:Middlewares/ST/STM32_USB_Device_Library/Core/Src/usbd_ctlreq.c **** 
 730:Middlewares/ST/STM32_USB_Device_Library/Core/Src/usbd_ctlreq.c ****   if (cfgidx > USBD_MAX_NUM_CONFIGURATION)
 1678              		.loc 1 730 14
 1679 0018 4D4B     		ldr	r3, .L146
 1680 001a 1B78     		ldrb	r3, [r3]	@ zero_extendqisi2
 1681              		.loc 1 730 6
 1682 001c 012B     		cmp	r3, #1
 1683 001e 05D9     		bls	.L132
 731:Middlewares/ST/STM32_USB_Device_Library/Core/Src/usbd_ctlreq.c ****   {
 732:Middlewares/ST/STM32_USB_Device_Library/Core/Src/usbd_ctlreq.c ****     USBD_CtlError(pdev, req);
 1684              		.loc 1 732 5
 1685 0020 3968     		ldr	r1, [r7]
 1686 0022 7868     		ldr	r0, [r7, #4]
 1687 0024 FFF7FEFF 		bl	USBD_CtlError
 733:Middlewares/ST/STM32_USB_Device_Library/Core/Src/usbd_ctlreq.c ****     return USBD_FAIL;
 1688              		.loc 1 733 12
 1689 0028 0323     		movs	r3, #3
 1690 002a 8CE0     		b	.L133
 1691              	.L132:
 734:Middlewares/ST/STM32_USB_Device_Library/Core/Src/usbd_ctlreq.c ****   }
 735:Middlewares/ST/STM32_USB_Device_Library/Core/Src/usbd_ctlreq.c **** 
 736:Middlewares/ST/STM32_USB_Device_Library/Core/Src/usbd_ctlreq.c ****   switch (pdev->dev_state)
 1692              		.loc 1 736 15
 1693 002c 7B68     		ldr	r3, [r7, #4]
 1694 002e 93F89C32 		ldrb	r3, [r3, #668]
 1695 0032 DBB2     		uxtb	r3, r3
 1696              		.loc 1 736 3
 1697 0034 022B     		cmp	r3, #2
 1698 0036 02D0     		beq	.L134
 1699 0038 032B     		cmp	r3, #3
 1700 003a 29D0     		beq	.L135
 1701 003c 75E0     		b	.L145
 1702              	.L134:
 737:Middlewares/ST/STM32_USB_Device_Library/Core/Src/usbd_ctlreq.c ****   {
 738:Middlewares/ST/STM32_USB_Device_Library/Core/Src/usbd_ctlreq.c ****     case USBD_STATE_ADDRESSED:
 739:Middlewares/ST/STM32_USB_Device_Library/Core/Src/usbd_ctlreq.c ****       if (cfgidx != 0U)
 1703              		.loc 1 739 18
 1704 003e 444B     		ldr	r3, .L146
ARM GAS  C:\Users\Godwin\AppData\Local\Temp\cc8eSH1G.s 			page 52


 1705 0040 1B78     		ldrb	r3, [r3]	@ zero_extendqisi2
 1706              		.loc 1 739 10
 1707 0042 002B     		cmp	r3, #0
 1708 0044 20D0     		beq	.L137
 740:Middlewares/ST/STM32_USB_Device_Library/Core/Src/usbd_ctlreq.c ****       {
 741:Middlewares/ST/STM32_USB_Device_Library/Core/Src/usbd_ctlreq.c ****         pdev->dev_config = cfgidx;
 1709              		.loc 1 741 26
 1710 0046 424B     		ldr	r3, .L146
 1711 0048 1B78     		ldrb	r3, [r3]	@ zero_extendqisi2
 1712 004a 1A46     		mov	r2, r3
 1713 004c 7B68     		ldr	r3, [r7, #4]
 1714 004e 5A60     		str	r2, [r3, #4]
 742:Middlewares/ST/STM32_USB_Device_Library/Core/Src/usbd_ctlreq.c **** 
 743:Middlewares/ST/STM32_USB_Device_Library/Core/Src/usbd_ctlreq.c ****         ret = USBD_SetClassConfig(pdev, cfgidx);
 1715              		.loc 1 743 15
 1716 0050 3F4B     		ldr	r3, .L146
 1717 0052 1B78     		ldrb	r3, [r3]	@ zero_extendqisi2
 1718 0054 1946     		mov	r1, r3
 1719 0056 7868     		ldr	r0, [r7, #4]
 1720 0058 FFF7FEFF 		bl	USBD_SetClassConfig
 1721 005c 0346     		mov	r3, r0
 1722 005e FB73     		strb	r3, [r7, #15]
 744:Middlewares/ST/STM32_USB_Device_Library/Core/Src/usbd_ctlreq.c **** 
 745:Middlewares/ST/STM32_USB_Device_Library/Core/Src/usbd_ctlreq.c ****         if (ret != USBD_OK)
 1723              		.loc 1 745 12
 1724 0060 FB7B     		ldrb	r3, [r7, #15]	@ zero_extendqisi2
 1725 0062 002B     		cmp	r3, #0
 1726 0064 08D0     		beq	.L138
 746:Middlewares/ST/STM32_USB_Device_Library/Core/Src/usbd_ctlreq.c ****         {
 747:Middlewares/ST/STM32_USB_Device_Library/Core/Src/usbd_ctlreq.c ****           USBD_CtlError(pdev, req);
 1727              		.loc 1 747 11
 1728 0066 3968     		ldr	r1, [r7]
 1729 0068 7868     		ldr	r0, [r7, #4]
 1730 006a FFF7FEFF 		bl	USBD_CtlError
 748:Middlewares/ST/STM32_USB_Device_Library/Core/Src/usbd_ctlreq.c ****           pdev->dev_state = USBD_STATE_ADDRESSED;
 1731              		.loc 1 748 27
 1732 006e 7B68     		ldr	r3, [r7, #4]
 1733 0070 0222     		movs	r2, #2
 1734 0072 83F89C22 		strb	r2, [r3, #668]
 749:Middlewares/ST/STM32_USB_Device_Library/Core/Src/usbd_ctlreq.c ****         }
 750:Middlewares/ST/STM32_USB_Device_Library/Core/Src/usbd_ctlreq.c ****         else
 751:Middlewares/ST/STM32_USB_Device_Library/Core/Src/usbd_ctlreq.c ****         {
 752:Middlewares/ST/STM32_USB_Device_Library/Core/Src/usbd_ctlreq.c ****           (void)USBD_CtlSendStatus(pdev);
 753:Middlewares/ST/STM32_USB_Device_Library/Core/Src/usbd_ctlreq.c ****           pdev->dev_state = USBD_STATE_CONFIGURED;
 754:Middlewares/ST/STM32_USB_Device_Library/Core/Src/usbd_ctlreq.c **** 
 755:Middlewares/ST/STM32_USB_Device_Library/Core/Src/usbd_ctlreq.c **** #if (USBD_USER_REGISTER_CALLBACK == 1U)
 756:Middlewares/ST/STM32_USB_Device_Library/Core/Src/usbd_ctlreq.c ****           if (pdev->DevStateCallback != NULL)
 757:Middlewares/ST/STM32_USB_Device_Library/Core/Src/usbd_ctlreq.c ****           {
 758:Middlewares/ST/STM32_USB_Device_Library/Core/Src/usbd_ctlreq.c ****             pdev->DevStateCallback(USBD_STATE_CONFIGURED, cfgidx);
 759:Middlewares/ST/STM32_USB_Device_Library/Core/Src/usbd_ctlreq.c ****           }
 760:Middlewares/ST/STM32_USB_Device_Library/Core/Src/usbd_ctlreq.c **** #endif /* USBD_USER_REGISTER_CALLBACK */
 761:Middlewares/ST/STM32_USB_Device_Library/Core/Src/usbd_ctlreq.c ****         }
 762:Middlewares/ST/STM32_USB_Device_Library/Core/Src/usbd_ctlreq.c ****       }
 763:Middlewares/ST/STM32_USB_Device_Library/Core/Src/usbd_ctlreq.c ****       else
 764:Middlewares/ST/STM32_USB_Device_Library/Core/Src/usbd_ctlreq.c ****       {
 765:Middlewares/ST/STM32_USB_Device_Library/Core/Src/usbd_ctlreq.c ****         (void)USBD_CtlSendStatus(pdev);
 766:Middlewares/ST/STM32_USB_Device_Library/Core/Src/usbd_ctlreq.c ****       }
ARM GAS  C:\Users\Godwin\AppData\Local\Temp\cc8eSH1G.s 			page 53


 767:Middlewares/ST/STM32_USB_Device_Library/Core/Src/usbd_ctlreq.c ****       break;
 1735              		.loc 1 767 7
 1736 0076 65E0     		b	.L140
 1737              	.L138:
 752:Middlewares/ST/STM32_USB_Device_Library/Core/Src/usbd_ctlreq.c ****           pdev->dev_state = USBD_STATE_CONFIGURED;
 1738              		.loc 1 752 17
 1739 0078 7868     		ldr	r0, [r7, #4]
 1740 007a FFF7FEFF 		bl	USBD_CtlSendStatus
 753:Middlewares/ST/STM32_USB_Device_Library/Core/Src/usbd_ctlreq.c **** 
 1741              		.loc 1 753 27
 1742 007e 7B68     		ldr	r3, [r7, #4]
 1743 0080 0322     		movs	r2, #3
 1744 0082 83F89C22 		strb	r2, [r3, #668]
 1745              		.loc 1 767 7
 1746 0086 5DE0     		b	.L140
 1747              	.L137:
 765:Middlewares/ST/STM32_USB_Device_Library/Core/Src/usbd_ctlreq.c ****       }
 1748              		.loc 1 765 15
 1749 0088 7868     		ldr	r0, [r7, #4]
 1750 008a FFF7FEFF 		bl	USBD_CtlSendStatus
 1751              		.loc 1 767 7
 1752 008e 59E0     		b	.L140
 1753              	.L135:
 768:Middlewares/ST/STM32_USB_Device_Library/Core/Src/usbd_ctlreq.c **** 
 769:Middlewares/ST/STM32_USB_Device_Library/Core/Src/usbd_ctlreq.c ****     case USBD_STATE_CONFIGURED:
 770:Middlewares/ST/STM32_USB_Device_Library/Core/Src/usbd_ctlreq.c ****       if (cfgidx == 0U)
 1754              		.loc 1 770 18
 1755 0090 2F4B     		ldr	r3, .L146
 1756 0092 1B78     		ldrb	r3, [r3]	@ zero_extendqisi2
 1757              		.loc 1 770 10
 1758 0094 002B     		cmp	r3, #0
 1759 0096 12D1     		bne	.L141
 771:Middlewares/ST/STM32_USB_Device_Library/Core/Src/usbd_ctlreq.c ****       {
 772:Middlewares/ST/STM32_USB_Device_Library/Core/Src/usbd_ctlreq.c ****         pdev->dev_state = USBD_STATE_ADDRESSED;
 1760              		.loc 1 772 25
 1761 0098 7B68     		ldr	r3, [r7, #4]
 1762 009a 0222     		movs	r2, #2
 1763 009c 83F89C22 		strb	r2, [r3, #668]
 773:Middlewares/ST/STM32_USB_Device_Library/Core/Src/usbd_ctlreq.c ****         pdev->dev_config = cfgidx;
 1764              		.loc 1 773 26
 1765 00a0 2B4B     		ldr	r3, .L146
 1766 00a2 1B78     		ldrb	r3, [r3]	@ zero_extendqisi2
 1767 00a4 1A46     		mov	r2, r3
 1768 00a6 7B68     		ldr	r3, [r7, #4]
 1769 00a8 5A60     		str	r2, [r3, #4]
 774:Middlewares/ST/STM32_USB_Device_Library/Core/Src/usbd_ctlreq.c ****         (void)USBD_ClrClassConfig(pdev, cfgidx);
 1770              		.loc 1 774 9
 1771 00aa 294B     		ldr	r3, .L146
 1772 00ac 1B78     		ldrb	r3, [r3]	@ zero_extendqisi2
 1773              		.loc 1 774 15
 1774 00ae 1946     		mov	r1, r3
 1775 00b0 7868     		ldr	r0, [r7, #4]
 1776 00b2 FFF7FEFF 		bl	USBD_ClrClassConfig
 775:Middlewares/ST/STM32_USB_Device_Library/Core/Src/usbd_ctlreq.c ****         (void)USBD_CtlSendStatus(pdev);
 1777              		.loc 1 775 15
 1778 00b6 7868     		ldr	r0, [r7, #4]
 1779 00b8 FFF7FEFF 		bl	USBD_CtlSendStatus
ARM GAS  C:\Users\Godwin\AppData\Local\Temp\cc8eSH1G.s 			page 54


 776:Middlewares/ST/STM32_USB_Device_Library/Core/Src/usbd_ctlreq.c ****       }
 777:Middlewares/ST/STM32_USB_Device_Library/Core/Src/usbd_ctlreq.c ****       else if (cfgidx != pdev->dev_config)
 778:Middlewares/ST/STM32_USB_Device_Library/Core/Src/usbd_ctlreq.c ****       {
 779:Middlewares/ST/STM32_USB_Device_Library/Core/Src/usbd_ctlreq.c ****         /* Clear old configuration */
 780:Middlewares/ST/STM32_USB_Device_Library/Core/Src/usbd_ctlreq.c ****         (void)USBD_ClrClassConfig(pdev, (uint8_t)pdev->dev_config);
 781:Middlewares/ST/STM32_USB_Device_Library/Core/Src/usbd_ctlreq.c **** 
 782:Middlewares/ST/STM32_USB_Device_Library/Core/Src/usbd_ctlreq.c ****         /* set new configuration */
 783:Middlewares/ST/STM32_USB_Device_Library/Core/Src/usbd_ctlreq.c ****         pdev->dev_config = cfgidx;
 784:Middlewares/ST/STM32_USB_Device_Library/Core/Src/usbd_ctlreq.c **** 
 785:Middlewares/ST/STM32_USB_Device_Library/Core/Src/usbd_ctlreq.c ****         ret = USBD_SetClassConfig(pdev, cfgidx);
 786:Middlewares/ST/STM32_USB_Device_Library/Core/Src/usbd_ctlreq.c **** 
 787:Middlewares/ST/STM32_USB_Device_Library/Core/Src/usbd_ctlreq.c ****         if (ret != USBD_OK)
 788:Middlewares/ST/STM32_USB_Device_Library/Core/Src/usbd_ctlreq.c ****         {
 789:Middlewares/ST/STM32_USB_Device_Library/Core/Src/usbd_ctlreq.c ****           USBD_CtlError(pdev, req);
 790:Middlewares/ST/STM32_USB_Device_Library/Core/Src/usbd_ctlreq.c ****           (void)USBD_ClrClassConfig(pdev, (uint8_t)pdev->dev_config);
 791:Middlewares/ST/STM32_USB_Device_Library/Core/Src/usbd_ctlreq.c ****           pdev->dev_state = USBD_STATE_ADDRESSED;
 792:Middlewares/ST/STM32_USB_Device_Library/Core/Src/usbd_ctlreq.c ****         }
 793:Middlewares/ST/STM32_USB_Device_Library/Core/Src/usbd_ctlreq.c ****         else
 794:Middlewares/ST/STM32_USB_Device_Library/Core/Src/usbd_ctlreq.c ****         {
 795:Middlewares/ST/STM32_USB_Device_Library/Core/Src/usbd_ctlreq.c ****           (void)USBD_CtlSendStatus(pdev);
 796:Middlewares/ST/STM32_USB_Device_Library/Core/Src/usbd_ctlreq.c ****         }
 797:Middlewares/ST/STM32_USB_Device_Library/Core/Src/usbd_ctlreq.c ****       }
 798:Middlewares/ST/STM32_USB_Device_Library/Core/Src/usbd_ctlreq.c ****       else
 799:Middlewares/ST/STM32_USB_Device_Library/Core/Src/usbd_ctlreq.c ****       {
 800:Middlewares/ST/STM32_USB_Device_Library/Core/Src/usbd_ctlreq.c ****         (void)USBD_CtlSendStatus(pdev);
 801:Middlewares/ST/STM32_USB_Device_Library/Core/Src/usbd_ctlreq.c ****       }
 802:Middlewares/ST/STM32_USB_Device_Library/Core/Src/usbd_ctlreq.c ****       break;
 1780              		.loc 1 802 7
 1781 00bc 42E0     		b	.L140
 1782              	.L141:
 777:Middlewares/ST/STM32_USB_Device_Library/Core/Src/usbd_ctlreq.c ****       {
 1783              		.loc 1 777 23
 1784 00be 244B     		ldr	r3, .L146
 1785 00c0 1B78     		ldrb	r3, [r3]	@ zero_extendqisi2
 1786 00c2 1A46     		mov	r2, r3
 777:Middlewares/ST/STM32_USB_Device_Library/Core/Src/usbd_ctlreq.c ****       {
 1787              		.loc 1 777 30
 1788 00c4 7B68     		ldr	r3, [r7, #4]
 1789 00c6 5B68     		ldr	r3, [r3, #4]
 777:Middlewares/ST/STM32_USB_Device_Library/Core/Src/usbd_ctlreq.c ****       {
 1790              		.loc 1 777 15
 1791 00c8 9A42     		cmp	r2, r3
 1792 00ca 2AD0     		beq	.L143
 780:Middlewares/ST/STM32_USB_Device_Library/Core/Src/usbd_ctlreq.c **** 
 1793              		.loc 1 780 54
 1794 00cc 7B68     		ldr	r3, [r7, #4]
 1795 00ce 5B68     		ldr	r3, [r3, #4]
 780:Middlewares/ST/STM32_USB_Device_Library/Core/Src/usbd_ctlreq.c **** 
 1796              		.loc 1 780 15
 1797 00d0 DBB2     		uxtb	r3, r3
 1798 00d2 1946     		mov	r1, r3
 1799 00d4 7868     		ldr	r0, [r7, #4]
 1800 00d6 FFF7FEFF 		bl	USBD_ClrClassConfig
 783:Middlewares/ST/STM32_USB_Device_Library/Core/Src/usbd_ctlreq.c **** 
 1801              		.loc 1 783 26
 1802 00da 1D4B     		ldr	r3, .L146
 1803 00dc 1B78     		ldrb	r3, [r3]	@ zero_extendqisi2
ARM GAS  C:\Users\Godwin\AppData\Local\Temp\cc8eSH1G.s 			page 55


 1804 00de 1A46     		mov	r2, r3
 1805 00e0 7B68     		ldr	r3, [r7, #4]
 1806 00e2 5A60     		str	r2, [r3, #4]
 785:Middlewares/ST/STM32_USB_Device_Library/Core/Src/usbd_ctlreq.c **** 
 1807              		.loc 1 785 15
 1808 00e4 1A4B     		ldr	r3, .L146
 1809 00e6 1B78     		ldrb	r3, [r3]	@ zero_extendqisi2
 1810 00e8 1946     		mov	r1, r3
 1811 00ea 7868     		ldr	r0, [r7, #4]
 1812 00ec FFF7FEFF 		bl	USBD_SetClassConfig
 1813 00f0 0346     		mov	r3, r0
 1814 00f2 FB73     		strb	r3, [r7, #15]
 787:Middlewares/ST/STM32_USB_Device_Library/Core/Src/usbd_ctlreq.c ****         {
 1815              		.loc 1 787 12
 1816 00f4 FB7B     		ldrb	r3, [r7, #15]	@ zero_extendqisi2
 1817 00f6 002B     		cmp	r3, #0
 1818 00f8 0FD0     		beq	.L144
 789:Middlewares/ST/STM32_USB_Device_Library/Core/Src/usbd_ctlreq.c ****           (void)USBD_ClrClassConfig(pdev, (uint8_t)pdev->dev_config);
 1819              		.loc 1 789 11
 1820 00fa 3968     		ldr	r1, [r7]
 1821 00fc 7868     		ldr	r0, [r7, #4]
 1822 00fe FFF7FEFF 		bl	USBD_CtlError
 790:Middlewares/ST/STM32_USB_Device_Library/Core/Src/usbd_ctlreq.c ****           pdev->dev_state = USBD_STATE_ADDRESSED;
 1823              		.loc 1 790 56
 1824 0102 7B68     		ldr	r3, [r7, #4]
 1825 0104 5B68     		ldr	r3, [r3, #4]
 790:Middlewares/ST/STM32_USB_Device_Library/Core/Src/usbd_ctlreq.c ****           pdev->dev_state = USBD_STATE_ADDRESSED;
 1826              		.loc 1 790 17
 1827 0106 DBB2     		uxtb	r3, r3
 1828 0108 1946     		mov	r1, r3
 1829 010a 7868     		ldr	r0, [r7, #4]
 1830 010c FFF7FEFF 		bl	USBD_ClrClassConfig
 791:Middlewares/ST/STM32_USB_Device_Library/Core/Src/usbd_ctlreq.c ****         }
 1831              		.loc 1 791 27
 1832 0110 7B68     		ldr	r3, [r7, #4]
 1833 0112 0222     		movs	r2, #2
 1834 0114 83F89C22 		strb	r2, [r3, #668]
 1835              		.loc 1 802 7
 1836 0118 14E0     		b	.L140
 1837              	.L144:
 795:Middlewares/ST/STM32_USB_Device_Library/Core/Src/usbd_ctlreq.c ****         }
 1838              		.loc 1 795 17
 1839 011a 7868     		ldr	r0, [r7, #4]
 1840 011c FFF7FEFF 		bl	USBD_CtlSendStatus
 1841              		.loc 1 802 7
 1842 0120 10E0     		b	.L140
 1843              	.L143:
 800:Middlewares/ST/STM32_USB_Device_Library/Core/Src/usbd_ctlreq.c ****       }
 1844              		.loc 1 800 15
 1845 0122 7868     		ldr	r0, [r7, #4]
 1846 0124 FFF7FEFF 		bl	USBD_CtlSendStatus
 1847              		.loc 1 802 7
 1848 0128 0CE0     		b	.L140
 1849              	.L145:
 803:Middlewares/ST/STM32_USB_Device_Library/Core/Src/usbd_ctlreq.c **** 
 804:Middlewares/ST/STM32_USB_Device_Library/Core/Src/usbd_ctlreq.c ****     default:
 805:Middlewares/ST/STM32_USB_Device_Library/Core/Src/usbd_ctlreq.c ****       USBD_CtlError(pdev, req);
ARM GAS  C:\Users\Godwin\AppData\Local\Temp\cc8eSH1G.s 			page 56


 1850              		.loc 1 805 7
 1851 012a 3968     		ldr	r1, [r7]
 1852 012c 7868     		ldr	r0, [r7, #4]
 1853 012e FFF7FEFF 		bl	USBD_CtlError
 806:Middlewares/ST/STM32_USB_Device_Library/Core/Src/usbd_ctlreq.c ****       (void)USBD_ClrClassConfig(pdev, cfgidx);
 1854              		.loc 1 806 7
 1855 0132 074B     		ldr	r3, .L146
 1856 0134 1B78     		ldrb	r3, [r3]	@ zero_extendqisi2
 1857              		.loc 1 806 13
 1858 0136 1946     		mov	r1, r3
 1859 0138 7868     		ldr	r0, [r7, #4]
 1860 013a FFF7FEFF 		bl	USBD_ClrClassConfig
 807:Middlewares/ST/STM32_USB_Device_Library/Core/Src/usbd_ctlreq.c ****       ret = USBD_FAIL;
 1861              		.loc 1 807 11
 1862 013e 0323     		movs	r3, #3
 1863 0140 FB73     		strb	r3, [r7, #15]
 808:Middlewares/ST/STM32_USB_Device_Library/Core/Src/usbd_ctlreq.c ****       break;
 1864              		.loc 1 808 7
 1865 0142 00BF     		nop
 1866              	.L140:
 809:Middlewares/ST/STM32_USB_Device_Library/Core/Src/usbd_ctlreq.c ****   }
 810:Middlewares/ST/STM32_USB_Device_Library/Core/Src/usbd_ctlreq.c **** 
 811:Middlewares/ST/STM32_USB_Device_Library/Core/Src/usbd_ctlreq.c ****   return ret;
 1867              		.loc 1 811 10
 1868 0144 FB7B     		ldrb	r3, [r7, #15]	@ zero_extendqisi2
 1869              	.L133:
 812:Middlewares/ST/STM32_USB_Device_Library/Core/Src/usbd_ctlreq.c **** }
 1870              		.loc 1 812 1
 1871 0146 1846     		mov	r0, r3
 1872 0148 1037     		adds	r7, r7, #16
 1873              	.LCFI34:
 1874              		.cfi_def_cfa_offset 8
 1875 014a BD46     		mov	sp, r7
 1876              	.LCFI35:
 1877              		.cfi_def_cfa_register 13
 1878              		@ sp needed
 1879 014c 80BD     		pop	{r7, pc}
 1880              	.L147:
 1881 014e 00BF     		.align	2
 1882              	.L146:
 1883 0150 00000000 		.word	cfgidx.0
 1884              		.cfi_endproc
 1885              	.LFE153:
 1887              		.section	.text.USBD_GetConfig,"ax",%progbits
 1888              		.align	1
 1889              		.syntax unified
 1890              		.thumb
 1891              		.thumb_func
 1893              	USBD_GetConfig:
 1894              	.LFB154:
 813:Middlewares/ST/STM32_USB_Device_Library/Core/Src/usbd_ctlreq.c **** 
 814:Middlewares/ST/STM32_USB_Device_Library/Core/Src/usbd_ctlreq.c **** /**
 815:Middlewares/ST/STM32_USB_Device_Library/Core/Src/usbd_ctlreq.c ****   * @brief  USBD_GetConfig
 816:Middlewares/ST/STM32_USB_Device_Library/Core/Src/usbd_ctlreq.c ****   *         Handle Get device configuration request
 817:Middlewares/ST/STM32_USB_Device_Library/Core/Src/usbd_ctlreq.c ****   * @param  pdev: device instance
 818:Middlewares/ST/STM32_USB_Device_Library/Core/Src/usbd_ctlreq.c ****   * @param  req: usb request
 819:Middlewares/ST/STM32_USB_Device_Library/Core/Src/usbd_ctlreq.c ****   * @retval None
ARM GAS  C:\Users\Godwin\AppData\Local\Temp\cc8eSH1G.s 			page 57


 820:Middlewares/ST/STM32_USB_Device_Library/Core/Src/usbd_ctlreq.c ****   */
 821:Middlewares/ST/STM32_USB_Device_Library/Core/Src/usbd_ctlreq.c **** static void USBD_GetConfig(USBD_HandleTypeDef *pdev, USBD_SetupReqTypedef *req)
 822:Middlewares/ST/STM32_USB_Device_Library/Core/Src/usbd_ctlreq.c **** {
 1895              		.loc 1 822 1
 1896              		.cfi_startproc
 1897              		@ args = 0, pretend = 0, frame = 8
 1898              		@ frame_needed = 1, uses_anonymous_args = 0
 1899 0000 80B5     		push	{r7, lr}
 1900              	.LCFI36:
 1901              		.cfi_def_cfa_offset 8
 1902              		.cfi_offset 7, -8
 1903              		.cfi_offset 14, -4
 1904 0002 82B0     		sub	sp, sp, #8
 1905              	.LCFI37:
 1906              		.cfi_def_cfa_offset 16
 1907 0004 00AF     		add	r7, sp, #0
 1908              	.LCFI38:
 1909              		.cfi_def_cfa_register 7
 1910 0006 7860     		str	r0, [r7, #4]
 1911 0008 3960     		str	r1, [r7]
 823:Middlewares/ST/STM32_USB_Device_Library/Core/Src/usbd_ctlreq.c ****   if (req->wLength != 1U)
 1912              		.loc 1 823 10
 1913 000a 3B68     		ldr	r3, [r7]
 1914 000c DB88     		ldrh	r3, [r3, #6]
 1915              		.loc 1 823 6
 1916 000e 012B     		cmp	r3, #1
 1917 0010 04D0     		beq	.L149
 824:Middlewares/ST/STM32_USB_Device_Library/Core/Src/usbd_ctlreq.c ****   {
 825:Middlewares/ST/STM32_USB_Device_Library/Core/Src/usbd_ctlreq.c ****     USBD_CtlError(pdev, req);
 1918              		.loc 1 825 5
 1919 0012 3968     		ldr	r1, [r7]
 1920 0014 7868     		ldr	r0, [r7, #4]
 1921 0016 FFF7FEFF 		bl	USBD_CtlError
 826:Middlewares/ST/STM32_USB_Device_Library/Core/Src/usbd_ctlreq.c ****   }
 827:Middlewares/ST/STM32_USB_Device_Library/Core/Src/usbd_ctlreq.c ****   else
 828:Middlewares/ST/STM32_USB_Device_Library/Core/Src/usbd_ctlreq.c ****   {
 829:Middlewares/ST/STM32_USB_Device_Library/Core/Src/usbd_ctlreq.c ****     switch (pdev->dev_state)
 830:Middlewares/ST/STM32_USB_Device_Library/Core/Src/usbd_ctlreq.c ****     {
 831:Middlewares/ST/STM32_USB_Device_Library/Core/Src/usbd_ctlreq.c ****       case USBD_STATE_DEFAULT:
 832:Middlewares/ST/STM32_USB_Device_Library/Core/Src/usbd_ctlreq.c ****       case USBD_STATE_ADDRESSED:
 833:Middlewares/ST/STM32_USB_Device_Library/Core/Src/usbd_ctlreq.c ****         pdev->dev_default_config = 0U;
 834:Middlewares/ST/STM32_USB_Device_Library/Core/Src/usbd_ctlreq.c ****         (void)USBD_CtlSendData(pdev, (uint8_t *)&pdev->dev_default_config, 1U);
 835:Middlewares/ST/STM32_USB_Device_Library/Core/Src/usbd_ctlreq.c ****         break;
 836:Middlewares/ST/STM32_USB_Device_Library/Core/Src/usbd_ctlreq.c **** 
 837:Middlewares/ST/STM32_USB_Device_Library/Core/Src/usbd_ctlreq.c ****       case USBD_STATE_CONFIGURED:
 838:Middlewares/ST/STM32_USB_Device_Library/Core/Src/usbd_ctlreq.c ****         (void)USBD_CtlSendData(pdev, (uint8_t *)&pdev->dev_config, 1U);
 839:Middlewares/ST/STM32_USB_Device_Library/Core/Src/usbd_ctlreq.c ****         break;
 840:Middlewares/ST/STM32_USB_Device_Library/Core/Src/usbd_ctlreq.c **** 
 841:Middlewares/ST/STM32_USB_Device_Library/Core/Src/usbd_ctlreq.c ****       default:
 842:Middlewares/ST/STM32_USB_Device_Library/Core/Src/usbd_ctlreq.c ****         USBD_CtlError(pdev, req);
 843:Middlewares/ST/STM32_USB_Device_Library/Core/Src/usbd_ctlreq.c ****         break;
 844:Middlewares/ST/STM32_USB_Device_Library/Core/Src/usbd_ctlreq.c ****     }
 845:Middlewares/ST/STM32_USB_Device_Library/Core/Src/usbd_ctlreq.c ****   }
 846:Middlewares/ST/STM32_USB_Device_Library/Core/Src/usbd_ctlreq.c **** }
 1922              		.loc 1 846 1
 1923 001a 23E0     		b	.L155
 1924              	.L149:
ARM GAS  C:\Users\Godwin\AppData\Local\Temp\cc8eSH1G.s 			page 58


 829:Middlewares/ST/STM32_USB_Device_Library/Core/Src/usbd_ctlreq.c ****     {
 1925              		.loc 1 829 17
 1926 001c 7B68     		ldr	r3, [r7, #4]
 1927 001e 93F89C32 		ldrb	r3, [r3, #668]
 1928 0022 DBB2     		uxtb	r3, r3
 829:Middlewares/ST/STM32_USB_Device_Library/Core/Src/usbd_ctlreq.c ****     {
 1929              		.loc 1 829 5
 1930 0024 022B     		cmp	r3, #2
 1931 0026 02DC     		bgt	.L151
 1932 0028 002B     		cmp	r3, #0
 1933 002a 03DC     		bgt	.L152
 1934 002c 15E0     		b	.L153
 1935              	.L151:
 1936 002e 032B     		cmp	r3, #3
 1937 0030 0BD0     		beq	.L154
 1938 0032 12E0     		b	.L153
 1939              	.L152:
 833:Middlewares/ST/STM32_USB_Device_Library/Core/Src/usbd_ctlreq.c ****         (void)USBD_CtlSendData(pdev, (uint8_t *)&pdev->dev_default_config, 1U);
 1940              		.loc 1 833 34
 1941 0034 7B68     		ldr	r3, [r7, #4]
 1942 0036 0022     		movs	r2, #0
 1943 0038 9A60     		str	r2, [r3, #8]
 834:Middlewares/ST/STM32_USB_Device_Library/Core/Src/usbd_ctlreq.c ****         break;
 1944              		.loc 1 834 49
 1945 003a 7B68     		ldr	r3, [r7, #4]
 1946 003c 0833     		adds	r3, r3, #8
 834:Middlewares/ST/STM32_USB_Device_Library/Core/Src/usbd_ctlreq.c ****         break;
 1947              		.loc 1 834 15
 1948 003e 0122     		movs	r2, #1
 1949 0040 1946     		mov	r1, r3
 1950 0042 7868     		ldr	r0, [r7, #4]
 1951 0044 FFF7FEFF 		bl	USBD_CtlSendData
 835:Middlewares/ST/STM32_USB_Device_Library/Core/Src/usbd_ctlreq.c **** 
 1952              		.loc 1 835 9
 1953 0048 0CE0     		b	.L150
 1954              	.L154:
 838:Middlewares/ST/STM32_USB_Device_Library/Core/Src/usbd_ctlreq.c ****         break;
 1955              		.loc 1 838 49
 1956 004a 7B68     		ldr	r3, [r7, #4]
 1957 004c 0433     		adds	r3, r3, #4
 838:Middlewares/ST/STM32_USB_Device_Library/Core/Src/usbd_ctlreq.c ****         break;
 1958              		.loc 1 838 15
 1959 004e 0122     		movs	r2, #1
 1960 0050 1946     		mov	r1, r3
 1961 0052 7868     		ldr	r0, [r7, #4]
 1962 0054 FFF7FEFF 		bl	USBD_CtlSendData
 839:Middlewares/ST/STM32_USB_Device_Library/Core/Src/usbd_ctlreq.c **** 
 1963              		.loc 1 839 9
 1964 0058 04E0     		b	.L150
 1965              	.L153:
 842:Middlewares/ST/STM32_USB_Device_Library/Core/Src/usbd_ctlreq.c ****         break;
 1966              		.loc 1 842 9
 1967 005a 3968     		ldr	r1, [r7]
 1968 005c 7868     		ldr	r0, [r7, #4]
 1969 005e FFF7FEFF 		bl	USBD_CtlError
 843:Middlewares/ST/STM32_USB_Device_Library/Core/Src/usbd_ctlreq.c ****     }
 1970              		.loc 1 843 9
ARM GAS  C:\Users\Godwin\AppData\Local\Temp\cc8eSH1G.s 			page 59


 1971 0062 00BF     		nop
 1972              	.L150:
 1973              	.L155:
 1974              		.loc 1 846 1
 1975 0064 00BF     		nop
 1976 0066 0837     		adds	r7, r7, #8
 1977              	.LCFI39:
 1978              		.cfi_def_cfa_offset 8
 1979 0068 BD46     		mov	sp, r7
 1980              	.LCFI40:
 1981              		.cfi_def_cfa_register 13
 1982              		@ sp needed
 1983 006a 80BD     		pop	{r7, pc}
 1984              		.cfi_endproc
 1985              	.LFE154:
 1987              		.section	.text.USBD_GetStatus,"ax",%progbits
 1988              		.align	1
 1989              		.syntax unified
 1990              		.thumb
 1991              		.thumb_func
 1993              	USBD_GetStatus:
 1994              	.LFB155:
 847:Middlewares/ST/STM32_USB_Device_Library/Core/Src/usbd_ctlreq.c **** 
 848:Middlewares/ST/STM32_USB_Device_Library/Core/Src/usbd_ctlreq.c **** /**
 849:Middlewares/ST/STM32_USB_Device_Library/Core/Src/usbd_ctlreq.c ****   * @brief  USBD_GetStatus
 850:Middlewares/ST/STM32_USB_Device_Library/Core/Src/usbd_ctlreq.c ****   *         Handle Get Status request
 851:Middlewares/ST/STM32_USB_Device_Library/Core/Src/usbd_ctlreq.c ****   * @param  pdev: device instance
 852:Middlewares/ST/STM32_USB_Device_Library/Core/Src/usbd_ctlreq.c ****   * @param  req: usb request
 853:Middlewares/ST/STM32_USB_Device_Library/Core/Src/usbd_ctlreq.c ****   * @retval None
 854:Middlewares/ST/STM32_USB_Device_Library/Core/Src/usbd_ctlreq.c ****   */
 855:Middlewares/ST/STM32_USB_Device_Library/Core/Src/usbd_ctlreq.c **** static void USBD_GetStatus(USBD_HandleTypeDef *pdev, USBD_SetupReqTypedef *req)
 856:Middlewares/ST/STM32_USB_Device_Library/Core/Src/usbd_ctlreq.c **** {
 1995              		.loc 1 856 1
 1996              		.cfi_startproc
 1997              		@ args = 0, pretend = 0, frame = 8
 1998              		@ frame_needed = 1, uses_anonymous_args = 0
 1999 0000 80B5     		push	{r7, lr}
 2000              	.LCFI41:
 2001              		.cfi_def_cfa_offset 8
 2002              		.cfi_offset 7, -8
 2003              		.cfi_offset 14, -4
 2004 0002 82B0     		sub	sp, sp, #8
 2005              	.LCFI42:
 2006              		.cfi_def_cfa_offset 16
 2007 0004 00AF     		add	r7, sp, #0
 2008              	.LCFI43:
 2009              		.cfi_def_cfa_register 7
 2010 0006 7860     		str	r0, [r7, #4]
 2011 0008 3960     		str	r1, [r7]
 857:Middlewares/ST/STM32_USB_Device_Library/Core/Src/usbd_ctlreq.c ****   switch (pdev->dev_state)
 2012              		.loc 1 857 15
 2013 000a 7B68     		ldr	r3, [r7, #4]
 2014 000c 93F89C32 		ldrb	r3, [r3, #668]
 2015 0010 DBB2     		uxtb	r3, r3
 2016 0012 013B     		subs	r3, r3, #1
 2017              		.loc 1 857 3
 2018 0014 022B     		cmp	r3, #2
ARM GAS  C:\Users\Godwin\AppData\Local\Temp\cc8eSH1G.s 			page 60


 2019 0016 1ED8     		bhi	.L157
 858:Middlewares/ST/STM32_USB_Device_Library/Core/Src/usbd_ctlreq.c ****   {
 859:Middlewares/ST/STM32_USB_Device_Library/Core/Src/usbd_ctlreq.c ****     case USBD_STATE_DEFAULT:
 860:Middlewares/ST/STM32_USB_Device_Library/Core/Src/usbd_ctlreq.c ****     case USBD_STATE_ADDRESSED:
 861:Middlewares/ST/STM32_USB_Device_Library/Core/Src/usbd_ctlreq.c ****     case USBD_STATE_CONFIGURED:
 862:Middlewares/ST/STM32_USB_Device_Library/Core/Src/usbd_ctlreq.c ****       if (req->wLength != 0x2U)
 2020              		.loc 1 862 14
 2021 0018 3B68     		ldr	r3, [r7]
 2022 001a DB88     		ldrh	r3, [r3, #6]
 2023              		.loc 1 862 10
 2024 001c 022B     		cmp	r3, #2
 2025 001e 04D0     		beq	.L158
 863:Middlewares/ST/STM32_USB_Device_Library/Core/Src/usbd_ctlreq.c ****       {
 864:Middlewares/ST/STM32_USB_Device_Library/Core/Src/usbd_ctlreq.c ****         USBD_CtlError(pdev, req);
 2026              		.loc 1 864 9
 2027 0020 3968     		ldr	r1, [r7]
 2028 0022 7868     		ldr	r0, [r7, #4]
 2029 0024 FFF7FEFF 		bl	USBD_CtlError
 865:Middlewares/ST/STM32_USB_Device_Library/Core/Src/usbd_ctlreq.c ****         break;
 2030              		.loc 1 865 9
 2031 0028 1AE0     		b	.L159
 2032              	.L158:
 866:Middlewares/ST/STM32_USB_Device_Library/Core/Src/usbd_ctlreq.c ****       }
 867:Middlewares/ST/STM32_USB_Device_Library/Core/Src/usbd_ctlreq.c **** 
 868:Middlewares/ST/STM32_USB_Device_Library/Core/Src/usbd_ctlreq.c **** #if (USBD_SELF_POWERED == 1U)
 869:Middlewares/ST/STM32_USB_Device_Library/Core/Src/usbd_ctlreq.c ****       pdev->dev_config_status = USB_CONFIG_SELF_POWERED;
 2033              		.loc 1 869 31
 2034 002a 7B68     		ldr	r3, [r7, #4]
 2035 002c 0122     		movs	r2, #1
 2036 002e DA60     		str	r2, [r3, #12]
 870:Middlewares/ST/STM32_USB_Device_Library/Core/Src/usbd_ctlreq.c **** #else
 871:Middlewares/ST/STM32_USB_Device_Library/Core/Src/usbd_ctlreq.c ****       pdev->dev_config_status = 0U;
 872:Middlewares/ST/STM32_USB_Device_Library/Core/Src/usbd_ctlreq.c **** #endif /* USBD_SELF_POWERED */
 873:Middlewares/ST/STM32_USB_Device_Library/Core/Src/usbd_ctlreq.c **** 
 874:Middlewares/ST/STM32_USB_Device_Library/Core/Src/usbd_ctlreq.c ****       if (pdev->dev_remote_wakeup != 0U)
 2037              		.loc 1 874 15
 2038 0030 7B68     		ldr	r3, [r7, #4]
 2039 0032 D3F8A432 		ldr	r3, [r3, #676]
 2040              		.loc 1 874 10
 2041 0036 002B     		cmp	r3, #0
 2042 0038 05D0     		beq	.L160
 875:Middlewares/ST/STM32_USB_Device_Library/Core/Src/usbd_ctlreq.c ****       {
 876:Middlewares/ST/STM32_USB_Device_Library/Core/Src/usbd_ctlreq.c ****         pdev->dev_config_status |= USB_CONFIG_REMOTE_WAKEUP;
 2043              		.loc 1 876 13
 2044 003a 7B68     		ldr	r3, [r7, #4]
 2045 003c DB68     		ldr	r3, [r3, #12]
 2046              		.loc 1 876 33
 2047 003e 43F00202 		orr	r2, r3, #2
 2048 0042 7B68     		ldr	r3, [r7, #4]
 2049 0044 DA60     		str	r2, [r3, #12]
 2050              	.L160:
 877:Middlewares/ST/STM32_USB_Device_Library/Core/Src/usbd_ctlreq.c ****       }
 878:Middlewares/ST/STM32_USB_Device_Library/Core/Src/usbd_ctlreq.c **** 
 879:Middlewares/ST/STM32_USB_Device_Library/Core/Src/usbd_ctlreq.c ****       (void)USBD_CtlSendData(pdev, (uint8_t *)&pdev->dev_config_status, 2U);
 2051              		.loc 1 879 47
 2052 0046 7B68     		ldr	r3, [r7, #4]
 2053 0048 0C33     		adds	r3, r3, #12
ARM GAS  C:\Users\Godwin\AppData\Local\Temp\cc8eSH1G.s 			page 61


 2054              		.loc 1 879 13
 2055 004a 0222     		movs	r2, #2
 2056 004c 1946     		mov	r1, r3
 2057 004e 7868     		ldr	r0, [r7, #4]
 2058 0050 FFF7FEFF 		bl	USBD_CtlSendData
 880:Middlewares/ST/STM32_USB_Device_Library/Core/Src/usbd_ctlreq.c ****       break;
 2059              		.loc 1 880 7
 2060 0054 04E0     		b	.L159
 2061              	.L157:
 881:Middlewares/ST/STM32_USB_Device_Library/Core/Src/usbd_ctlreq.c **** 
 882:Middlewares/ST/STM32_USB_Device_Library/Core/Src/usbd_ctlreq.c ****     default:
 883:Middlewares/ST/STM32_USB_Device_Library/Core/Src/usbd_ctlreq.c ****       USBD_CtlError(pdev, req);
 2062              		.loc 1 883 7
 2063 0056 3968     		ldr	r1, [r7]
 2064 0058 7868     		ldr	r0, [r7, #4]
 2065 005a FFF7FEFF 		bl	USBD_CtlError
 884:Middlewares/ST/STM32_USB_Device_Library/Core/Src/usbd_ctlreq.c ****       break;
 2066              		.loc 1 884 7
 2067 005e 00BF     		nop
 2068              	.L159:
 885:Middlewares/ST/STM32_USB_Device_Library/Core/Src/usbd_ctlreq.c ****   }
 886:Middlewares/ST/STM32_USB_Device_Library/Core/Src/usbd_ctlreq.c **** }
 2069              		.loc 1 886 1
 2070 0060 00BF     		nop
 2071 0062 0837     		adds	r7, r7, #8
 2072              	.LCFI44:
 2073              		.cfi_def_cfa_offset 8
 2074 0064 BD46     		mov	sp, r7
 2075              	.LCFI45:
 2076              		.cfi_def_cfa_register 13
 2077              		@ sp needed
 2078 0066 80BD     		pop	{r7, pc}
 2079              		.cfi_endproc
 2080              	.LFE155:
 2082              		.section	.text.USBD_SetFeature,"ax",%progbits
 2083              		.align	1
 2084              		.syntax unified
 2085              		.thumb
 2086              		.thumb_func
 2088              	USBD_SetFeature:
 2089              	.LFB156:
 887:Middlewares/ST/STM32_USB_Device_Library/Core/Src/usbd_ctlreq.c **** 
 888:Middlewares/ST/STM32_USB_Device_Library/Core/Src/usbd_ctlreq.c **** 
 889:Middlewares/ST/STM32_USB_Device_Library/Core/Src/usbd_ctlreq.c **** /**
 890:Middlewares/ST/STM32_USB_Device_Library/Core/Src/usbd_ctlreq.c ****   * @brief  USBD_SetFeature
 891:Middlewares/ST/STM32_USB_Device_Library/Core/Src/usbd_ctlreq.c ****   *         Handle Set device feature request
 892:Middlewares/ST/STM32_USB_Device_Library/Core/Src/usbd_ctlreq.c ****   * @param  pdev: device instance
 893:Middlewares/ST/STM32_USB_Device_Library/Core/Src/usbd_ctlreq.c ****   * @param  req: usb request
 894:Middlewares/ST/STM32_USB_Device_Library/Core/Src/usbd_ctlreq.c ****   * @retval None
 895:Middlewares/ST/STM32_USB_Device_Library/Core/Src/usbd_ctlreq.c ****   */
 896:Middlewares/ST/STM32_USB_Device_Library/Core/Src/usbd_ctlreq.c **** static void USBD_SetFeature(USBD_HandleTypeDef *pdev, USBD_SetupReqTypedef *req)
 897:Middlewares/ST/STM32_USB_Device_Library/Core/Src/usbd_ctlreq.c **** {
 2090              		.loc 1 897 1
 2091              		.cfi_startproc
 2092              		@ args = 0, pretend = 0, frame = 8
 2093              		@ frame_needed = 1, uses_anonymous_args = 0
 2094 0000 80B5     		push	{r7, lr}
ARM GAS  C:\Users\Godwin\AppData\Local\Temp\cc8eSH1G.s 			page 62


 2095              	.LCFI46:
 2096              		.cfi_def_cfa_offset 8
 2097              		.cfi_offset 7, -8
 2098              		.cfi_offset 14, -4
 2099 0002 82B0     		sub	sp, sp, #8
 2100              	.LCFI47:
 2101              		.cfi_def_cfa_offset 16
 2102 0004 00AF     		add	r7, sp, #0
 2103              	.LCFI48:
 2104              		.cfi_def_cfa_register 7
 2105 0006 7860     		str	r0, [r7, #4]
 2106 0008 3960     		str	r1, [r7]
 898:Middlewares/ST/STM32_USB_Device_Library/Core/Src/usbd_ctlreq.c ****   if (req->wValue == USB_FEATURE_REMOTE_WAKEUP)
 2107              		.loc 1 898 10
 2108 000a 3B68     		ldr	r3, [r7]
 2109 000c 5B88     		ldrh	r3, [r3, #2]
 2110              		.loc 1 898 6
 2111 000e 012B     		cmp	r3, #1
 2112 0010 07D1     		bne	.L162
 899:Middlewares/ST/STM32_USB_Device_Library/Core/Src/usbd_ctlreq.c ****   {
 900:Middlewares/ST/STM32_USB_Device_Library/Core/Src/usbd_ctlreq.c ****     pdev->dev_remote_wakeup = 1U;
 2113              		.loc 1 900 29
 2114 0012 7B68     		ldr	r3, [r7, #4]
 2115 0014 0122     		movs	r2, #1
 2116 0016 C3F8A422 		str	r2, [r3, #676]
 901:Middlewares/ST/STM32_USB_Device_Library/Core/Src/usbd_ctlreq.c ****     (void)USBD_CtlSendStatus(pdev);
 2117              		.loc 1 901 11
 2118 001a 7868     		ldr	r0, [r7, #4]
 2119 001c FFF7FEFF 		bl	USBD_CtlSendStatus
 902:Middlewares/ST/STM32_USB_Device_Library/Core/Src/usbd_ctlreq.c ****   }
 903:Middlewares/ST/STM32_USB_Device_Library/Core/Src/usbd_ctlreq.c ****   else if (req->wValue == USB_FEATURE_TEST_MODE)
 904:Middlewares/ST/STM32_USB_Device_Library/Core/Src/usbd_ctlreq.c ****   {
 905:Middlewares/ST/STM32_USB_Device_Library/Core/Src/usbd_ctlreq.c ****     pdev->dev_test_mode = (uint8_t)(req->wIndex >> 8);
 906:Middlewares/ST/STM32_USB_Device_Library/Core/Src/usbd_ctlreq.c ****     (void)USBD_CtlSendStatus(pdev);
 907:Middlewares/ST/STM32_USB_Device_Library/Core/Src/usbd_ctlreq.c ****   }
 908:Middlewares/ST/STM32_USB_Device_Library/Core/Src/usbd_ctlreq.c ****   else
 909:Middlewares/ST/STM32_USB_Device_Library/Core/Src/usbd_ctlreq.c ****   {
 910:Middlewares/ST/STM32_USB_Device_Library/Core/Src/usbd_ctlreq.c ****     USBD_CtlError(pdev, req);
 911:Middlewares/ST/STM32_USB_Device_Library/Core/Src/usbd_ctlreq.c ****   }
 912:Middlewares/ST/STM32_USB_Device_Library/Core/Src/usbd_ctlreq.c **** }
 2120              		.loc 1 912 1
 2121 0020 13E0     		b	.L165
 2122              	.L162:
 903:Middlewares/ST/STM32_USB_Device_Library/Core/Src/usbd_ctlreq.c ****   {
 2123              		.loc 1 903 15
 2124 0022 3B68     		ldr	r3, [r7]
 2125 0024 5B88     		ldrh	r3, [r3, #2]
 903:Middlewares/ST/STM32_USB_Device_Library/Core/Src/usbd_ctlreq.c ****   {
 2126              		.loc 1 903 11
 2127 0026 022B     		cmp	r3, #2
 2128 0028 0BD1     		bne	.L164
 905:Middlewares/ST/STM32_USB_Device_Library/Core/Src/usbd_ctlreq.c ****     (void)USBD_CtlSendStatus(pdev);
 2129              		.loc 1 905 40
 2130 002a 3B68     		ldr	r3, [r7]
 2131 002c 9B88     		ldrh	r3, [r3, #4]
 905:Middlewares/ST/STM32_USB_Device_Library/Core/Src/usbd_ctlreq.c ****     (void)USBD_CtlSendStatus(pdev);
 2132              		.loc 1 905 27
ARM GAS  C:\Users\Godwin\AppData\Local\Temp\cc8eSH1G.s 			page 63


 2133 002e 1B0A     		lsrs	r3, r3, #8
 2134 0030 9BB2     		uxth	r3, r3
 2135 0032 DAB2     		uxtb	r2, r3
 905:Middlewares/ST/STM32_USB_Device_Library/Core/Src/usbd_ctlreq.c ****     (void)USBD_CtlSendStatus(pdev);
 2136              		.loc 1 905 25
 2137 0034 7B68     		ldr	r3, [r7, #4]
 2138 0036 83F8A022 		strb	r2, [r3, #672]
 906:Middlewares/ST/STM32_USB_Device_Library/Core/Src/usbd_ctlreq.c ****   }
 2139              		.loc 1 906 11
 2140 003a 7868     		ldr	r0, [r7, #4]
 2141 003c FFF7FEFF 		bl	USBD_CtlSendStatus
 2142              		.loc 1 912 1
 2143 0040 03E0     		b	.L165
 2144              	.L164:
 910:Middlewares/ST/STM32_USB_Device_Library/Core/Src/usbd_ctlreq.c ****   }
 2145              		.loc 1 910 5
 2146 0042 3968     		ldr	r1, [r7]
 2147 0044 7868     		ldr	r0, [r7, #4]
 2148 0046 FFF7FEFF 		bl	USBD_CtlError
 2149              	.L165:
 2150              		.loc 1 912 1
 2151 004a 00BF     		nop
 2152 004c 0837     		adds	r7, r7, #8
 2153              	.LCFI49:
 2154              		.cfi_def_cfa_offset 8
 2155 004e BD46     		mov	sp, r7
 2156              	.LCFI50:
 2157              		.cfi_def_cfa_register 13
 2158              		@ sp needed
 2159 0050 80BD     		pop	{r7, pc}
 2160              		.cfi_endproc
 2161              	.LFE156:
 2163              		.section	.text.USBD_ClrFeature,"ax",%progbits
 2164              		.align	1
 2165              		.syntax unified
 2166              		.thumb
 2167              		.thumb_func
 2169              	USBD_ClrFeature:
 2170              	.LFB157:
 913:Middlewares/ST/STM32_USB_Device_Library/Core/Src/usbd_ctlreq.c **** 
 914:Middlewares/ST/STM32_USB_Device_Library/Core/Src/usbd_ctlreq.c **** 
 915:Middlewares/ST/STM32_USB_Device_Library/Core/Src/usbd_ctlreq.c **** /**
 916:Middlewares/ST/STM32_USB_Device_Library/Core/Src/usbd_ctlreq.c ****   * @brief  USBD_ClrFeature
 917:Middlewares/ST/STM32_USB_Device_Library/Core/Src/usbd_ctlreq.c ****   *         Handle clear device feature request
 918:Middlewares/ST/STM32_USB_Device_Library/Core/Src/usbd_ctlreq.c ****   * @param  pdev: device instance
 919:Middlewares/ST/STM32_USB_Device_Library/Core/Src/usbd_ctlreq.c ****   * @param  req: usb request
 920:Middlewares/ST/STM32_USB_Device_Library/Core/Src/usbd_ctlreq.c ****   * @retval None
 921:Middlewares/ST/STM32_USB_Device_Library/Core/Src/usbd_ctlreq.c ****   */
 922:Middlewares/ST/STM32_USB_Device_Library/Core/Src/usbd_ctlreq.c **** static void USBD_ClrFeature(USBD_HandleTypeDef *pdev, USBD_SetupReqTypedef *req)
 923:Middlewares/ST/STM32_USB_Device_Library/Core/Src/usbd_ctlreq.c **** {
 2171              		.loc 1 923 1
 2172              		.cfi_startproc
 2173              		@ args = 0, pretend = 0, frame = 8
 2174              		@ frame_needed = 1, uses_anonymous_args = 0
 2175 0000 80B5     		push	{r7, lr}
 2176              	.LCFI51:
 2177              		.cfi_def_cfa_offset 8
ARM GAS  C:\Users\Godwin\AppData\Local\Temp\cc8eSH1G.s 			page 64


 2178              		.cfi_offset 7, -8
 2179              		.cfi_offset 14, -4
 2180 0002 82B0     		sub	sp, sp, #8
 2181              	.LCFI52:
 2182              		.cfi_def_cfa_offset 16
 2183 0004 00AF     		add	r7, sp, #0
 2184              	.LCFI53:
 2185              		.cfi_def_cfa_register 7
 2186 0006 7860     		str	r0, [r7, #4]
 2187 0008 3960     		str	r1, [r7]
 924:Middlewares/ST/STM32_USB_Device_Library/Core/Src/usbd_ctlreq.c ****   switch (pdev->dev_state)
 2188              		.loc 1 924 15
 2189 000a 7B68     		ldr	r3, [r7, #4]
 2190 000c 93F89C32 		ldrb	r3, [r3, #668]
 2191 0010 DBB2     		uxtb	r3, r3
 2192 0012 013B     		subs	r3, r3, #1
 2193              		.loc 1 924 3
 2194 0014 022B     		cmp	r3, #2
 2195 0016 0BD8     		bhi	.L167
 925:Middlewares/ST/STM32_USB_Device_Library/Core/Src/usbd_ctlreq.c ****   {
 926:Middlewares/ST/STM32_USB_Device_Library/Core/Src/usbd_ctlreq.c ****     case USBD_STATE_DEFAULT:
 927:Middlewares/ST/STM32_USB_Device_Library/Core/Src/usbd_ctlreq.c ****     case USBD_STATE_ADDRESSED:
 928:Middlewares/ST/STM32_USB_Device_Library/Core/Src/usbd_ctlreq.c ****     case USBD_STATE_CONFIGURED:
 929:Middlewares/ST/STM32_USB_Device_Library/Core/Src/usbd_ctlreq.c ****       if (req->wValue == USB_FEATURE_REMOTE_WAKEUP)
 2196              		.loc 1 929 14
 2197 0018 3B68     		ldr	r3, [r7]
 2198 001a 5B88     		ldrh	r3, [r3, #2]
 2199              		.loc 1 929 10
 2200 001c 012B     		cmp	r3, #1
 2201 001e 0CD1     		bne	.L170
 930:Middlewares/ST/STM32_USB_Device_Library/Core/Src/usbd_ctlreq.c ****       {
 931:Middlewares/ST/STM32_USB_Device_Library/Core/Src/usbd_ctlreq.c ****         pdev->dev_remote_wakeup = 0U;
 2202              		.loc 1 931 33
 2203 0020 7B68     		ldr	r3, [r7, #4]
 2204 0022 0022     		movs	r2, #0
 2205 0024 C3F8A422 		str	r2, [r3, #676]
 932:Middlewares/ST/STM32_USB_Device_Library/Core/Src/usbd_ctlreq.c ****         (void)USBD_CtlSendStatus(pdev);
 2206              		.loc 1 932 15
 2207 0028 7868     		ldr	r0, [r7, #4]
 2208 002a FFF7FEFF 		bl	USBD_CtlSendStatus
 933:Middlewares/ST/STM32_USB_Device_Library/Core/Src/usbd_ctlreq.c ****       }
 934:Middlewares/ST/STM32_USB_Device_Library/Core/Src/usbd_ctlreq.c ****       break;
 2209              		.loc 1 934 7
 2210 002e 04E0     		b	.L170
 2211              	.L167:
 935:Middlewares/ST/STM32_USB_Device_Library/Core/Src/usbd_ctlreq.c **** 
 936:Middlewares/ST/STM32_USB_Device_Library/Core/Src/usbd_ctlreq.c ****     default:
 937:Middlewares/ST/STM32_USB_Device_Library/Core/Src/usbd_ctlreq.c ****       USBD_CtlError(pdev, req);
 2212              		.loc 1 937 7
 2213 0030 3968     		ldr	r1, [r7]
 2214 0032 7868     		ldr	r0, [r7, #4]
 2215 0034 FFF7FEFF 		bl	USBD_CtlError
 938:Middlewares/ST/STM32_USB_Device_Library/Core/Src/usbd_ctlreq.c ****       break;
 2216              		.loc 1 938 7
 2217 0038 00E0     		b	.L169
 2218              	.L170:
 934:Middlewares/ST/STM32_USB_Device_Library/Core/Src/usbd_ctlreq.c **** 
ARM GAS  C:\Users\Godwin\AppData\Local\Temp\cc8eSH1G.s 			page 65


 2219              		.loc 1 934 7
 2220 003a 00BF     		nop
 2221              	.L169:
 939:Middlewares/ST/STM32_USB_Device_Library/Core/Src/usbd_ctlreq.c ****   }
 940:Middlewares/ST/STM32_USB_Device_Library/Core/Src/usbd_ctlreq.c **** }
 2222              		.loc 1 940 1
 2223 003c 00BF     		nop
 2224 003e 0837     		adds	r7, r7, #8
 2225              	.LCFI54:
 2226              		.cfi_def_cfa_offset 8
 2227 0040 BD46     		mov	sp, r7
 2228              	.LCFI55:
 2229              		.cfi_def_cfa_register 13
 2230              		@ sp needed
 2231 0042 80BD     		pop	{r7, pc}
 2232              		.cfi_endproc
 2233              	.LFE157:
 2235              		.section	.text.USBD_ParseSetupRequest,"ax",%progbits
 2236              		.align	1
 2237              		.global	USBD_ParseSetupRequest
 2238              		.syntax unified
 2239              		.thumb
 2240              		.thumb_func
 2242              	USBD_ParseSetupRequest:
 2243              	.LFB158:
 941:Middlewares/ST/STM32_USB_Device_Library/Core/Src/usbd_ctlreq.c **** 
 942:Middlewares/ST/STM32_USB_Device_Library/Core/Src/usbd_ctlreq.c **** 
 943:Middlewares/ST/STM32_USB_Device_Library/Core/Src/usbd_ctlreq.c **** /**
 944:Middlewares/ST/STM32_USB_Device_Library/Core/Src/usbd_ctlreq.c ****   * @brief  USBD_ParseSetupRequest
 945:Middlewares/ST/STM32_USB_Device_Library/Core/Src/usbd_ctlreq.c ****   *         Copy buffer into setup structure
 946:Middlewares/ST/STM32_USB_Device_Library/Core/Src/usbd_ctlreq.c ****   * @param  req: usb request
 947:Middlewares/ST/STM32_USB_Device_Library/Core/Src/usbd_ctlreq.c ****   * @param  pdata: setup data pointer
 948:Middlewares/ST/STM32_USB_Device_Library/Core/Src/usbd_ctlreq.c ****   * @retval None
 949:Middlewares/ST/STM32_USB_Device_Library/Core/Src/usbd_ctlreq.c ****   */
 950:Middlewares/ST/STM32_USB_Device_Library/Core/Src/usbd_ctlreq.c **** void USBD_ParseSetupRequest(USBD_SetupReqTypedef *req, uint8_t *pdata)
 951:Middlewares/ST/STM32_USB_Device_Library/Core/Src/usbd_ctlreq.c **** {
 2244              		.loc 1 951 1
 2245              		.cfi_startproc
 2246              		@ args = 0, pretend = 0, frame = 16
 2247              		@ frame_needed = 1, uses_anonymous_args = 0
 2248 0000 80B5     		push	{r7, lr}
 2249              	.LCFI56:
 2250              		.cfi_def_cfa_offset 8
 2251              		.cfi_offset 7, -8
 2252              		.cfi_offset 14, -4
 2253 0002 84B0     		sub	sp, sp, #16
 2254              	.LCFI57:
 2255              		.cfi_def_cfa_offset 24
 2256 0004 00AF     		add	r7, sp, #0
 2257              	.LCFI58:
 2258              		.cfi_def_cfa_register 7
 2259 0006 7860     		str	r0, [r7, #4]
 2260 0008 3960     		str	r1, [r7]
 952:Middlewares/ST/STM32_USB_Device_Library/Core/Src/usbd_ctlreq.c ****   uint8_t *pbuff = pdata;
 2261              		.loc 1 952 12
 2262 000a 3B68     		ldr	r3, [r7]
 2263 000c FB60     		str	r3, [r7, #12]
ARM GAS  C:\Users\Godwin\AppData\Local\Temp\cc8eSH1G.s 			page 66


 953:Middlewares/ST/STM32_USB_Device_Library/Core/Src/usbd_ctlreq.c **** 
 954:Middlewares/ST/STM32_USB_Device_Library/Core/Src/usbd_ctlreq.c ****   req->bmRequest = *(uint8_t *)(pbuff);
 2264              		.loc 1 954 20
 2265 000e FB68     		ldr	r3, [r7, #12]
 2266 0010 1A78     		ldrb	r2, [r3]	@ zero_extendqisi2
 2267              		.loc 1 954 18
 2268 0012 7B68     		ldr	r3, [r7, #4]
 2269 0014 1A70     		strb	r2, [r3]
 955:Middlewares/ST/STM32_USB_Device_Library/Core/Src/usbd_ctlreq.c **** 
 956:Middlewares/ST/STM32_USB_Device_Library/Core/Src/usbd_ctlreq.c ****   pbuff++;
 2270              		.loc 1 956 8
 2271 0016 FB68     		ldr	r3, [r7, #12]
 2272 0018 0133     		adds	r3, r3, #1
 2273 001a FB60     		str	r3, [r7, #12]
 957:Middlewares/ST/STM32_USB_Device_Library/Core/Src/usbd_ctlreq.c ****   req->bRequest = *(uint8_t *)(pbuff);
 2274              		.loc 1 957 19
 2275 001c FB68     		ldr	r3, [r7, #12]
 2276 001e 1A78     		ldrb	r2, [r3]	@ zero_extendqisi2
 2277              		.loc 1 957 17
 2278 0020 7B68     		ldr	r3, [r7, #4]
 2279 0022 5A70     		strb	r2, [r3, #1]
 958:Middlewares/ST/STM32_USB_Device_Library/Core/Src/usbd_ctlreq.c **** 
 959:Middlewares/ST/STM32_USB_Device_Library/Core/Src/usbd_ctlreq.c ****   pbuff++;
 2280              		.loc 1 959 8
 2281 0024 FB68     		ldr	r3, [r7, #12]
 2282 0026 0133     		adds	r3, r3, #1
 2283 0028 FB60     		str	r3, [r7, #12]
 960:Middlewares/ST/STM32_USB_Device_Library/Core/Src/usbd_ctlreq.c ****   req->wValue = SWAPBYTE(pbuff);
 2284              		.loc 1 960 17
 2285 002a F868     		ldr	r0, [r7, #12]
 2286 002c FFF7FEFF 		bl	SWAPBYTE
 2287 0030 0346     		mov	r3, r0
 2288 0032 1A46     		mov	r2, r3
 2289              		.loc 1 960 15 discriminator 1
 2290 0034 7B68     		ldr	r3, [r7, #4]
 2291 0036 5A80     		strh	r2, [r3, #2]	@ movhi
 961:Middlewares/ST/STM32_USB_Device_Library/Core/Src/usbd_ctlreq.c **** 
 962:Middlewares/ST/STM32_USB_Device_Library/Core/Src/usbd_ctlreq.c ****   pbuff++;
 2292              		.loc 1 962 8
 2293 0038 FB68     		ldr	r3, [r7, #12]
 2294 003a 0133     		adds	r3, r3, #1
 2295 003c FB60     		str	r3, [r7, #12]
 963:Middlewares/ST/STM32_USB_Device_Library/Core/Src/usbd_ctlreq.c ****   pbuff++;
 2296              		.loc 1 963 8
 2297 003e FB68     		ldr	r3, [r7, #12]
 2298 0040 0133     		adds	r3, r3, #1
 2299 0042 FB60     		str	r3, [r7, #12]
 964:Middlewares/ST/STM32_USB_Device_Library/Core/Src/usbd_ctlreq.c ****   req->wIndex = SWAPBYTE(pbuff);
 2300              		.loc 1 964 17
 2301 0044 F868     		ldr	r0, [r7, #12]
 2302 0046 FFF7FEFF 		bl	SWAPBYTE
 2303 004a 0346     		mov	r3, r0
 2304 004c 1A46     		mov	r2, r3
 2305              		.loc 1 964 15 discriminator 1
 2306 004e 7B68     		ldr	r3, [r7, #4]
 2307 0050 9A80     		strh	r2, [r3, #4]	@ movhi
 965:Middlewares/ST/STM32_USB_Device_Library/Core/Src/usbd_ctlreq.c **** 
ARM GAS  C:\Users\Godwin\AppData\Local\Temp\cc8eSH1G.s 			page 67


 966:Middlewares/ST/STM32_USB_Device_Library/Core/Src/usbd_ctlreq.c ****   pbuff++;
 2308              		.loc 1 966 8
 2309 0052 FB68     		ldr	r3, [r7, #12]
 2310 0054 0133     		adds	r3, r3, #1
 2311 0056 FB60     		str	r3, [r7, #12]
 967:Middlewares/ST/STM32_USB_Device_Library/Core/Src/usbd_ctlreq.c ****   pbuff++;
 2312              		.loc 1 967 8
 2313 0058 FB68     		ldr	r3, [r7, #12]
 2314 005a 0133     		adds	r3, r3, #1
 2315 005c FB60     		str	r3, [r7, #12]
 968:Middlewares/ST/STM32_USB_Device_Library/Core/Src/usbd_ctlreq.c ****   req->wLength = SWAPBYTE(pbuff);
 2316              		.loc 1 968 18
 2317 005e F868     		ldr	r0, [r7, #12]
 2318 0060 FFF7FEFF 		bl	SWAPBYTE
 2319 0064 0346     		mov	r3, r0
 2320 0066 1A46     		mov	r2, r3
 2321              		.loc 1 968 16 discriminator 1
 2322 0068 7B68     		ldr	r3, [r7, #4]
 2323 006a DA80     		strh	r2, [r3, #6]	@ movhi
 969:Middlewares/ST/STM32_USB_Device_Library/Core/Src/usbd_ctlreq.c **** }
 2324              		.loc 1 969 1
 2325 006c 00BF     		nop
 2326 006e 1037     		adds	r7, r7, #16
 2327              	.LCFI59:
 2328              		.cfi_def_cfa_offset 8
 2329 0070 BD46     		mov	sp, r7
 2330              	.LCFI60:
 2331              		.cfi_def_cfa_register 13
 2332              		@ sp needed
 2333 0072 80BD     		pop	{r7, pc}
 2334              		.cfi_endproc
 2335              	.LFE158:
 2337              		.section	.text.USBD_CtlError,"ax",%progbits
 2338              		.align	1
 2339              		.global	USBD_CtlError
 2340              		.syntax unified
 2341              		.thumb
 2342              		.thumb_func
 2344              	USBD_CtlError:
 2345              	.LFB159:
 970:Middlewares/ST/STM32_USB_Device_Library/Core/Src/usbd_ctlreq.c **** 
 971:Middlewares/ST/STM32_USB_Device_Library/Core/Src/usbd_ctlreq.c **** 
 972:Middlewares/ST/STM32_USB_Device_Library/Core/Src/usbd_ctlreq.c **** /**
 973:Middlewares/ST/STM32_USB_Device_Library/Core/Src/usbd_ctlreq.c ****   * @brief  USBD_CtlError
 974:Middlewares/ST/STM32_USB_Device_Library/Core/Src/usbd_ctlreq.c ****   *         Handle USB low level Error
 975:Middlewares/ST/STM32_USB_Device_Library/Core/Src/usbd_ctlreq.c ****   * @param  pdev: device instance
 976:Middlewares/ST/STM32_USB_Device_Library/Core/Src/usbd_ctlreq.c ****   * @param  req: usb request
 977:Middlewares/ST/STM32_USB_Device_Library/Core/Src/usbd_ctlreq.c ****   * @retval None
 978:Middlewares/ST/STM32_USB_Device_Library/Core/Src/usbd_ctlreq.c ****   */
 979:Middlewares/ST/STM32_USB_Device_Library/Core/Src/usbd_ctlreq.c **** void USBD_CtlError(USBD_HandleTypeDef *pdev, USBD_SetupReqTypedef *req)
 980:Middlewares/ST/STM32_USB_Device_Library/Core/Src/usbd_ctlreq.c **** {
 2346              		.loc 1 980 1
 2347              		.cfi_startproc
 2348              		@ args = 0, pretend = 0, frame = 8
 2349              		@ frame_needed = 1, uses_anonymous_args = 0
 2350 0000 80B5     		push	{r7, lr}
 2351              	.LCFI61:
ARM GAS  C:\Users\Godwin\AppData\Local\Temp\cc8eSH1G.s 			page 68


 2352              		.cfi_def_cfa_offset 8
 2353              		.cfi_offset 7, -8
 2354              		.cfi_offset 14, -4
 2355 0002 82B0     		sub	sp, sp, #8
 2356              	.LCFI62:
 2357              		.cfi_def_cfa_offset 16
 2358 0004 00AF     		add	r7, sp, #0
 2359              	.LCFI63:
 2360              		.cfi_def_cfa_register 7
 2361 0006 7860     		str	r0, [r7, #4]
 2362 0008 3960     		str	r1, [r7]
 981:Middlewares/ST/STM32_USB_Device_Library/Core/Src/usbd_ctlreq.c ****   UNUSED(req);
 982:Middlewares/ST/STM32_USB_Device_Library/Core/Src/usbd_ctlreq.c **** 
 983:Middlewares/ST/STM32_USB_Device_Library/Core/Src/usbd_ctlreq.c ****   (void)USBD_LL_StallEP(pdev, 0x80U);
 2363              		.loc 1 983 9
 2364 000a 8021     		movs	r1, #128
 2365 000c 7868     		ldr	r0, [r7, #4]
 2366 000e FFF7FEFF 		bl	USBD_LL_StallEP
 984:Middlewares/ST/STM32_USB_Device_Library/Core/Src/usbd_ctlreq.c ****   (void)USBD_LL_StallEP(pdev, 0U);
 2367              		.loc 1 984 9
 2368 0012 0021     		movs	r1, #0
 2369 0014 7868     		ldr	r0, [r7, #4]
 2370 0016 FFF7FEFF 		bl	USBD_LL_StallEP
 985:Middlewares/ST/STM32_USB_Device_Library/Core/Src/usbd_ctlreq.c **** }
 2371              		.loc 1 985 1
 2372 001a 00BF     		nop
 2373 001c 0837     		adds	r7, r7, #8
 2374              	.LCFI64:
 2375              		.cfi_def_cfa_offset 8
 2376 001e BD46     		mov	sp, r7
 2377              	.LCFI65:
 2378              		.cfi_def_cfa_register 13
 2379              		@ sp needed
 2380 0020 80BD     		pop	{r7, pc}
 2381              		.cfi_endproc
 2382              	.LFE159:
 2384              		.section	.text.USBD_GetString,"ax",%progbits
 2385              		.align	1
 2386              		.global	USBD_GetString
 2387              		.syntax unified
 2388              		.thumb
 2389              		.thumb_func
 2391              	USBD_GetString:
 2392              	.LFB160:
 986:Middlewares/ST/STM32_USB_Device_Library/Core/Src/usbd_ctlreq.c **** 
 987:Middlewares/ST/STM32_USB_Device_Library/Core/Src/usbd_ctlreq.c **** 
 988:Middlewares/ST/STM32_USB_Device_Library/Core/Src/usbd_ctlreq.c **** /**
 989:Middlewares/ST/STM32_USB_Device_Library/Core/Src/usbd_ctlreq.c ****   * @brief  USBD_GetString
 990:Middlewares/ST/STM32_USB_Device_Library/Core/Src/usbd_ctlreq.c ****   *         Convert Ascii string into unicode one
 991:Middlewares/ST/STM32_USB_Device_Library/Core/Src/usbd_ctlreq.c ****   * @param  desc : descriptor buffer
 992:Middlewares/ST/STM32_USB_Device_Library/Core/Src/usbd_ctlreq.c ****   * @param  unicode : Formatted string buffer (unicode)
 993:Middlewares/ST/STM32_USB_Device_Library/Core/Src/usbd_ctlreq.c ****   * @param  len : descriptor length
 994:Middlewares/ST/STM32_USB_Device_Library/Core/Src/usbd_ctlreq.c ****   * @retval None
 995:Middlewares/ST/STM32_USB_Device_Library/Core/Src/usbd_ctlreq.c ****   */
 996:Middlewares/ST/STM32_USB_Device_Library/Core/Src/usbd_ctlreq.c **** void USBD_GetString(uint8_t *desc, uint8_t *unicode, uint16_t *len)
 997:Middlewares/ST/STM32_USB_Device_Library/Core/Src/usbd_ctlreq.c **** {
 2393              		.loc 1 997 1
ARM GAS  C:\Users\Godwin\AppData\Local\Temp\cc8eSH1G.s 			page 69


 2394              		.cfi_startproc
 2395              		@ args = 0, pretend = 0, frame = 24
 2396              		@ frame_needed = 1, uses_anonymous_args = 0
 2397 0000 80B5     		push	{r7, lr}
 2398              	.LCFI66:
 2399              		.cfi_def_cfa_offset 8
 2400              		.cfi_offset 7, -8
 2401              		.cfi_offset 14, -4
 2402 0002 86B0     		sub	sp, sp, #24
 2403              	.LCFI67:
 2404              		.cfi_def_cfa_offset 32
 2405 0004 00AF     		add	r7, sp, #0
 2406              	.LCFI68:
 2407              		.cfi_def_cfa_register 7
 2408 0006 F860     		str	r0, [r7, #12]
 2409 0008 B960     		str	r1, [r7, #8]
 2410 000a 7A60     		str	r2, [r7, #4]
 998:Middlewares/ST/STM32_USB_Device_Library/Core/Src/usbd_ctlreq.c ****   uint8_t idx = 0U;
 2411              		.loc 1 998 11
 2412 000c 0023     		movs	r3, #0
 2413 000e FB75     		strb	r3, [r7, #23]
 999:Middlewares/ST/STM32_USB_Device_Library/Core/Src/usbd_ctlreq.c ****   uint8_t *pdesc;
1000:Middlewares/ST/STM32_USB_Device_Library/Core/Src/usbd_ctlreq.c **** 
1001:Middlewares/ST/STM32_USB_Device_Library/Core/Src/usbd_ctlreq.c ****   if (desc == NULL)
 2414              		.loc 1 1001 6
 2415 0010 FB68     		ldr	r3, [r7, #12]
 2416 0012 002B     		cmp	r3, #0
 2417 0014 42D0     		beq	.L180
1002:Middlewares/ST/STM32_USB_Device_Library/Core/Src/usbd_ctlreq.c ****   {
1003:Middlewares/ST/STM32_USB_Device_Library/Core/Src/usbd_ctlreq.c ****     return;
1004:Middlewares/ST/STM32_USB_Device_Library/Core/Src/usbd_ctlreq.c ****   }
1005:Middlewares/ST/STM32_USB_Device_Library/Core/Src/usbd_ctlreq.c **** 
1006:Middlewares/ST/STM32_USB_Device_Library/Core/Src/usbd_ctlreq.c ****   pdesc = desc;
 2418              		.loc 1 1006 9
 2419 0016 FB68     		ldr	r3, [r7, #12]
 2420 0018 3B61     		str	r3, [r7, #16]
1007:Middlewares/ST/STM32_USB_Device_Library/Core/Src/usbd_ctlreq.c ****   *len = MIN(USBD_MAX_STR_DESC_SIZ, ((uint16_t)USBD_GetLen(pdesc) * 2U) + 2U);
 2421              		.loc 1 1007 10
 2422 001a 3869     		ldr	r0, [r7, #16]
 2423 001c FFF7FEFF 		bl	USBD_GetLen
 2424 0020 0346     		mov	r3, r0
 2425              		.loc 1 1007 10 is_stmt 0 discriminator 1
 2426 0022 0133     		adds	r3, r3, #1
 2427 0024 5B00     		lsls	r3, r3, #1
 2428              		.loc 1 1007 8 is_stmt 1 discriminator 1
 2429 0026 B3F5007F 		cmp	r3, #512
 2430 002a 08D8     		bhi	.L176
 2431              		.loc 1 1007 10 discriminator 1
 2432 002c 3869     		ldr	r0, [r7, #16]
 2433 002e FFF7FEFF 		bl	USBD_GetLen
 2434 0032 0346     		mov	r3, r0
 2435 0034 0133     		adds	r3, r3, #1
 2436              		.loc 1 1007 8 discriminator 1
 2437 0036 9BB2     		uxth	r3, r3
 2438 0038 5B00     		lsls	r3, r3, #1
 2439 003a 9AB2     		uxth	r2, r3
 2440 003c 01E0     		b	.L177
ARM GAS  C:\Users\Godwin\AppData\Local\Temp\cc8eSH1G.s 			page 70


 2441              	.L176:
 2442              		.loc 1 1007 8 is_stmt 0 discriminator 2
 2443 003e 4FF40072 		mov	r2, #512
 2444              	.L177:
 2445              		.loc 1 1007 8 discriminator 4
 2446 0042 7B68     		ldr	r3, [r7, #4]
 2447 0044 1A80     		strh	r2, [r3]	@ movhi
1008:Middlewares/ST/STM32_USB_Device_Library/Core/Src/usbd_ctlreq.c **** 
1009:Middlewares/ST/STM32_USB_Device_Library/Core/Src/usbd_ctlreq.c ****   unicode[idx] = *(uint8_t *)len;
 2448              		.loc 1 1009 10 is_stmt 1
 2449 0046 FB7D     		ldrb	r3, [r7, #23]	@ zero_extendqisi2
 2450 0048 BA68     		ldr	r2, [r7, #8]
 2451 004a 1344     		add	r3, r3, r2
 2452              		.loc 1 1009 18
 2453 004c 7A68     		ldr	r2, [r7, #4]
 2454 004e 1278     		ldrb	r2, [r2]	@ zero_extendqisi2
 2455              		.loc 1 1009 16
 2456 0050 1A70     		strb	r2, [r3]
1010:Middlewares/ST/STM32_USB_Device_Library/Core/Src/usbd_ctlreq.c ****   idx++;
 2457              		.loc 1 1010 6
 2458 0052 FB7D     		ldrb	r3, [r7, #23]	@ zero_extendqisi2
 2459 0054 0133     		adds	r3, r3, #1
 2460 0056 FB75     		strb	r3, [r7, #23]
1011:Middlewares/ST/STM32_USB_Device_Library/Core/Src/usbd_ctlreq.c ****   unicode[idx] = USB_DESC_TYPE_STRING;
 2461              		.loc 1 1011 10
 2462 0058 FB7D     		ldrb	r3, [r7, #23]	@ zero_extendqisi2
 2463 005a BA68     		ldr	r2, [r7, #8]
 2464 005c 1344     		add	r3, r3, r2
 2465              		.loc 1 1011 16
 2466 005e 0322     		movs	r2, #3
 2467 0060 1A70     		strb	r2, [r3]
1012:Middlewares/ST/STM32_USB_Device_Library/Core/Src/usbd_ctlreq.c ****   idx++;
 2468              		.loc 1 1012 6
 2469 0062 FB7D     		ldrb	r3, [r7, #23]	@ zero_extendqisi2
 2470 0064 0133     		adds	r3, r3, #1
 2471 0066 FB75     		strb	r3, [r7, #23]
1013:Middlewares/ST/STM32_USB_Device_Library/Core/Src/usbd_ctlreq.c **** 
1014:Middlewares/ST/STM32_USB_Device_Library/Core/Src/usbd_ctlreq.c ****   while (*pdesc != (uint8_t)'\0')
 2472              		.loc 1 1014 9
 2473 0068 13E0     		b	.L178
 2474              	.L179:
1015:Middlewares/ST/STM32_USB_Device_Library/Core/Src/usbd_ctlreq.c ****   {
1016:Middlewares/ST/STM32_USB_Device_Library/Core/Src/usbd_ctlreq.c ****     unicode[idx] = *pdesc;
 2475              		.loc 1 1016 12
 2476 006a FB7D     		ldrb	r3, [r7, #23]	@ zero_extendqisi2
 2477 006c BA68     		ldr	r2, [r7, #8]
 2478 006e 1344     		add	r3, r3, r2
 2479              		.loc 1 1016 20
 2480 0070 3A69     		ldr	r2, [r7, #16]
 2481 0072 1278     		ldrb	r2, [r2]	@ zero_extendqisi2
 2482              		.loc 1 1016 18
 2483 0074 1A70     		strb	r2, [r3]
1017:Middlewares/ST/STM32_USB_Device_Library/Core/Src/usbd_ctlreq.c ****     pdesc++;
 2484              		.loc 1 1017 10
 2485 0076 3B69     		ldr	r3, [r7, #16]
 2486 0078 0133     		adds	r3, r3, #1
 2487 007a 3B61     		str	r3, [r7, #16]
ARM GAS  C:\Users\Godwin\AppData\Local\Temp\cc8eSH1G.s 			page 71


1018:Middlewares/ST/STM32_USB_Device_Library/Core/Src/usbd_ctlreq.c ****     idx++;
 2488              		.loc 1 1018 8
 2489 007c FB7D     		ldrb	r3, [r7, #23]	@ zero_extendqisi2
 2490 007e 0133     		adds	r3, r3, #1
 2491 0080 FB75     		strb	r3, [r7, #23]
1019:Middlewares/ST/STM32_USB_Device_Library/Core/Src/usbd_ctlreq.c **** 
1020:Middlewares/ST/STM32_USB_Device_Library/Core/Src/usbd_ctlreq.c ****     unicode[idx] = 0U;
 2492              		.loc 1 1020 12
 2493 0082 FB7D     		ldrb	r3, [r7, #23]	@ zero_extendqisi2
 2494 0084 BA68     		ldr	r2, [r7, #8]
 2495 0086 1344     		add	r3, r3, r2
 2496              		.loc 1 1020 18
 2497 0088 0022     		movs	r2, #0
 2498 008a 1A70     		strb	r2, [r3]
1021:Middlewares/ST/STM32_USB_Device_Library/Core/Src/usbd_ctlreq.c ****     idx++;
 2499              		.loc 1 1021 8
 2500 008c FB7D     		ldrb	r3, [r7, #23]	@ zero_extendqisi2
 2501 008e 0133     		adds	r3, r3, #1
 2502 0090 FB75     		strb	r3, [r7, #23]
 2503              	.L178:
1014:Middlewares/ST/STM32_USB_Device_Library/Core/Src/usbd_ctlreq.c ****   {
 2504              		.loc 1 1014 10
 2505 0092 3B69     		ldr	r3, [r7, #16]
 2506 0094 1B78     		ldrb	r3, [r3]	@ zero_extendqisi2
1014:Middlewares/ST/STM32_USB_Device_Library/Core/Src/usbd_ctlreq.c ****   {
 2507              		.loc 1 1014 17
 2508 0096 002B     		cmp	r3, #0
 2509 0098 E7D1     		bne	.L179
 2510 009a 00E0     		b	.L173
 2511              	.L180:
1003:Middlewares/ST/STM32_USB_Device_Library/Core/Src/usbd_ctlreq.c ****   }
 2512              		.loc 1 1003 5
 2513 009c 00BF     		nop
 2514              	.L173:
1022:Middlewares/ST/STM32_USB_Device_Library/Core/Src/usbd_ctlreq.c ****   }
1023:Middlewares/ST/STM32_USB_Device_Library/Core/Src/usbd_ctlreq.c **** }
 2515              		.loc 1 1023 1
 2516 009e 1837     		adds	r7, r7, #24
 2517              	.LCFI69:
 2518              		.cfi_def_cfa_offset 8
 2519 00a0 BD46     		mov	sp, r7
 2520              	.LCFI70:
 2521              		.cfi_def_cfa_register 13
 2522              		@ sp needed
 2523 00a2 80BD     		pop	{r7, pc}
 2524              		.cfi_endproc
 2525              	.LFE160:
 2527              		.section	.text.USBD_GetLen,"ax",%progbits
 2528              		.align	1
 2529              		.syntax unified
 2530              		.thumb
 2531              		.thumb_func
 2533              	USBD_GetLen:
 2534              	.LFB161:
1024:Middlewares/ST/STM32_USB_Device_Library/Core/Src/usbd_ctlreq.c **** 
1025:Middlewares/ST/STM32_USB_Device_Library/Core/Src/usbd_ctlreq.c **** 
1026:Middlewares/ST/STM32_USB_Device_Library/Core/Src/usbd_ctlreq.c **** /**
ARM GAS  C:\Users\Godwin\AppData\Local\Temp\cc8eSH1G.s 			page 72


1027:Middlewares/ST/STM32_USB_Device_Library/Core/Src/usbd_ctlreq.c ****   * @brief  USBD_GetLen
1028:Middlewares/ST/STM32_USB_Device_Library/Core/Src/usbd_ctlreq.c ****   *         return the string length
1029:Middlewares/ST/STM32_USB_Device_Library/Core/Src/usbd_ctlreq.c ****    * @param  buf : pointer to the ascii string buffer
1030:Middlewares/ST/STM32_USB_Device_Library/Core/Src/usbd_ctlreq.c ****   * @retval string length
1031:Middlewares/ST/STM32_USB_Device_Library/Core/Src/usbd_ctlreq.c ****   */
1032:Middlewares/ST/STM32_USB_Device_Library/Core/Src/usbd_ctlreq.c **** static uint8_t USBD_GetLen(uint8_t *buf)
1033:Middlewares/ST/STM32_USB_Device_Library/Core/Src/usbd_ctlreq.c **** {
 2535              		.loc 1 1033 1
 2536              		.cfi_startproc
 2537              		@ args = 0, pretend = 0, frame = 16
 2538              		@ frame_needed = 1, uses_anonymous_args = 0
 2539              		@ link register save eliminated.
 2540 0000 80B4     		push	{r7}
 2541              	.LCFI71:
 2542              		.cfi_def_cfa_offset 4
 2543              		.cfi_offset 7, -4
 2544 0002 85B0     		sub	sp, sp, #20
 2545              	.LCFI72:
 2546              		.cfi_def_cfa_offset 24
 2547 0004 00AF     		add	r7, sp, #0
 2548              	.LCFI73:
 2549              		.cfi_def_cfa_register 7
 2550 0006 7860     		str	r0, [r7, #4]
1034:Middlewares/ST/STM32_USB_Device_Library/Core/Src/usbd_ctlreq.c ****   uint8_t  len = 0U;
 2551              		.loc 1 1034 12
 2552 0008 0023     		movs	r3, #0
 2553 000a FB73     		strb	r3, [r7, #15]
1035:Middlewares/ST/STM32_USB_Device_Library/Core/Src/usbd_ctlreq.c ****   uint8_t *pbuff = buf;
 2554              		.loc 1 1035 12
 2555 000c 7B68     		ldr	r3, [r7, #4]
 2556 000e BB60     		str	r3, [r7, #8]
1036:Middlewares/ST/STM32_USB_Device_Library/Core/Src/usbd_ctlreq.c **** 
